SF:/Users/ravindraboddipalli/sources/xdl/xdl-cli/src/main.rs
FN:153,_RNCNvCsfppDzaQcbXx_3xdl10check_file0B3_
FN:132,_RNCNvCsfppDzaQcbXx_3xdl10parse_file0B3_
FN:217,_RNCNvCsfppDzaQcbXx_3xdl12execute_file0B3_
FN:223,_RNCNvCsfppDzaQcbXx_3xdl12execute_files0_0B3_
FN:220,_RNCNvCsfppDzaQcbXx_3xdl12execute_files_0B3_
FN:149,_RNvCsfppDzaQcbXx_3xdl10check_file
FN:128,_RNvCsfppDzaQcbXx_3xdl10parse_file
FN:213,_RNvCsfppDzaQcbXx_3xdl12execute_file
FN:122,_RNvCsfppDzaQcbXx_3xdl13print_version
FN:175,_RNvCsfppDzaQcbXx_3xdl15execute_command
FN:239,_RNvCsfppDzaQcbXx_3xdl16format_xdl_value
FN:113,_RNvCsfppDzaQcbXx_3xdl21print_startup_message
FN:91,_RNvCsfppDzaQcbXx_3xdl3run
FN:70,_RNvCsfppDzaQcbXx_3xdl4main
FN:167,_RNvCsfppDzaQcbXx_3xdl9run_tests
FNDA:0,_RNCNvCsfppDzaQcbXx_3xdl10check_file0B3_
FNDA:0,_RNCNvCsfppDzaQcbXx_3xdl10parse_file0B3_
FNDA:0,_RNCNvCsfppDzaQcbXx_3xdl12execute_file0B3_
FNDA:0,_RNCNvCsfppDzaQcbXx_3xdl12execute_files0_0B3_
FNDA:0,_RNCNvCsfppDzaQcbXx_3xdl12execute_files_0B3_
FNDA:0,_RNvCsfppDzaQcbXx_3xdl10check_file
FNDA:0,_RNvCsfppDzaQcbXx_3xdl10parse_file
FNDA:0,_RNvCsfppDzaQcbXx_3xdl12execute_file
FNDA:0,_RNvCsfppDzaQcbXx_3xdl13print_version
FNDA:0,_RNvCsfppDzaQcbXx_3xdl15execute_command
FNDA:0,_RNvCsfppDzaQcbXx_3xdl16format_xdl_value
FNDA:0,_RNvCsfppDzaQcbXx_3xdl21print_startup_message
FNDA:0,_RNvCsfppDzaQcbXx_3xdl3run
FNDA:0,_RNvCsfppDzaQcbXx_3xdl4main
FNDA:0,_RNvCsfppDzaQcbXx_3xdl9run_tests
FNF:15
FNH:0
DA:70,0
DA:71,0
DA:74,0
DA:75,0
DA:78,0
DA:79,0
DA:80,0
DA:82,0
DA:83,0
DA:84,0
DA:85,0
DA:86,0
DA:91,0
DA:92,0
DA:93,0
DA:94,0
DA:95,0
DA:97,0
DA:98,0
DA:101,0
DA:102,0
DA:103,0
DA:104,0
DA:107,0
DA:111,0
DA:113,0
DA:114,0
DA:115,0
DA:118,0
DA:119,0
DA:120,0
DA:122,0
DA:123,0
DA:124,0
DA:126,0
DA:128,0
DA:129,0
DA:131,0
DA:132,0
DA:134,0
DA:136,0
DA:137,0
DA:138,0
DA:139,0
DA:140,0
DA:141,0
DA:142,0
DA:143,0
DA:146,0
DA:147,0
DA:149,0
DA:150,0
DA:152,0
DA:153,0
DA:155,0
DA:157,0
DA:158,0
DA:160,0
DA:161,0
DA:162,0
DA:165,0
DA:167,0
DA:168,0
DA:171,0
DA:172,0
DA:173,0
DA:175,0
DA:176,0
DA:178,0
DA:181,0
DA:182,0
DA:183,0
DA:184,0
DA:185,0
DA:189,0
DA:190,0
DA:191,0
DA:192,0
DA:193,0
DA:196,0
DA:197,0
DA:198,0
DA:199,0
DA:200,0
DA:203,0
DA:204,0
DA:210,0
DA:211,0
DA:213,0
DA:214,0
DA:216,0
DA:217,0
DA:220,0
DA:221,0
DA:222,0
DA:223,0
DA:225,0
DA:228,0
DA:230,0
DA:231,0
DA:232,0
DA:233,0
DA:235,0
DA:236,0
DA:239,0
DA:240,0
DA:241,0
BRF:0
BRH:0
LF:112
LH:0
end_of_record
SF:/Users/ravindraboddipalli/sources/xdl/xdl-cli/src/repl.rs
FN:87,_RNvNtCsfppDzaQcbXx_3xdl4repl10print_help
FN:11,_RNvNtCsfppDzaQcbXx_3xdl4repl10start_repl
FN:127,_RNvNtCsfppDzaQcbXx_3xdl4repl16format_xdl_value
FN:101,_RNvNtCsfppDzaQcbXx_3xdl4repl20execute_repl_command
FNDA:0,_RNvNtCsfppDzaQcbXx_3xdl4repl10print_help
FNDA:0,_RNvNtCsfppDzaQcbXx_3xdl4repl10start_repl
FNDA:0,_RNvNtCsfppDzaQcbXx_3xdl4repl16format_xdl_value
FNDA:0,_RNvNtCsfppDzaQcbXx_3xdl4repl20execute_repl_command
FNF:4
FNH:0
DA:11,0
DA:12,0
DA:14,0
DA:15,0
DA:18,0
DA:19,0
DA:21,0
DA:22,0
DA:25,0
DA:27,0
DA:28,0
DA:29,0
DA:31,0
DA:32,0
DA:33,0
DA:35,0
DA:38,0
DA:39,0
DA:40,0
DA:41,0
DA:43,0
DA:44,0
DA:45,0
DA:47,0
DA:48,0
DA:49,0
DA:51,0
DA:55,0
DA:56,0
DA:57,0
DA:58,0
DA:59,0
DA:61,0
DA:62,0
DA:67,0
DA:68,0
DA:71,0
DA:72,0
DA:74,0
DA:75,0
DA:76,0
DA:82,0
DA:84,0
DA:85,0
DA:87,0
DA:88,0
DA:89,0
DA:90,0
DA:91,0
DA:92,0
DA:93,0
DA:94,0
DA:95,0
DA:96,0
DA:97,0
DA:98,0
DA:99,0
DA:101,0
DA:103,0
DA:104,0
DA:105,0
DA:106,0
DA:110,0
DA:111,0
DA:112,0
DA:115,0
DA:116,0
DA:117,0
DA:120,0
DA:124,0
DA:127,0
DA:128,0
DA:129,0
BRF:0
BRH:0
LF:73
LH:0
end_of_record
SF:/Users/ravindraboddipalli/sources/xdl/xdl-core/src/array.rs
FN:350,_RNvNtNtCseIM1XrU3RyC_8xdl_core5array5testss_11test_reform
FN:340,_RNvNtNtCseIM1XrU3RyC_8xdl_core5array5testss_14test_transpose
FN:299,_RNvNtNtCseIM1XrU3RyC_8xdl_core5array5testss_17test_scalar_array
FN:307,_RNvNtNtCseIM1XrU3RyC_8xdl_core5array5testss_17test_vector_array
FN:329,_RNvNtNtCseIM1XrU3RyC_8xdl_core5array5testss_20test_linear_indexing
FN:318,_RNvNtNtCseIM1XrU3RyC_8xdl_core5array5testss_20test_multi_dim_array
FN:21,_RNvMNtCseIM1XrU3RyC_8xdl_core5arrayINtB2_8GdlArraypE3newB4_
FN:219,_RNvMNtCseIM1XrU3RyC_8xdl_core5arrayINtB2_8GdlArraypE6to_vecB4_
FN:214,_RNvMNtCseIM1XrU3RyC_8xdl_core5arrayINtB2_8GdlArraypE8as_sliceB4_
FN:209,_RNvMNtCseIM1XrU3RyC_8xdl_core5arrayINtB2_8GdlArraypE8gdl_typeB4_
FN:288,_RNvMs_NtCseIM1XrU3RyC_8xdl_core5arrayINtB4_8GdlArraydE14from_gdl_value
FN:249,_RNvXs2_NtCseIM1XrU3RyC_8xdl_core5arrayINtB5_8GdlArrayhENtNtB7_5types7GdlData10dimensions
FN:253,_RNvXs2_NtCseIM1XrU3RyC_8xdl_core5arrayINtB5_8GdlArrayhENtNtB7_5types7GdlData10n_elements
FN:257,_RNvXs2_NtCseIM1XrU3RyC_8xdl_core5arrayINtB5_8GdlArrayhENtNtB7_5types7GdlData10size_bytes
FN:261,_RNvXs2_NtCseIM1XrU3RyC_8xdl_core5arrayINtB5_8GdlArrayhENtNtB7_5types7GdlData11clone_boxed
FN:265,_RNvXs2_NtCseIM1XrU3RyC_8xdl_core5arrayINtB5_8GdlArrayhENtNtB7_5types7GdlData14to_string_repr
FN:245,_RNvXs2_NtCseIM1XrU3RyC_8xdl_core5arrayINtB5_8GdlArrayhENtNtB7_5types7GdlData8gdl_type
FN:249,_RNvXs3_NtCseIM1XrU3RyC_8xdl_core5arrayINtB5_8GdlArraysENtNtB7_5types7GdlData10dimensions
FN:253,_RNvXs3_NtCseIM1XrU3RyC_8xdl_core5arrayINtB5_8GdlArraysENtNtB7_5types7GdlData10n_elements
FN:257,_RNvXs3_NtCseIM1XrU3RyC_8xdl_core5arrayINtB5_8GdlArraysENtNtB7_5types7GdlData10size_bytes
FN:261,_RNvXs3_NtCseIM1XrU3RyC_8xdl_core5arrayINtB5_8GdlArraysENtNtB7_5types7GdlData11clone_boxed
FN:265,_RNvXs3_NtCseIM1XrU3RyC_8xdl_core5arrayINtB5_8GdlArraysENtNtB7_5types7GdlData14to_string_repr
FN:245,_RNvXs3_NtCseIM1XrU3RyC_8xdl_core5arrayINtB5_8GdlArraysENtNtB7_5types7GdlData8gdl_type
FN:249,_RNvXs4_NtCseIM1XrU3RyC_8xdl_core5arrayINtB5_8GdlArraylENtNtB7_5types7GdlData10dimensions
FN:257,_RNvXs4_NtCseIM1XrU3RyC_8xdl_core5arrayINtB5_8GdlArraylENtNtB7_5types7GdlData10size_bytes
FN:261,_RNvXs4_NtCseIM1XrU3RyC_8xdl_core5arrayINtB5_8GdlArraylENtNtB7_5types7GdlData11clone_boxed
FN:265,_RNvXs4_NtCseIM1XrU3RyC_8xdl_core5arrayINtB5_8GdlArraylENtNtB7_5types7GdlData14to_string_repr
FN:245,_RNvXs4_NtCseIM1XrU3RyC_8xdl_core5arrayINtB5_8GdlArraylENtNtB7_5types7GdlData8gdl_type
FN:249,_RNvXs5_NtCseIM1XrU3RyC_8xdl_core5arrayINtB5_8GdlArrayfENtNtB7_5types7GdlData10dimensions
FN:257,_RNvXs5_NtCseIM1XrU3RyC_8xdl_core5arrayINtB5_8GdlArrayfENtNtB7_5types7GdlData10size_bytes
FN:261,_RNvXs5_NtCseIM1XrU3RyC_8xdl_core5arrayINtB5_8GdlArrayfENtNtB7_5types7GdlData11clone_boxed
FN:265,_RNvXs5_NtCseIM1XrU3RyC_8xdl_core5arrayINtB5_8GdlArrayfENtNtB7_5types7GdlData14to_string_repr
FN:245,_RNvXs5_NtCseIM1XrU3RyC_8xdl_core5arrayINtB5_8GdlArrayfENtNtB7_5types7GdlData8gdl_type
FN:249,_RNvXs6_NtCseIM1XrU3RyC_8xdl_core5arrayINtB5_8GdlArraydENtNtB7_5types7GdlData10dimensions
FN:257,_RNvXs6_NtCseIM1XrU3RyC_8xdl_core5arrayINtB5_8GdlArraydENtNtB7_5types7GdlData10size_bytes
FN:261,_RNvXs6_NtCseIM1XrU3RyC_8xdl_core5arrayINtB5_8GdlArraydENtNtB7_5types7GdlData11clone_boxed
FN:265,_RNvXs6_NtCseIM1XrU3RyC_8xdl_core5arrayINtB5_8GdlArraydENtNtB7_5types7GdlData14to_string_repr
FN:245,_RNvXs6_NtCseIM1XrU3RyC_8xdl_core5arrayINtB5_8GdlArraydENtNtB7_5types7GdlData8gdl_type
FN:249,_RNvXs7_NtCseIM1XrU3RyC_8xdl_core5arrayINtB5_8GdlArrayINtCsfKQIqakrO1K_11num_complex7ComplexfEENtNtB7_5types7GdlData10dimensions
FN:253,_RNvXs7_NtCseIM1XrU3RyC_8xdl_core5arrayINtB5_8GdlArrayINtCsfKQIqakrO1K_11num_complex7ComplexfEENtNtB7_5types7GdlData10n_elements
FN:257,_RNvXs7_NtCseIM1XrU3RyC_8xdl_core5arrayINtB5_8GdlArrayINtCsfKQIqakrO1K_11num_complex7ComplexfEENtNtB7_5types7GdlData10size_bytes
FN:261,_RNvXs7_NtCseIM1XrU3RyC_8xdl_core5arrayINtB5_8GdlArrayINtCsfKQIqakrO1K_11num_complex7ComplexfEENtNtB7_5types7GdlData11clone_boxed
FN:265,_RNvXs7_NtCseIM1XrU3RyC_8xdl_core5arrayINtB5_8GdlArrayINtCsfKQIqakrO1K_11num_complex7ComplexfEENtNtB7_5types7GdlData14to_string_repr
FN:245,_RNvXs7_NtCseIM1XrU3RyC_8xdl_core5arrayINtB5_8GdlArrayINtCsfKQIqakrO1K_11num_complex7ComplexfEENtNtB7_5types7GdlData8gdl_type
FN:249,_RNvXs8_NtCseIM1XrU3RyC_8xdl_core5arrayINtB5_8GdlArrayINtCsfKQIqakrO1K_11num_complex7ComplexdEENtNtB7_5types7GdlData10dimensions
FN:253,_RNvXs8_NtCseIM1XrU3RyC_8xdl_core5arrayINtB5_8GdlArrayINtCsfKQIqakrO1K_11num_complex7ComplexdEENtNtB7_5types7GdlData10n_elements
FN:257,_RNvXs8_NtCseIM1XrU3RyC_8xdl_core5arrayINtB5_8GdlArrayINtCsfKQIqakrO1K_11num_complex7ComplexdEENtNtB7_5types7GdlData10size_bytes
FN:261,_RNvXs8_NtCseIM1XrU3RyC_8xdl_core5arrayINtB5_8GdlArrayINtCsfKQIqakrO1K_11num_complex7ComplexdEENtNtB7_5types7GdlData11clone_boxed
FN:265,_RNvXs8_NtCseIM1XrU3RyC_8xdl_core5arrayINtB5_8GdlArrayINtCsfKQIqakrO1K_11num_complex7ComplexdEENtNtB7_5types7GdlData14to_string_repr
FN:245,_RNvXs8_NtCseIM1XrU3RyC_8xdl_core5arrayINtB5_8GdlArrayINtCsfKQIqakrO1K_11num_complex7ComplexdEENtNtB7_5types7GdlData8gdl_type
FN:249,_RNvXs9_NtCseIM1XrU3RyC_8xdl_core5arrayINtB5_8GdlArrayNtNtCs1AhsD0INetT_5alloc6string6StringENtNtB7_5types7GdlData10dimensions
FN:253,_RNvXs9_NtCseIM1XrU3RyC_8xdl_core5arrayINtB5_8GdlArrayNtNtCs1AhsD0INetT_5alloc6string6StringENtNtB7_5types7GdlData10n_elements
FN:257,_RNvXs9_NtCseIM1XrU3RyC_8xdl_core5arrayINtB5_8GdlArrayNtNtCs1AhsD0INetT_5alloc6string6StringENtNtB7_5types7GdlData10size_bytes
FN:261,_RNvXs9_NtCseIM1XrU3RyC_8xdl_core5arrayINtB5_8GdlArrayNtNtCs1AhsD0INetT_5alloc6string6StringENtNtB7_5types7GdlData11clone_boxed
FN:265,_RNvXs9_NtCseIM1XrU3RyC_8xdl_core5arrayINtB5_8GdlArrayNtNtCs1AhsD0INetT_5alloc6string6StringENtNtB7_5types7GdlData14to_string_repr
FN:245,_RNvXs9_NtCseIM1XrU3RyC_8xdl_core5arrayINtB5_8GdlArrayNtNtCs1AhsD0INetT_5alloc6string6StringENtNtB7_5types7GdlData8gdl_type
FN:97,_RNCNvMNtCseIM1XrU3RyC_8xdl_core5arrayINtB4_8GdlArraydE3get0B6_
FN:61,_RNCNvMNtCseIM1XrU3RyC_8xdl_core5arrayINtB4_8GdlArraydE8from_vec0B6_
FN:97,_RNCNvMNtCseIM1XrU3RyC_8xdl_core5arrayINtB4_8GdlArrayfE3get0B6_
FN:97,_RNCNvMNtCseIM1XrU3RyC_8xdl_core5arrayINtB4_8GdlArraylE3get0B6_
FN:194,_RNCNvMNtCseIM1XrU3RyC_8xdl_core5arrayINtB4_8GdlArraylE6reform0B6_
FN:61,_RNCNvMNtCseIM1XrU3RyC_8xdl_core5arrayINtB4_8GdlArraylE8from_vec0B6_
FN:204,_RNvMNtCseIM1XrU3RyC_8xdl_core5arrayINtB2_8GdlArraydE10dimensionsB4_
FN:81,_RNvMNtCseIM1XrU3RyC_8xdl_core5arrayINtB2_8GdlArraydE3getB4_
FN:41,_RNvMNtCseIM1XrU3RyC_8xdl_core5arrayINtB2_8GdlArraydE8from_vecB4_
FN:204,_RNvMNtCseIM1XrU3RyC_8xdl_core5arrayINtB2_8GdlArrayfE10dimensionsB4_
FN:81,_RNvMNtCseIM1XrU3RyC_8xdl_core5arrayINtB2_8GdlArrayfE3getB4_
FN:71,_RNvMNtCseIM1XrU3RyC_8xdl_core5arrayINtB2_8GdlArrayfE6scalarB4_
FN:204,_RNvMNtCseIM1XrU3RyC_8xdl_core5arrayINtB2_8GdlArraylE10dimensionsB4_
FN:128,_RNvMNtCseIM1XrU3RyC_8xdl_core5arrayINtB2_8GdlArraylE10get_linearB4_
FN:142,_RNvMNtCseIM1XrU3RyC_8xdl_core5arrayINtB2_8GdlArraylE10set_linearB4_
FN:81,_RNvMNtCseIM1XrU3RyC_8xdl_core5arrayINtB2_8GdlArraylE3getB4_
FN:101,_RNvMNtCseIM1XrU3RyC_8xdl_core5arrayINtB2_8GdlArraylE3setB4_
FN:179,_RNvMNtCseIM1XrU3RyC_8xdl_core5arrayINtB2_8GdlArraylE6reformB4_
FN:41,_RNvMNtCseIM1XrU3RyC_8xdl_core5arrayINtB2_8GdlArraylE8from_vecB4_
FN:155,_RNvMNtCseIM1XrU3RyC_8xdl_core5arrayINtB2_8GdlArraylE9transposeB4_
FN:253,_RNvXs4_NtCseIM1XrU3RyC_8xdl_core5arrayINtB5_8GdlArraylENtNtB7_5types7GdlData10n_elements
FN:253,_RNvXs5_NtCseIM1XrU3RyC_8xdl_core5arrayINtB5_8GdlArrayfENtNtB7_5types7GdlData10n_elements
FN:253,_RNvXs6_NtCseIM1XrU3RyC_8xdl_core5arrayINtB5_8GdlArraydENtNtB7_5types7GdlData10n_elements
FN:61,_RNCNvMNtCsgj69aNDdLpp_8xdl_core5arrayINtB4_8GdlArraylE8from_vec0Cs7X22eMfvUxK_10xdl_stdlib
FN:41,_RNvMNtCsgj69aNDdLpp_8xdl_core5arrayINtB2_8GdlArraylE8from_vecCs7X22eMfvUxK_10xdl_stdlib
FN:97,_RNCNvMNtCsgj69aNDdLpp_8xdl_core5arrayINtB4_8GdlArrayINtCsfKQIqakrO1K_11num_complex7ComplexdEE3get0B6_
FN:97,_RNCNvMNtCsgj69aNDdLpp_8xdl_core5arrayINtB4_8GdlArrayINtCsfKQIqakrO1K_11num_complex7ComplexfEE3get0B6_
FN:97,_RNCNvMNtCsgj69aNDdLpp_8xdl_core5arrayINtB4_8GdlArrayNtNtCs1AhsD0INetT_5alloc6string6StringE3get0B6_
FN:97,_RNCNvMNtCsgj69aNDdLpp_8xdl_core5arrayINtB4_8GdlArraydE3get0B6_
FN:97,_RNCNvMNtCsgj69aNDdLpp_8xdl_core5arrayINtB4_8GdlArrayfE3get0B6_
FN:97,_RNCNvMNtCsgj69aNDdLpp_8xdl_core5arrayINtB4_8GdlArrayhE3get0B6_
FN:97,_RNCNvMNtCsgj69aNDdLpp_8xdl_core5arrayINtB4_8GdlArraylE3get0B6_
FN:97,_RNCNvMNtCsgj69aNDdLpp_8xdl_core5arrayINtB4_8GdlArraysE3get0B6_
FN:81,_RNvMNtCsgj69aNDdLpp_8xdl_core5arrayINtB2_8GdlArrayINtCsfKQIqakrO1K_11num_complex7ComplexdEE3getB4_
FN:209,_RNvMNtCsgj69aNDdLpp_8xdl_core5arrayINtB2_8GdlArrayINtCsfKQIqakrO1K_11num_complex7ComplexdEE8gdl_typeB4_
FN:81,_RNvMNtCsgj69aNDdLpp_8xdl_core5arrayINtB2_8GdlArrayINtCsfKQIqakrO1K_11num_complex7ComplexfEE3getB4_
FN:209,_RNvMNtCsgj69aNDdLpp_8xdl_core5arrayINtB2_8GdlArrayINtCsfKQIqakrO1K_11num_complex7ComplexfEE8gdl_typeB4_
FN:81,_RNvMNtCsgj69aNDdLpp_8xdl_core5arrayINtB2_8GdlArrayNtNtCs1AhsD0INetT_5alloc6string6StringE3getB4_
FN:209,_RNvMNtCsgj69aNDdLpp_8xdl_core5arrayINtB2_8GdlArrayNtNtCs1AhsD0INetT_5alloc6string6StringE8gdl_typeB4_
FN:81,_RNvMNtCsgj69aNDdLpp_8xdl_core5arrayINtB2_8GdlArraydE3getB4_
FN:71,_RNvMNtCsgj69aNDdLpp_8xdl_core5arrayINtB2_8GdlArraydE6scalarB4_
FN:209,_RNvMNtCsgj69aNDdLpp_8xdl_core5arrayINtB2_8GdlArraydE8gdl_typeB4_
FN:81,_RNvMNtCsgj69aNDdLpp_8xdl_core5arrayINtB2_8GdlArrayfE3getB4_
FN:209,_RNvMNtCsgj69aNDdLpp_8xdl_core5arrayINtB2_8GdlArrayfE8gdl_typeB4_
FN:81,_RNvMNtCsgj69aNDdLpp_8xdl_core5arrayINtB2_8GdlArrayhE3getB4_
FN:209,_RNvMNtCsgj69aNDdLpp_8xdl_core5arrayINtB2_8GdlArrayhE8gdl_typeB4_
FN:81,_RNvMNtCsgj69aNDdLpp_8xdl_core5arrayINtB2_8GdlArraylE3getB4_
FN:209,_RNvMNtCsgj69aNDdLpp_8xdl_core5arrayINtB2_8GdlArraylE8gdl_typeB4_
FN:81,_RNvMNtCsgj69aNDdLpp_8xdl_core5arrayINtB2_8GdlArraysE3getB4_
FN:209,_RNvMNtCsgj69aNDdLpp_8xdl_core5arrayINtB2_8GdlArraysE8gdl_typeB4_
FNDA:1,_RNvNtNtCseIM1XrU3RyC_8xdl_core5array5testss_11test_reform
FNDA:1,_RNvNtNtCseIM1XrU3RyC_8xdl_core5array5testss_14test_transpose
FNDA:1,_RNvNtNtCseIM1XrU3RyC_8xdl_core5array5testss_17test_scalar_array
FNDA:1,_RNvNtNtCseIM1XrU3RyC_8xdl_core5array5testss_17test_vector_array
FNDA:1,_RNvNtNtCseIM1XrU3RyC_8xdl_core5array5testss_20test_linear_indexing
FNDA:1,_RNvNtNtCseIM1XrU3RyC_8xdl_core5array5testss_20test_multi_dim_array
FNDA:0,_RNvMNtCseIM1XrU3RyC_8xdl_core5arrayINtB2_8GdlArraypE3newB4_
FNDA:0,_RNvMNtCseIM1XrU3RyC_8xdl_core5arrayINtB2_8GdlArraypE6to_vecB4_
FNDA:0,_RNvMNtCseIM1XrU3RyC_8xdl_core5arrayINtB2_8GdlArraypE8as_sliceB4_
FNDA:0,_RNvMNtCseIM1XrU3RyC_8xdl_core5arrayINtB2_8GdlArraypE8gdl_typeB4_
FNDA:0,_RNvMs_NtCseIM1XrU3RyC_8xdl_core5arrayINtB4_8GdlArraydE14from_gdl_value
FNDA:0,_RNvXs2_NtCseIM1XrU3RyC_8xdl_core5arrayINtB5_8GdlArrayhENtNtB7_5types7GdlData10dimensions
FNDA:0,_RNvXs2_NtCseIM1XrU3RyC_8xdl_core5arrayINtB5_8GdlArrayhENtNtB7_5types7GdlData10n_elements
FNDA:0,_RNvXs2_NtCseIM1XrU3RyC_8xdl_core5arrayINtB5_8GdlArrayhENtNtB7_5types7GdlData10size_bytes
FNDA:0,_RNvXs2_NtCseIM1XrU3RyC_8xdl_core5arrayINtB5_8GdlArrayhENtNtB7_5types7GdlData11clone_boxed
FNDA:0,_RNvXs2_NtCseIM1XrU3RyC_8xdl_core5arrayINtB5_8GdlArrayhENtNtB7_5types7GdlData14to_string_repr
FNDA:0,_RNvXs2_NtCseIM1XrU3RyC_8xdl_core5arrayINtB5_8GdlArrayhENtNtB7_5types7GdlData8gdl_type
FNDA:0,_RNvXs3_NtCseIM1XrU3RyC_8xdl_core5arrayINtB5_8GdlArraysENtNtB7_5types7GdlData10dimensions
FNDA:0,_RNvXs3_NtCseIM1XrU3RyC_8xdl_core5arrayINtB5_8GdlArraysENtNtB7_5types7GdlData10n_elements
FNDA:0,_RNvXs3_NtCseIM1XrU3RyC_8xdl_core5arrayINtB5_8GdlArraysENtNtB7_5types7GdlData10size_bytes
FNDA:0,_RNvXs3_NtCseIM1XrU3RyC_8xdl_core5arrayINtB5_8GdlArraysENtNtB7_5types7GdlData11clone_boxed
FNDA:0,_RNvXs3_NtCseIM1XrU3RyC_8xdl_core5arrayINtB5_8GdlArraysENtNtB7_5types7GdlData14to_string_repr
FNDA:0,_RNvXs3_NtCseIM1XrU3RyC_8xdl_core5arrayINtB5_8GdlArraysENtNtB7_5types7GdlData8gdl_type
FNDA:0,_RNvXs4_NtCseIM1XrU3RyC_8xdl_core5arrayINtB5_8GdlArraylENtNtB7_5types7GdlData10dimensions
FNDA:0,_RNvXs4_NtCseIM1XrU3RyC_8xdl_core5arrayINtB5_8GdlArraylENtNtB7_5types7GdlData10size_bytes
FNDA:0,_RNvXs4_NtCseIM1XrU3RyC_8xdl_core5arrayINtB5_8GdlArraylENtNtB7_5types7GdlData11clone_boxed
FNDA:0,_RNvXs4_NtCseIM1XrU3RyC_8xdl_core5arrayINtB5_8GdlArraylENtNtB7_5types7GdlData14to_string_repr
FNDA:0,_RNvXs4_NtCseIM1XrU3RyC_8xdl_core5arrayINtB5_8GdlArraylENtNtB7_5types7GdlData8gdl_type
FNDA:0,_RNvXs5_NtCseIM1XrU3RyC_8xdl_core5arrayINtB5_8GdlArrayfENtNtB7_5types7GdlData10dimensions
FNDA:0,_RNvXs5_NtCseIM1XrU3RyC_8xdl_core5arrayINtB5_8GdlArrayfENtNtB7_5types7GdlData10size_bytes
FNDA:0,_RNvXs5_NtCseIM1XrU3RyC_8xdl_core5arrayINtB5_8GdlArrayfENtNtB7_5types7GdlData11clone_boxed
FNDA:0,_RNvXs5_NtCseIM1XrU3RyC_8xdl_core5arrayINtB5_8GdlArrayfENtNtB7_5types7GdlData14to_string_repr
FNDA:0,_RNvXs5_NtCseIM1XrU3RyC_8xdl_core5arrayINtB5_8GdlArrayfENtNtB7_5types7GdlData8gdl_type
FNDA:0,_RNvXs6_NtCseIM1XrU3RyC_8xdl_core5arrayINtB5_8GdlArraydENtNtB7_5types7GdlData10dimensions
FNDA:0,_RNvXs6_NtCseIM1XrU3RyC_8xdl_core5arrayINtB5_8GdlArraydENtNtB7_5types7GdlData10size_bytes
FNDA:0,_RNvXs6_NtCseIM1XrU3RyC_8xdl_core5arrayINtB5_8GdlArraydENtNtB7_5types7GdlData11clone_boxed
FNDA:0,_RNvXs6_NtCseIM1XrU3RyC_8xdl_core5arrayINtB5_8GdlArraydENtNtB7_5types7GdlData14to_string_repr
FNDA:0,_RNvXs6_NtCseIM1XrU3RyC_8xdl_core5arrayINtB5_8GdlArraydENtNtB7_5types7GdlData8gdl_type
FNDA:0,_RNvXs7_NtCseIM1XrU3RyC_8xdl_core5arrayINtB5_8GdlArrayINtCsfKQIqakrO1K_11num_complex7ComplexfEENtNtB7_5types7GdlData10dimensions
FNDA:0,_RNvXs7_NtCseIM1XrU3RyC_8xdl_core5arrayINtB5_8GdlArrayINtCsfKQIqakrO1K_11num_complex7ComplexfEENtNtB7_5types7GdlData10n_elements
FNDA:0,_RNvXs7_NtCseIM1XrU3RyC_8xdl_core5arrayINtB5_8GdlArrayINtCsfKQIqakrO1K_11num_complex7ComplexfEENtNtB7_5types7GdlData10size_bytes
FNDA:0,_RNvXs7_NtCseIM1XrU3RyC_8xdl_core5arrayINtB5_8GdlArrayINtCsfKQIqakrO1K_11num_complex7ComplexfEENtNtB7_5types7GdlData11clone_boxed
FNDA:0,_RNvXs7_NtCseIM1XrU3RyC_8xdl_core5arrayINtB5_8GdlArrayINtCsfKQIqakrO1K_11num_complex7ComplexfEENtNtB7_5types7GdlData14to_string_repr
FNDA:0,_RNvXs7_NtCseIM1XrU3RyC_8xdl_core5arrayINtB5_8GdlArrayINtCsfKQIqakrO1K_11num_complex7ComplexfEENtNtB7_5types7GdlData8gdl_type
FNDA:0,_RNvXs8_NtCseIM1XrU3RyC_8xdl_core5arrayINtB5_8GdlArrayINtCsfKQIqakrO1K_11num_complex7ComplexdEENtNtB7_5types7GdlData10dimensions
FNDA:0,_RNvXs8_NtCseIM1XrU3RyC_8xdl_core5arrayINtB5_8GdlArrayINtCsfKQIqakrO1K_11num_complex7ComplexdEENtNtB7_5types7GdlData10n_elements
FNDA:0,_RNvXs8_NtCseIM1XrU3RyC_8xdl_core5arrayINtB5_8GdlArrayINtCsfKQIqakrO1K_11num_complex7ComplexdEENtNtB7_5types7GdlData10size_bytes
FNDA:0,_RNvXs8_NtCseIM1XrU3RyC_8xdl_core5arrayINtB5_8GdlArrayINtCsfKQIqakrO1K_11num_complex7ComplexdEENtNtB7_5types7GdlData11clone_boxed
FNDA:0,_RNvXs8_NtCseIM1XrU3RyC_8xdl_core5arrayINtB5_8GdlArrayINtCsfKQIqakrO1K_11num_complex7ComplexdEENtNtB7_5types7GdlData14to_string_repr
FNDA:0,_RNvXs8_NtCseIM1XrU3RyC_8xdl_core5arrayINtB5_8GdlArrayINtCsfKQIqakrO1K_11num_complex7ComplexdEENtNtB7_5types7GdlData8gdl_type
FNDA:0,_RNvXs9_NtCseIM1XrU3RyC_8xdl_core5arrayINtB5_8GdlArrayNtNtCs1AhsD0INetT_5alloc6string6StringENtNtB7_5types7GdlData10dimensions
FNDA:0,_RNvXs9_NtCseIM1XrU3RyC_8xdl_core5arrayINtB5_8GdlArrayNtNtCs1AhsD0INetT_5alloc6string6StringENtNtB7_5types7GdlData10n_elements
FNDA:0,_RNvXs9_NtCseIM1XrU3RyC_8xdl_core5arrayINtB5_8GdlArrayNtNtCs1AhsD0INetT_5alloc6string6StringENtNtB7_5types7GdlData10size_bytes
FNDA:0,_RNvXs9_NtCseIM1XrU3RyC_8xdl_core5arrayINtB5_8GdlArrayNtNtCs1AhsD0INetT_5alloc6string6StringENtNtB7_5types7GdlData11clone_boxed
FNDA:0,_RNvXs9_NtCseIM1XrU3RyC_8xdl_core5arrayINtB5_8GdlArrayNtNtCs1AhsD0INetT_5alloc6string6StringENtNtB7_5types7GdlData14to_string_repr
FNDA:0,_RNvXs9_NtCseIM1XrU3RyC_8xdl_core5arrayINtB5_8GdlArrayNtNtCs1AhsD0INetT_5alloc6string6StringENtNtB7_5types7GdlData8gdl_type
FNDA:0,_RNCNvMNtCseIM1XrU3RyC_8xdl_core5arrayINtB4_8GdlArraydE3get0B6_
FNDA:0,_RNCNvMNtCseIM1XrU3RyC_8xdl_core5arrayINtB4_8GdlArraydE8from_vec0B6_
FNDA:0,_RNCNvMNtCseIM1XrU3RyC_8xdl_core5arrayINtB4_8GdlArrayfE3get0B6_
FNDA:0,_RNCNvMNtCseIM1XrU3RyC_8xdl_core5arrayINtB4_8GdlArraylE3get0B6_
FNDA:0,_RNCNvMNtCseIM1XrU3RyC_8xdl_core5arrayINtB4_8GdlArraylE6reform0B6_
FNDA:0,_RNCNvMNtCseIM1XrU3RyC_8xdl_core5arrayINtB4_8GdlArraylE8from_vec0B6_
FNDA:1,_RNvMNtCseIM1XrU3RyC_8xdl_core5arrayINtB2_8GdlArraydE10dimensionsB4_
FNDA:1,_RNvMNtCseIM1XrU3RyC_8xdl_core5arrayINtB2_8GdlArraydE3getB4_
FNDA:1,_RNvMNtCseIM1XrU3RyC_8xdl_core5arrayINtB2_8GdlArraydE8from_vecB4_
FNDA:1,_RNvMNtCseIM1XrU3RyC_8xdl_core5arrayINtB2_8GdlArrayfE10dimensionsB4_
FNDA:1,_RNvMNtCseIM1XrU3RyC_8xdl_core5arrayINtB2_8GdlArrayfE3getB4_
FNDA:1,_RNvMNtCseIM1XrU3RyC_8xdl_core5arrayINtB2_8GdlArrayfE6scalarB4_
FNDA:3,_RNvMNtCseIM1XrU3RyC_8xdl_core5arrayINtB2_8GdlArraylE10dimensionsB4_
FNDA:1,_RNvMNtCseIM1XrU3RyC_8xdl_core5arrayINtB2_8GdlArraylE10get_linearB4_
FNDA:1,_RNvMNtCseIM1XrU3RyC_8xdl_core5arrayINtB2_8GdlArraylE10set_linearB4_
FNDA:3,_RNvMNtCseIM1XrU3RyC_8xdl_core5arrayINtB2_8GdlArraylE3getB4_
FNDA:1,_RNvMNtCseIM1XrU3RyC_8xdl_core5arrayINtB2_8GdlArraylE3setB4_
FNDA:1,_RNvMNtCseIM1XrU3RyC_8xdl_core5arrayINtB2_8GdlArraylE6reformB4_
FNDA:4,_RNvMNtCseIM1XrU3RyC_8xdl_core5arrayINtB2_8GdlArraylE8from_vecB4_
FNDA:1,_RNvMNtCseIM1XrU3RyC_8xdl_core5arrayINtB2_8GdlArraylE9transposeB4_
FNDA:2,_RNvXs4_NtCseIM1XrU3RyC_8xdl_core5arrayINtB5_8GdlArraylENtNtB7_5types7GdlData10n_elements
FNDA:1,_RNvXs5_NtCseIM1XrU3RyC_8xdl_core5arrayINtB5_8GdlArrayfENtNtB7_5types7GdlData10n_elements
FNDA:1,_RNvXs6_NtCseIM1XrU3RyC_8xdl_core5arrayINtB5_8GdlArraydENtNtB7_5types7GdlData10n_elements
FNDA:0,_RNCNvMNtCsgj69aNDdLpp_8xdl_core5arrayINtB4_8GdlArraylE8from_vec0Cs7X22eMfvUxK_10xdl_stdlib
FNDA:0,_RNvMNtCsgj69aNDdLpp_8xdl_core5arrayINtB2_8GdlArraylE8from_vecCs7X22eMfvUxK_10xdl_stdlib
FNDA:0,_RNCNvMNtCsgj69aNDdLpp_8xdl_core5arrayINtB4_8GdlArrayINtCsfKQIqakrO1K_11num_complex7ComplexdEE3get0B6_
FNDA:0,_RNCNvMNtCsgj69aNDdLpp_8xdl_core5arrayINtB4_8GdlArrayINtCsfKQIqakrO1K_11num_complex7ComplexfEE3get0B6_
FNDA:0,_RNCNvMNtCsgj69aNDdLpp_8xdl_core5arrayINtB4_8GdlArrayNtNtCs1AhsD0INetT_5alloc6string6StringE3get0B6_
FNDA:0,_RNCNvMNtCsgj69aNDdLpp_8xdl_core5arrayINtB4_8GdlArraydE3get0B6_
FNDA:0,_RNCNvMNtCsgj69aNDdLpp_8xdl_core5arrayINtB4_8GdlArrayfE3get0B6_
FNDA:0,_RNCNvMNtCsgj69aNDdLpp_8xdl_core5arrayINtB4_8GdlArrayhE3get0B6_
FNDA:0,_RNCNvMNtCsgj69aNDdLpp_8xdl_core5arrayINtB4_8GdlArraylE3get0B6_
FNDA:0,_RNCNvMNtCsgj69aNDdLpp_8xdl_core5arrayINtB4_8GdlArraysE3get0B6_
FNDA:0,_RNvMNtCsgj69aNDdLpp_8xdl_core5arrayINtB2_8GdlArrayINtCsfKQIqakrO1K_11num_complex7ComplexdEE3getB4_
FNDA:0,_RNvMNtCsgj69aNDdLpp_8xdl_core5arrayINtB2_8GdlArrayINtCsfKQIqakrO1K_11num_complex7ComplexdEE8gdl_typeB4_
FNDA:0,_RNvMNtCsgj69aNDdLpp_8xdl_core5arrayINtB2_8GdlArrayINtCsfKQIqakrO1K_11num_complex7ComplexfEE3getB4_
FNDA:0,_RNvMNtCsgj69aNDdLpp_8xdl_core5arrayINtB2_8GdlArrayINtCsfKQIqakrO1K_11num_complex7ComplexfEE8gdl_typeB4_
FNDA:0,_RNvMNtCsgj69aNDdLpp_8xdl_core5arrayINtB2_8GdlArrayNtNtCs1AhsD0INetT_5alloc6string6StringE3getB4_
FNDA:0,_RNvMNtCsgj69aNDdLpp_8xdl_core5arrayINtB2_8GdlArrayNtNtCs1AhsD0INetT_5alloc6string6StringE8gdl_typeB4_
FNDA:0,_RNvMNtCsgj69aNDdLpp_8xdl_core5arrayINtB2_8GdlArraydE3getB4_
FNDA:0,_RNvMNtCsgj69aNDdLpp_8xdl_core5arrayINtB2_8GdlArraydE6scalarB4_
FNDA:0,_RNvMNtCsgj69aNDdLpp_8xdl_core5arrayINtB2_8GdlArraydE8gdl_typeB4_
FNDA:0,_RNvMNtCsgj69aNDdLpp_8xdl_core5arrayINtB2_8GdlArrayfE3getB4_
FNDA:0,_RNvMNtCsgj69aNDdLpp_8xdl_core5arrayINtB2_8GdlArrayfE8gdl_typeB4_
FNDA:0,_RNvMNtCsgj69aNDdLpp_8xdl_core5arrayINtB2_8GdlArrayhE3getB4_
FNDA:0,_RNvMNtCsgj69aNDdLpp_8xdl_core5arrayINtB2_8GdlArrayhE8gdl_typeB4_
FNDA:0,_RNvMNtCsgj69aNDdLpp_8xdl_core5arrayINtB2_8GdlArraylE3getB4_
FNDA:0,_RNvMNtCsgj69aNDdLpp_8xdl_core5arrayINtB2_8GdlArraylE8gdl_typeB4_
FNDA:0,_RNvMNtCsgj69aNDdLpp_8xdl_core5arrayINtB2_8GdlArraysE3getB4_
FNDA:0,_RNvMNtCsgj69aNDdLpp_8xdl_core5arrayINtB2_8GdlArraysE8gdl_typeB4_
FNF:29
FNH:16
DA:21,0
DA:22,0
DA:23,0
DA:25,0
DA:26,0
DA:28,0
DA:31,0
DA:33,0
DA:34,0
DA:35,0
DA:36,0
DA:37,0
DA:38,0
DA:41,5
DA:42,5
DA:43,5
DA:44,5
DA:45,5
DA:46,5
DA:47,0
DA:48,0
DA:49,0
DA:50,0
DA:51,0
DA:52,5
DA:54,5
DA:55,0
DA:57,5
DA:60,5
DA:61,5
DA:63,5
DA:64,5
DA:65,5
DA:66,5
DA:67,5
DA:68,5
DA:71,1
DA:72,1
DA:73,1
DA:74,1
DA:75,1
DA:76,1
DA:77,1
DA:78,1
DA:81,5
DA:82,5
DA:83,1
DA:84,4
DA:86,4
DA:87,0
DA:88,0
DA:89,0
DA:90,0
DA:91,0
DA:92,4
DA:94,4
DA:95,4
DA:96,4
DA:97,4
DA:98,5
DA:101,1
DA:102,1
DA:103,0
DA:104,0
DA:105,1
DA:107,1
DA:108,0
DA:109,0
DA:110,0
DA:111,0
DA:112,0
DA:113,1
DA:115,1
DA:116,1
DA:117,1
DA:118,1
DA:120,0
DA:121,0
DA:122,0
DA:123,0
DA:125,1
DA:128,1
DA:129,1
DA:130,0
DA:131,0
DA:132,0
DA:133,0
DA:134,1
DA:137,1
DA:138,1
DA:139,1
DA:142,1
DA:143,1
DA:144,0
DA:145,0
DA:146,0
DA:147,0
DA:148,1
DA:150,1
DA:151,1
DA:152,1
DA:155,1
DA:156,1
DA:157,1
DA:159,1
DA:160,1
DA:161,0
DA:164,1
DA:165,1
DA:166,1
DA:167,1
DA:168,1
DA:171,1
DA:172,1
DA:173,1
DA:174,1
DA:175,1
DA:176,1
DA:179,1
DA:180,1
DA:181,1
DA:183,1
DA:184,1
DA:185,0
DA:187,1
DA:190,1
DA:191,1
DA:192,1
DA:193,1
DA:194,1
DA:196,1
DA:197,1
DA:198,1
DA:199,1
DA:200,1
DA:201,1
DA:204,5
DA:205,5
DA:206,5
DA:209,0
DA:210,0
DA:211,0
DA:214,0
DA:215,0
DA:216,0
DA:219,0
DA:220,0
DA:221,0
DA:223,0
DA:224,0
DA:226,0
DA:228,0
DA:245,0
DA:247,0
DA:249,0
DA:250,0
DA:251,0
DA:253,4
DA:254,4
DA:255,4
DA:257,0
DA:258,0
DA:259,0
DA:261,0
DA:262,0
DA:263,0
DA:265,0
DA:266,0
DA:267,0
DA:269,0
DA:271,0
DA:288,0
DA:289,0
DA:290,0
DA:291,0
DA:299,1
DA:300,1
DA:301,1
DA:302,1
DA:303,1
DA:304,1
DA:307,1
DA:308,1
DA:309,1
DA:310,1
DA:312,1
DA:313,1
DA:314,1
DA:315,1
DA:318,1
DA:319,1
DA:320,1
DA:321,1
DA:323,1
DA:324,1
DA:325,1
DA:326,1
DA:329,1
DA:330,1
DA:331,1
DA:332,1
DA:334,1
DA:335,1
DA:336,1
DA:337,1
DA:340,1
DA:341,1
DA:342,1
DA:343,1
DA:345,1
DA:346,1
DA:347,1
DA:350,1
DA:351,1
DA:352,1
DA:353,1
DA:355,1
DA:356,1
DA:357,1
DA:358,1
BRF:0
BRH:0
LF:223
LH:141
end_of_record
SF:/Users/ravindraboddipalli/sources/xdl/xdl-core/src/dimension.rs
FN:258,_RNvNtNtCseIM1XrU3RyC_8xdl_core9dimension5testss_11test_reform
FN:245,_RNvNtNtCseIM1XrU3RyC_8xdl_core9dimension5testss_13test_indexing
FN:266,_RNvNtNtCseIM1XrU3RyC_8xdl_core9dimension5testss_14test_transpose
FN:276,_RNvNtNtCseIM1XrU3RyC_8xdl_core9dimension5testss_16test_error_cases
FN:237,_RNvNtNtCseIM1XrU3RyC_8xdl_core9dimension5testss_20test_multi_dimension
FN:220,_RNvNtNtCseIM1XrU3RyC_8xdl_core9dimension5testss_21test_scalar_dimension
FN:228,_RNvNtNtCseIM1XrU3RyC_8xdl_core9dimension5testss_21test_vector_dimension
FN:207,_RNCNvXs0_NtCseIM1XrU3RyC_8xdl_core9dimensionNtB7_9DimensionNtNtCs2CqrNpCrSUr_4core3fmt7Display3fmt0B9_
FN:198,_RNvXs0_NtCseIM1XrU3RyC_8xdl_core9dimensionNtB5_9DimensionNtNtCs2CqrNpCrSUr_4core3fmt7Display3fmt
FN:192,_RNvXs_NtCseIM1XrU3RyC_8xdl_core9dimensionNtB4_9DimensionNtNtCs2CqrNpCrSUr_4core7default7Default7default
FN:184,_RNCNvMNtCseIM1XrU3RyC_8xdl_core9dimensionNtB4_9Dimension9transpose0B6_
FN:65,_RNvMNtCseIM1XrU3RyC_8xdl_core9dimensionNtB2_9Dimension10n_elements
FN:111,_RNvMNtCseIM1XrU3RyC_8xdl_core9dimensionNtB2_9Dimension11multi_index
FN:84,_RNvMNtCseIM1XrU3RyC_8xdl_core9dimensionNtB2_9Dimension12linear_index
FN:60,_RNvMNtCseIM1XrU3RyC_8xdl_core9dimensionNtB2_9Dimension3dim
FN:55,_RNvMNtCseIM1XrU3RyC_8xdl_core9dimensionNtB2_9Dimension4dims
FN:50,_RNvMNtCseIM1XrU3RyC_8xdl_core9dimensionNtB2_9Dimension4rank
FN:137,_RNvMNtCseIM1XrU3RyC_8xdl_core9dimensionNtB2_9Dimension6reform
FN:14,_RNvMNtCseIM1XrU3RyC_8xdl_core9dimensionNtB2_9Dimension6scalar
FN:19,_RNvMNtCseIM1XrU3RyC_8xdl_core9dimensionNtB2_9Dimension8from_vec
FN:38,_RNvMNtCseIM1XrU3RyC_8xdl_core9dimensionNtB2_9Dimension9from_size
FN:74,_RNvMNtCseIM1XrU3RyC_8xdl_core9dimensionNtB2_9Dimension9is_scalar
FN:79,_RNvMNtCseIM1XrU3RyC_8xdl_core9dimensionNtB2_9Dimension9is_vector
FN:151,_RNvMNtCseIM1XrU3RyC_8xdl_core9dimensionNtB2_9Dimension9transpose
FN:65,_RNvMNtCsgj69aNDdLpp_8xdl_core9dimensionNtB2_9Dimension10n_elements
FN:111,_RNvMNtCsgj69aNDdLpp_8xdl_core9dimensionNtB2_9Dimension11multi_index
FN:84,_RNvMNtCsgj69aNDdLpp_8xdl_core9dimensionNtB2_9Dimension12linear_index
FN:60,_RNvMNtCsgj69aNDdLpp_8xdl_core9dimensionNtB2_9Dimension3dim
FN:55,_RNvMNtCsgj69aNDdLpp_8xdl_core9dimensionNtB2_9Dimension4dims
FN:50,_RNvMNtCsgj69aNDdLpp_8xdl_core9dimensionNtB2_9Dimension4rank
FN:137,_RNvMNtCsgj69aNDdLpp_8xdl_core9dimensionNtB2_9Dimension6reform
FN:14,_RNvMNtCsgj69aNDdLpp_8xdl_core9dimensionNtB2_9Dimension6scalar
FN:19,_RNvMNtCsgj69aNDdLpp_8xdl_core9dimensionNtB2_9Dimension8from_vec
FN:38,_RNvMNtCsgj69aNDdLpp_8xdl_core9dimensionNtB2_9Dimension9from_size
FN:74,_RNvMNtCsgj69aNDdLpp_8xdl_core9dimensionNtB2_9Dimension9is_scalar
FN:79,_RNvMNtCsgj69aNDdLpp_8xdl_core9dimensionNtB2_9Dimension9is_vector
FN:151,_RNvMNtCsgj69aNDdLpp_8xdl_core9dimensionNtB2_9Dimension9transpose
FN:198,_RNvXs0_NtCsgj69aNDdLpp_8xdl_core9dimensionNtB5_9DimensionNtNtCs2CqrNpCrSUr_4core3fmt7Display3fmt
FN:192,_RNvXs_NtCsgj69aNDdLpp_8xdl_core9dimensionNtB4_9DimensionNtNtCs2CqrNpCrSUr_4core7default7Default7default
FN:184,_RNCNvMNtCsgj69aNDdLpp_8xdl_core9dimensionNtB4_9Dimension9transpose0B6_
FN:207,_RNCNvXs0_NtCsgj69aNDdLpp_8xdl_core9dimensionNtB7_9DimensionNtNtCs2CqrNpCrSUr_4core3fmt7Display3fmt0B9_
FNDA:1,_RNvNtNtCseIM1XrU3RyC_8xdl_core9dimension5testss_11test_reform
FNDA:1,_RNvNtNtCseIM1XrU3RyC_8xdl_core9dimension5testss_13test_indexing
FNDA:1,_RNvNtNtCseIM1XrU3RyC_8xdl_core9dimension5testss_14test_transpose
FNDA:1,_RNvNtNtCseIM1XrU3RyC_8xdl_core9dimension5testss_16test_error_cases
FNDA:1,_RNvNtNtCseIM1XrU3RyC_8xdl_core9dimension5testss_20test_multi_dimension
FNDA:1,_RNvNtNtCseIM1XrU3RyC_8xdl_core9dimension5testss_21test_scalar_dimension
FNDA:1,_RNvNtNtCseIM1XrU3RyC_8xdl_core9dimension5testss_21test_vector_dimension
FNDA:0,_RNCNvXs0_NtCseIM1XrU3RyC_8xdl_core9dimensionNtB7_9DimensionNtNtCs2CqrNpCrSUr_4core3fmt7Display3fmt0B9_
FNDA:0,_RNvXs0_NtCseIM1XrU3RyC_8xdl_core9dimensionNtB5_9DimensionNtNtCs2CqrNpCrSUr_4core3fmt7Display3fmt
FNDA:0,_RNvXs_NtCseIM1XrU3RyC_8xdl_core9dimensionNtB4_9DimensionNtNtCs2CqrNpCrSUr_4core7default7Default7default
FNDA:8,_RNCNvMNtCseIM1XrU3RyC_8xdl_core9dimensionNtB4_9Dimension9transpose0B6_
FNDA:23,_RNvMNtCseIM1XrU3RyC_8xdl_core9dimensionNtB2_9Dimension10n_elements
FNDA:4,_RNvMNtCseIM1XrU3RyC_8xdl_core9dimensionNtB2_9Dimension11multi_index
FNDA:2,_RNvMNtCseIM1XrU3RyC_8xdl_core9dimensionNtB2_9Dimension12linear_index
FNDA:1,_RNvMNtCseIM1XrU3RyC_8xdl_core9dimensionNtB2_9Dimension3dim
FNDA:12,_RNvMNtCseIM1XrU3RyC_8xdl_core9dimensionNtB2_9Dimension4dims
FNDA:10,_RNvMNtCseIM1XrU3RyC_8xdl_core9dimensionNtB2_9Dimension4rank
FNDA:3,_RNvMNtCseIM1XrU3RyC_8xdl_core9dimensionNtB2_9Dimension6reform
FNDA:2,_RNvMNtCseIM1XrU3RyC_8xdl_core9dimensionNtB2_9Dimension6scalar
FNDA:12,_RNvMNtCseIM1XrU3RyC_8xdl_core9dimensionNtB2_9Dimension8from_vec
FNDA:3,_RNvMNtCseIM1XrU3RyC_8xdl_core9dimensionNtB2_9Dimension9from_size
FNDA:21,_RNvMNtCseIM1XrU3RyC_8xdl_core9dimensionNtB2_9Dimension9is_scalar
FNDA:2,_RNvMNtCseIM1XrU3RyC_8xdl_core9dimensionNtB2_9Dimension9is_vector
FNDA:3,_RNvMNtCseIM1XrU3RyC_8xdl_core9dimensionNtB2_9Dimension9transpose
FNDA:0,_RNvMNtCsgj69aNDdLpp_8xdl_core9dimensionNtB2_9Dimension10n_elements
FNDA:0,_RNvMNtCsgj69aNDdLpp_8xdl_core9dimensionNtB2_9Dimension11multi_index
FNDA:0,_RNvMNtCsgj69aNDdLpp_8xdl_core9dimensionNtB2_9Dimension12linear_index
FNDA:0,_RNvMNtCsgj69aNDdLpp_8xdl_core9dimensionNtB2_9Dimension3dim
FNDA:0,_RNvMNtCsgj69aNDdLpp_8xdl_core9dimensionNtB2_9Dimension4dims
FNDA:0,_RNvMNtCsgj69aNDdLpp_8xdl_core9dimensionNtB2_9Dimension4rank
FNDA:0,_RNvMNtCsgj69aNDdLpp_8xdl_core9dimensionNtB2_9Dimension6reform
FNDA:0,_RNvMNtCsgj69aNDdLpp_8xdl_core9dimensionNtB2_9Dimension6scalar
FNDA:0,_RNvMNtCsgj69aNDdLpp_8xdl_core9dimensionNtB2_9Dimension8from_vec
FNDA:0,_RNvMNtCsgj69aNDdLpp_8xdl_core9dimensionNtB2_9Dimension9from_size
FNDA:0,_RNvMNtCsgj69aNDdLpp_8xdl_core9dimensionNtB2_9Dimension9is_scalar
FNDA:0,_RNvMNtCsgj69aNDdLpp_8xdl_core9dimensionNtB2_9Dimension9is_vector
FNDA:0,_RNvMNtCsgj69aNDdLpp_8xdl_core9dimensionNtB2_9Dimension9transpose
FNDA:0,_RNvXs0_NtCsgj69aNDdLpp_8xdl_core9dimensionNtB5_9DimensionNtNtCs2CqrNpCrSUr_4core3fmt7Display3fmt
FNDA:0,_RNvXs_NtCsgj69aNDdLpp_8xdl_core9dimensionNtB4_9DimensionNtNtCs2CqrNpCrSUr_4core7default7Default7default
FNDA:0,_RNCNvMNtCsgj69aNDdLpp_8xdl_core9dimensionNtB4_9Dimension9transpose0B6_
FNDA:0,_RNCNvXs0_NtCsgj69aNDdLpp_8xdl_core9dimensionNtB7_9DimensionNtNtCs2CqrNpCrSUr_4core3fmt7Display3fmt0B9_
FNF:24
FNH:21
DA:14,2
DA:15,2
DA:16,2
DA:19,12
DA:20,12
DA:21,1
DA:22,1
DA:23,1
DA:24,1
DA:25,1
DA:26,11
DA:28,11
DA:29,1
DA:30,1
DA:31,1
DA:32,10
DA:34,10
DA:35,12
DA:38,3
DA:39,3
DA:40,0
DA:41,0
DA:42,0
DA:43,3
DA:44,3
DA:45,3
DA:46,3
DA:47,3
DA:50,10
DA:51,10
DA:52,10
DA:55,12
DA:56,12
DA:57,12
DA:60,1
DA:61,1
DA:62,1
DA:65,23
DA:66,23
DA:67,2
DA:69,21
DA:71,23
DA:74,21
DA:75,21
DA:76,21
DA:79,2
DA:80,2
DA:81,2
DA:84,2
DA:85,2
DA:86,0
DA:87,0
DA:88,0
DA:89,0
DA:90,0
DA:91,2
DA:93,2
DA:94,2
DA:96,4
DA:97,4
DA:98,0
DA:99,0
DA:100,0
DA:101,0
DA:102,4
DA:103,4
DA:104,4
DA:107,2
DA:108,2
DA:111,4
DA:112,4
DA:113,0
DA:114,0
DA:115,0
DA:116,0
DA:117,0
DA:118,4
DA:120,4
DA:121,0
DA:122,4
DA:124,4
DA:125,4
DA:127,8
DA:128,8
DA:129,8
DA:130,8
DA:131,8
DA:133,4
DA:134,4
DA:137,3
DA:138,3
DA:139,3
DA:140,1
DA:141,1
DA:142,1
DA:143,1
DA:144,1
DA:145,2
DA:147,2
DA:148,3
DA:151,3
DA:152,3
DA:153,0
DA:154,3
DA:156,3
DA:157,1
DA:158,0
DA:159,0
DA:160,0
DA:161,1
DA:162,1
DA:165,2
DA:169,3
DA:170,11
DA:171,8
DA:172,0
DA:173,0
DA:174,0
DA:175,8
DA:176,8
DA:177,0
DA:178,0
DA:179,0
DA:180,8
DA:181,8
DA:184,8
DA:185,3
DA:186,3
DA:187,3
DA:188,3
DA:192,0
DA:193,0
DA:194,0
DA:198,0
DA:199,0
DA:200,0
DA:202,0
DA:203,0
DA:204,0
DA:205,0
DA:206,0
DA:207,0
DA:208,0
DA:209,0
DA:212,0
DA:220,1
DA:221,1
DA:222,1
DA:223,1
DA:224,1
DA:225,1
DA:228,1
DA:229,1
DA:230,1
DA:231,1
DA:232,1
DA:233,1
DA:234,1
DA:237,1
DA:238,1
DA:239,1
DA:240,1
DA:241,1
DA:242,1
DA:245,1
DA:246,1
DA:249,1
DA:250,1
DA:253,1
DA:254,1
DA:255,1
DA:258,1
DA:259,1
DA:260,1
DA:261,1
DA:262,1
DA:263,1
DA:266,1
DA:267,1
DA:268,1
DA:269,1
DA:271,1
DA:272,1
DA:273,1
DA:276,1
DA:278,1
DA:281,1
DA:284,1
DA:285,1
DA:286,1
BRF:0
BRH:0
LF:192
LH:148
end_of_record
SF:/Users/ravindraboddipalli/sources/xdl/xdl-core/src/error.rs
FN:124,_RNCNvXININtCseIM1XrU3RyC_8xdl_core5errors1_0ppEINtNtCs2CqrNpCrSUr_4core6result6ResultppEINtB7_15XdlErrorContextpE11gdl_context0B9_
FN:123,_RNvXININtCseIM1XrU3RyC_8xdl_core5errors1_0ppEINtNtCs2CqrNpCrSUr_4core6result6ResultppEINtB5_15XdlErrorContextpE11gdl_contextB7_
FN:103,_RNvXININtCseIM1XrU3RyC_8xdl_core5errors_0pENtB5_8XdlErrorINtNtCs2CqrNpCrSUr_4core7convert4FromINtNtNtCs8oK182k1yMJ_8plotters7drawing4area20DrawingAreaErrorKindpEE4fromB7_
FN:93,_RNvXNtCseIM1XrU3RyC_8xdl_core5errorNtB2_8XdlErrorINtNtCs2CqrNpCrSUr_4core7convert4FromNtNtNtCs4N3M0UGf3SB_3std2io5error5ErrorE4from
FN:117,_RNvXs0_NtCseIM1XrU3RyC_8xdl_core5errorINtNtCs2CqrNpCrSUr_4core6option6OptionlEINtB5_15XdlErrorContextlE11gdl_contextB7_
FN:118,_RNCNvXs0_NtCseIM1XrU3RyC_8xdl_core5errorINtNtCs2CqrNpCrSUr_4core6option6OptionlEINtB7_15XdlErrorContextlE11gdl_context0B9_
FN:142,_RNvNtNtCseIM1XrU3RyC_8xdl_core5error5testss_18test_error_context
FN:133,_RNvNtNtCseIM1XrU3RyC_8xdl_core5error5testss_18test_error_display
FN:103,_RNvXs_NtCsgj69aNDdLpp_8xdl_core5errorNtB4_8XdlErrorINtNtCs2CqrNpCrSUr_4core7convert4FromINtNtNtCs8oK182k1yMJ_8plotters7drawing4area20DrawingAreaErrorKindNtNtCs6JLCEJeqNGJ_15plotters_bitmap5error18BitMapBackendErrorEE4fromCs7X22eMfvUxK_10xdl_stdlib
FNDA:0,_RNCNvXININtCseIM1XrU3RyC_8xdl_core5errors1_0ppEINtNtCs2CqrNpCrSUr_4core6result6ResultppEINtB7_15XdlErrorContextpE11gdl_context0B9_
FNDA:0,_RNvXININtCseIM1XrU3RyC_8xdl_core5errors1_0ppEINtNtCs2CqrNpCrSUr_4core6result6ResultppEINtB5_15XdlErrorContextpE11gdl_contextB7_
FNDA:0,_RNvXININtCseIM1XrU3RyC_8xdl_core5errors_0pENtB5_8XdlErrorINtNtCs2CqrNpCrSUr_4core7convert4FromINtNtNtCs8oK182k1yMJ_8plotters7drawing4area20DrawingAreaErrorKindpEE4fromB7_
FNDA:0,_RNvXNtCseIM1XrU3RyC_8xdl_core5errorNtB2_8XdlErrorINtNtCs2CqrNpCrSUr_4core7convert4FromNtNtNtCs4N3M0UGf3SB_3std2io5error5ErrorE4from
FNDA:1,_RNvXs0_NtCseIM1XrU3RyC_8xdl_core5errorINtNtCs2CqrNpCrSUr_4core6option6OptionlEINtB5_15XdlErrorContextlE11gdl_contextB7_
FNDA:1,_RNCNvXs0_NtCseIM1XrU3RyC_8xdl_core5errorINtNtCs2CqrNpCrSUr_4core6option6OptionlEINtB7_15XdlErrorContextlE11gdl_context0B9_
FNDA:1,_RNvNtNtCseIM1XrU3RyC_8xdl_core5error5testss_18test_error_context
FNDA:1,_RNvNtNtCseIM1XrU3RyC_8xdl_core5error5testss_18test_error_display
FNDA:0,_RNvXs_NtCsgj69aNDdLpp_8xdl_core5errorNtB4_8XdlErrorINtNtCs2CqrNpCrSUr_4core7convert4FromINtNtNtCs8oK182k1yMJ_8plotters7drawing4area20DrawingAreaErrorKindNtNtCs6JLCEJeqNGJ_15plotters_bitmap5error18BitMapBackendErrorEE4fromCs7X22eMfvUxK_10xdl_stdlib
FNF:8
FNH:4
DA:93,0
DA:94,0
DA:95,0
DA:103,0
DA:104,0
DA:105,0
DA:117,1
DA:118,1
DA:119,1
DA:123,0
DA:124,0
DA:125,0
DA:133,1
DA:134,1
DA:135,1
DA:136,1
DA:137,1
DA:138,1
DA:139,1
DA:142,1
DA:143,1
DA:144,1
DA:145,1
DA:146,1
BRF:0
BRH:0
LF:26
LH:16
end_of_record
SF:/Users/ravindraboddipalli/sources/xdl/xdl-core/src/lib.rs
FN:104,_RNvMCseIM1XrU3RyC_8xdl_coreNtB2_7GdlType10is_complex
FN:85,_RNvMCseIM1XrU3RyC_8xdl_coreNtB2_7GdlType10is_integer
FN:67,_RNvMCseIM1XrU3RyC_8xdl_coreNtB2_7GdlType10is_numeric
FN:45,_RNvMCseIM1XrU3RyC_8xdl_coreNtB2_7GdlType4size
FN:99,_RNvMCseIM1XrU3RyC_8xdl_coreNtB2_7GdlType8is_float
FN:110,_RNvXs_CseIM1XrU3RyC_8xdl_coreNtB4_7GdlTypeNtNtCs2CqrNpCrSUr_4core3fmt7Display3fmt
FN:138,_RNvNtCseIM1XrU3RyC_8xdl_core5testss_19test_gdl_type_sizes
FN:149,_RNvNtCseIM1XrU3RyC_8xdl_core5testss_20test_type_predicates
FN:104,_RNvMCsgj69aNDdLpp_8xdl_coreNtB2_7GdlType10is_complex
FN:85,_RNvMCsgj69aNDdLpp_8xdl_coreNtB2_7GdlType10is_integer
FN:67,_RNvMCsgj69aNDdLpp_8xdl_coreNtB2_7GdlType10is_numeric
FN:45,_RNvMCsgj69aNDdLpp_8xdl_coreNtB2_7GdlType4size
FN:99,_RNvMCsgj69aNDdLpp_8xdl_coreNtB2_7GdlType8is_float
FN:110,_RNvXs_Csgj69aNDdLpp_8xdl_coreNtB4_7GdlTypeNtNtCs2CqrNpCrSUr_4core3fmt7Display3fmt
FNDA:1,_RNvMCseIM1XrU3RyC_8xdl_coreNtB2_7GdlType10is_complex
FNDA:1,_RNvMCseIM1XrU3RyC_8xdl_coreNtB2_7GdlType10is_integer
FNDA:2,_RNvMCseIM1XrU3RyC_8xdl_coreNtB2_7GdlType10is_numeric
FNDA:9,_RNvMCseIM1XrU3RyC_8xdl_coreNtB2_7GdlType4size
FNDA:1,_RNvMCseIM1XrU3RyC_8xdl_coreNtB2_7GdlType8is_float
FNDA:0,_RNvXs_CseIM1XrU3RyC_8xdl_coreNtB4_7GdlTypeNtNtCs2CqrNpCrSUr_4core3fmt7Display3fmt
FNDA:1,_RNvNtCseIM1XrU3RyC_8xdl_core5testss_19test_gdl_type_sizes
FNDA:1,_RNvNtCseIM1XrU3RyC_8xdl_core5testss_20test_type_predicates
FNDA:0,_RNvMCsgj69aNDdLpp_8xdl_coreNtB2_7GdlType10is_complex
FNDA:0,_RNvMCsgj69aNDdLpp_8xdl_coreNtB2_7GdlType10is_integer
FNDA:0,_RNvMCsgj69aNDdLpp_8xdl_coreNtB2_7GdlType10is_numeric
FNDA:0,_RNvMCsgj69aNDdLpp_8xdl_coreNtB2_7GdlType4size
FNDA:0,_RNvMCsgj69aNDdLpp_8xdl_coreNtB2_7GdlType8is_float
FNDA:0,_RNvXs_Csgj69aNDdLpp_8xdl_coreNtB4_7GdlTypeNtNtCs2CqrNpCrSUr_4core3fmt7Display3fmt
FNF:8
FNH:7
DA:45,9
DA:46,9
DA:47,0
DA:48,1
DA:49,1
DA:50,1
DA:51,2
DA:52,2
DA:53,1
DA:54,1
DA:55,0
DA:56,0
DA:57,0
DA:58,0
DA:59,0
DA:60,0
DA:61,0
DA:62,0
DA:64,9
DA:67,2
DA:68,1
DA:69,2
DA:82,2
DA:85,1
DA:86,0
DA:87,1
DA:96,1
DA:99,1
DA:100,1
DA:101,1
DA:104,1
DA:105,1
DA:106,1
DA:110,0
DA:111,0
DA:112,0
DA:113,0
DA:114,0
DA:115,0
DA:116,0
DA:117,0
DA:118,0
DA:119,0
DA:120,0
DA:121,0
DA:122,0
DA:123,0
DA:124,0
DA:125,0
DA:126,0
DA:127,0
DA:129,0
DA:130,0
DA:138,1
DA:139,1
DA:140,1
DA:141,1
DA:142,1
DA:143,1
DA:144,1
DA:145,1
DA:146,1
DA:149,1
DA:150,1
DA:151,1
DA:152,1
DA:153,1
DA:154,1
DA:155,1
BRF:0
BRH:0
LF:69
LH:39
end_of_record
SF:/Users/ravindraboddipalli/sources/xdl/xdl-core/src/types.rs
FN:136,_RNCNvMNtCseIM1XrU3RyC_8xdl_core5typesNtB4_8XdlValue14to_string_repr0B6_
FN:128,_RNCNvMNtCseIM1XrU3RyC_8xdl_core5typesNtB4_8XdlValue14to_string_reprs0_0B6_
FN:144,_RNCNvMNtCseIM1XrU3RyC_8xdl_core5typesNtB4_8XdlValue14to_string_reprs1_0B6_
FN:110,_RNCNvMNtCseIM1XrU3RyC_8xdl_core5typesNtB4_8XdlValue14to_string_reprs_0B6_
FN:288,_RNCNvMNtCseIM1XrU3RyC_8xdl_core5typesNtB4_8XdlValue7is_zero0B6_
FN:291,_RNCNvMNtCseIM1XrU3RyC_8xdl_core5typesNtB4_8XdlValue7is_zeros0_0B6_
FN:289,_RNCNvMNtCseIM1XrU3RyC_8xdl_core5typesNtB4_8XdlValue7is_zeros_0B6_
FN:265,_RNvMNtCseIM1XrU3RyC_8xdl_core5typesNtB2_8XdlValue10n_elements
FN:233,_RNvMNtCseIM1XrU3RyC_8xdl_core5typesNtB2_8XdlValue13from_multidim
FN:64,_RNvMNtCseIM1XrU3RyC_8xdl_core5typesNtB2_8XdlValue14to_string_repr
FN:247,_RNvMNtCseIM1XrU3RyC_8xdl_core5typesNtB2_8XdlValue5shape
FN:274,_RNvMNtCseIM1XrU3RyC_8xdl_core5typesNtB2_8XdlValue7is_zero
FN:256,_RNvMNtCseIM1XrU3RyC_8xdl_core5typesNtB2_8XdlValue8as_slice
FN:358,_RNvXs0_NtCseIM1XrU3RyC_8xdl_core5typesINtNtCs1AhsD0INetT_5alloc5boxed3BoxDNtB5_7GdlDataEL_ENtNtCs2CqrNpCrSUr_4core5clone5Clone5clone
FN:335,_RNCNvMs_NtCseIM1XrU3RyC_8xdl_core5typesNtB6_9StructDef10find_field0B8_
FN:319,_RNCNvMs_NtCseIM1XrU3RyC_8xdl_core5typesNtB6_9StructDef3new0B8_
FN:200,_RNvMNtCseIM1XrU3RyC_8xdl_core5typesNtB2_8XdlValue7to_long
FN:39,_RNvMNtCseIM1XrU3RyC_8xdl_core5typesNtB2_8XdlValue8gdl_type
FN:167,_RNvMNtCseIM1XrU3RyC_8xdl_core5typesNtB2_8XdlValue9to_double
FN:332,_RNvMs_NtCseIM1XrU3RyC_8xdl_core5typesNtB4_9StructDef10find_field
FN:316,_RNvMs_NtCseIM1XrU3RyC_8xdl_core5typesNtB4_9StructDef3new
FN:388,_RNvNtNtCseIM1XrU3RyC_8xdl_core5types5testss_15test_struct_def
FN:368,_RNvNtNtCseIM1XrU3RyC_8xdl_core5types5testss_20test_gdl_value_types
FN:381,_RNvNtNtCseIM1XrU3RyC_8xdl_core5types5testss_22test_value_conversions
FN:265,_RNvMNtCsgj69aNDdLpp_8xdl_core5typesNtB2_8XdlValue10n_elements
FN:233,_RNvMNtCsgj69aNDdLpp_8xdl_core5typesNtB2_8XdlValue13from_multidim
FN:64,_RNvMNtCsgj69aNDdLpp_8xdl_core5typesNtB2_8XdlValue14to_string_repr
FN:247,_RNvMNtCsgj69aNDdLpp_8xdl_core5typesNtB2_8XdlValue5shape
FN:274,_RNvMNtCsgj69aNDdLpp_8xdl_core5typesNtB2_8XdlValue7is_zero
FN:200,_RNvMNtCsgj69aNDdLpp_8xdl_core5typesNtB2_8XdlValue7to_long
FN:256,_RNvMNtCsgj69aNDdLpp_8xdl_core5typesNtB2_8XdlValue8as_slice
FN:39,_RNvMNtCsgj69aNDdLpp_8xdl_core5typesNtB2_8XdlValue8gdl_type
FN:167,_RNvMNtCsgj69aNDdLpp_8xdl_core5typesNtB2_8XdlValue9to_double
FN:332,_RNvMs_NtCsgj69aNDdLpp_8xdl_core5typesNtB4_9StructDef10find_field
FN:316,_RNvMs_NtCsgj69aNDdLpp_8xdl_core5typesNtB4_9StructDef3new
FN:136,_RNCNvMNtCsgj69aNDdLpp_8xdl_core5typesNtB4_8XdlValue14to_string_repr0B6_
FN:128,_RNCNvMNtCsgj69aNDdLpp_8xdl_core5typesNtB4_8XdlValue14to_string_reprs0_0B6_
FN:144,_RNCNvMNtCsgj69aNDdLpp_8xdl_core5typesNtB4_8XdlValue14to_string_reprs1_0B6_
FN:110,_RNCNvMNtCsgj69aNDdLpp_8xdl_core5typesNtB4_8XdlValue14to_string_reprs_0B6_
FN:288,_RNCNvMNtCsgj69aNDdLpp_8xdl_core5typesNtB4_8XdlValue7is_zero0B6_
FN:291,_RNCNvMNtCsgj69aNDdLpp_8xdl_core5typesNtB4_8XdlValue7is_zeros0_0B6_
FN:289,_RNCNvMNtCsgj69aNDdLpp_8xdl_core5typesNtB4_8XdlValue7is_zeros_0B6_
FN:335,_RNCNvMs_NtCsgj69aNDdLpp_8xdl_core5typesNtB6_9StructDef10find_field0B8_
FN:319,_RNCNvMs_NtCsgj69aNDdLpp_8xdl_core5typesNtB6_9StructDef3new0B8_
FNDA:0,_RNCNvMNtCseIM1XrU3RyC_8xdl_core5typesNtB4_8XdlValue14to_string_repr0B6_
FNDA:0,_RNCNvMNtCseIM1XrU3RyC_8xdl_core5typesNtB4_8XdlValue14to_string_reprs0_0B6_
FNDA:0,_RNCNvMNtCseIM1XrU3RyC_8xdl_core5typesNtB4_8XdlValue14to_string_reprs1_0B6_
FNDA:0,_RNCNvMNtCseIM1XrU3RyC_8xdl_core5typesNtB4_8XdlValue14to_string_reprs_0B6_
FNDA:0,_RNCNvMNtCseIM1XrU3RyC_8xdl_core5typesNtB4_8XdlValue7is_zero0B6_
FNDA:0,_RNCNvMNtCseIM1XrU3RyC_8xdl_core5typesNtB4_8XdlValue7is_zeros0_0B6_
FNDA:0,_RNCNvMNtCseIM1XrU3RyC_8xdl_core5typesNtB4_8XdlValue7is_zeros_0B6_
FNDA:0,_RNvMNtCseIM1XrU3RyC_8xdl_core5typesNtB2_8XdlValue10n_elements
FNDA:0,_RNvMNtCseIM1XrU3RyC_8xdl_core5typesNtB2_8XdlValue13from_multidim
FNDA:0,_RNvMNtCseIM1XrU3RyC_8xdl_core5typesNtB2_8XdlValue14to_string_repr
FNDA:0,_RNvMNtCseIM1XrU3RyC_8xdl_core5typesNtB2_8XdlValue5shape
FNDA:0,_RNvMNtCseIM1XrU3RyC_8xdl_core5typesNtB2_8XdlValue7is_zero
FNDA:0,_RNvMNtCseIM1XrU3RyC_8xdl_core5typesNtB2_8XdlValue8as_slice
FNDA:0,_RNvXs0_NtCseIM1XrU3RyC_8xdl_core5typesINtNtCs1AhsD0INetT_5alloc5boxed3BoxDNtB5_7GdlDataEL_ENtNtCs2CqrNpCrSUr_4core5clone5Clone5clone
FNDA:3,_RNCNvMs_NtCseIM1XrU3RyC_8xdl_core5typesNtB6_9StructDef10find_field0B8_
FNDA:2,_RNCNvMs_NtCseIM1XrU3RyC_8xdl_core5typesNtB6_9StructDef3new0B8_
FNDA:1,_RNvMNtCseIM1XrU3RyC_8xdl_core5typesNtB2_8XdlValue7to_long
FNDA:3,_RNvMNtCseIM1XrU3RyC_8xdl_core5typesNtB2_8XdlValue8gdl_type
FNDA:1,_RNvMNtCseIM1XrU3RyC_8xdl_core5typesNtB2_8XdlValue9to_double
FNDA:2,_RNvMs_NtCseIM1XrU3RyC_8xdl_core5typesNtB4_9StructDef10find_field
FNDA:1,_RNvMs_NtCseIM1XrU3RyC_8xdl_core5typesNtB4_9StructDef3new
FNDA:1,_RNvNtNtCseIM1XrU3RyC_8xdl_core5types5testss_15test_struct_def
FNDA:1,_RNvNtNtCseIM1XrU3RyC_8xdl_core5types5testss_20test_gdl_value_types
FNDA:1,_RNvNtNtCseIM1XrU3RyC_8xdl_core5types5testss_22test_value_conversions
FNDA:0,_RNvMNtCsgj69aNDdLpp_8xdl_core5typesNtB2_8XdlValue10n_elements
FNDA:0,_RNvMNtCsgj69aNDdLpp_8xdl_core5typesNtB2_8XdlValue13from_multidim
FNDA:5,_RNvMNtCsgj69aNDdLpp_8xdl_core5typesNtB2_8XdlValue14to_string_repr
FNDA:0,_RNvMNtCsgj69aNDdLpp_8xdl_core5typesNtB2_8XdlValue5shape
FNDA:0,_RNvMNtCsgj69aNDdLpp_8xdl_core5typesNtB2_8XdlValue7is_zero
FNDA:0,_RNvMNtCsgj69aNDdLpp_8xdl_core5typesNtB2_8XdlValue7to_long
FNDA:0,_RNvMNtCsgj69aNDdLpp_8xdl_core5typesNtB2_8XdlValue8as_slice
FNDA:13,_RNvMNtCsgj69aNDdLpp_8xdl_core5typesNtB2_8XdlValue8gdl_type
FNDA:0,_RNvMNtCsgj69aNDdLpp_8xdl_core5typesNtB2_8XdlValue9to_double
FNDA:0,_RNvMs_NtCsgj69aNDdLpp_8xdl_core5typesNtB4_9StructDef10find_field
FNDA:0,_RNvMs_NtCsgj69aNDdLpp_8xdl_core5typesNtB4_9StructDef3new
FNDA:0,_RNCNvMNtCsgj69aNDdLpp_8xdl_core5typesNtB4_8XdlValue14to_string_repr0B6_
FNDA:0,_RNCNvMNtCsgj69aNDdLpp_8xdl_core5typesNtB4_8XdlValue14to_string_reprs0_0B6_
FNDA:0,_RNCNvMNtCsgj69aNDdLpp_8xdl_core5typesNtB4_8XdlValue14to_string_reprs1_0B6_
FNDA:0,_RNCNvMNtCsgj69aNDdLpp_8xdl_core5typesNtB4_8XdlValue14to_string_reprs_0B6_
FNDA:0,_RNCNvMNtCsgj69aNDdLpp_8xdl_core5typesNtB4_8XdlValue7is_zero0B6_
FNDA:0,_RNCNvMNtCsgj69aNDdLpp_8xdl_core5typesNtB4_8XdlValue7is_zeros0_0B6_
FNDA:0,_RNCNvMNtCsgj69aNDdLpp_8xdl_core5typesNtB4_8XdlValue7is_zeros_0B6_
FNDA:0,_RNCNvMs_NtCsgj69aNDdLpp_8xdl_core5typesNtB6_9StructDef10find_field0B8_
FNDA:0,_RNCNvMs_NtCsgj69aNDdLpp_8xdl_core5typesNtB6_9StructDef3new0B8_
FNF:24
FNH:11
DA:39,16
DA:40,16
DA:41,0
DA:42,1
DA:43,0
DA:44,2
DA:45,2
DA:46,10
DA:47,0
DA:48,0
DA:49,1
DA:50,0
DA:51,0
DA:52,0
DA:53,0
DA:54,0
DA:55,0
DA:56,0
DA:57,0
DA:58,0
DA:59,0
DA:61,16
DA:64,5
DA:65,5
DA:66,0
DA:67,0
DA:68,0
DA:69,2
DA:70,0
DA:71,0
DA:72,0
DA:73,0
DA:74,0
DA:75,0
DA:77,0
DA:80,0
DA:83,1
DA:84,1
DA:85,1
DA:86,0
DA:87,0
DA:88,0
DA:90,0
DA:93,0
DA:96,0
DA:97,0
DA:98,2
DA:99,0
DA:100,0
DA:101,0
DA:102,0
DA:103,0
DA:104,0
DA:105,0
DA:106,0
DA:107,0
DA:108,0
DA:109,0
DA:110,0
DA:111,0
DA:112,0
DA:115,0
DA:116,0
DA:117,0
DA:118,0
DA:119,0
DA:120,0
DA:124,0
DA:125,0
DA:126,0
DA:127,0
DA:128,0
DA:129,0
DA:130,0
DA:133,0
DA:134,0
DA:135,0
DA:136,0
DA:137,0
DA:138,0
DA:139,0
DA:140,0
DA:141,0
DA:143,0
DA:144,0
DA:145,0
DA:146,0
DA:149,0
DA:150,0
DA:152,0
DA:153,0
DA:154,0
DA:155,0
DA:159,0
DA:161,0
DA:164,5
DA:167,1
DA:168,1
DA:169,0
DA:170,1
DA:171,0
DA:172,0
DA:173,0
DA:174,0
DA:175,0
DA:176,0
DA:177,0
DA:178,0
DA:179,0
DA:180,0
DA:182,0
DA:185,0
DA:186,0
DA:187,0
DA:189,0
DA:192,0
DA:193,0
DA:194,0
DA:195,0
DA:197,1
DA:200,1
DA:201,1
DA:202,0
DA:203,1
DA:204,0
DA:205,0
DA:206,0
DA:207,0
DA:208,0
DA:209,0
DA:210,0
DA:211,0
DA:212,0
DA:213,0
DA:215,0
DA:218,0
DA:219,0
DA:220,0
DA:222,0
DA:225,0
DA:226,0
DA:227,0
DA:228,0
DA:230,1
DA:233,0
DA:234,0
DA:235,0
DA:236,0
DA:237,0
DA:238,0
DA:239,0
DA:240,0
DA:241,0
DA:242,0
DA:243,0
DA:244,0
DA:247,0
DA:248,0
DA:249,0
DA:250,0
DA:251,0
DA:253,0
DA:256,0
DA:257,0
DA:258,0
DA:259,0
DA:260,0
DA:262,0
DA:265,0
DA:266,0
DA:267,0
DA:268,0
DA:269,0
DA:271,0
DA:274,0
DA:275,0
DA:276,0
DA:277,0
DA:278,0
DA:279,0
DA:280,0
DA:281,0
DA:282,0
DA:283,0
DA:284,0
DA:285,0
DA:286,0
DA:287,0
DA:288,0
DA:289,0
DA:290,0
DA:291,0
DA:293,0
DA:294,0
DA:296,0
DA:316,1
DA:317,1
DA:318,1
DA:319,2
DA:320,2
DA:321,2
DA:322,0
DA:324,2
DA:326,2
DA:327,1
DA:329,1
DA:330,1
DA:332,2
DA:333,2
DA:334,2
DA:335,3
DA:336,2
DA:358,0
DA:359,0
DA:360,0
DA:368,1
DA:369,1
DA:370,1
DA:371,1
DA:374,1
DA:375,1
DA:378,1
DA:381,1
DA:382,1
DA:383,1
DA:384,1
DA:385,1
DA:388,1
DA:389,1
DA:390,1
DA:391,1
DA:392,1
DA:393,1
DA:394,1
DA:395,1
DA:396,1
DA:397,1
DA:398,1
DA:399,1
DA:402,1
DA:403,1
DA:404,1
DA:405,1
DA:406,1
BRF:0
BRH:0
LF:253
LH:69
end_of_record
SF:/Users/ravindraboddipalli/sources/xdl/xdl-ffi/src/gsl.rs
FN:6,_RNvMNtCs2zuxy40ZI89_7xdl_ffi3gslNtB2_12GslInterface3new
FN:12,_RNvXs_NtCs2zuxy40ZI89_7xdl_ffi3gslNtB4_12GslInterfaceNtNtCs2CqrNpCrSUr_4core7default7Default7default
FNDA:0,_RNvMNtCs2zuxy40ZI89_7xdl_ffi3gslNtB2_12GslInterface3new
FNDA:0,_RNvXs_NtCs2zuxy40ZI89_7xdl_ffi3gslNtB4_12GslInterfaceNtNtCs2CqrNpCrSUr_4core7default7Default7default
FNF:2
FNH:0
DA:6,0
DA:7,0
DA:8,0
DA:12,0
DA:13,0
DA:14,0
BRF:0
BRH:0
LF:6
LH:0
end_of_record
SF:/Users/ravindraboddipalli/sources/xdl/xdl-ffi/src/hdf5.rs
FN:6,_RNvMNtCs2zuxy40ZI89_7xdl_ffi4hdf5NtB2_13Hdf5Interface3new
FN:12,_RNvXs_NtCs2zuxy40ZI89_7xdl_ffi4hdf5NtB4_13Hdf5InterfaceNtNtCs2CqrNpCrSUr_4core7default7Default7default
FNDA:0,_RNvMNtCs2zuxy40ZI89_7xdl_ffi4hdf5NtB2_13Hdf5Interface3new
FNDA:0,_RNvXs_NtCs2zuxy40ZI89_7xdl_ffi4hdf5NtB4_13Hdf5InterfaceNtNtCs2CqrNpCrSUr_4core7default7Default7default
FNF:2
FNH:0
DA:6,0
DA:7,0
DA:8,0
DA:12,0
DA:13,0
DA:14,0
BRF:0
BRH:0
LF:6
LH:0
end_of_record
SF:/Users/ravindraboddipalli/sources/xdl/xdl-ffi/src/lib.rs
FN:14,_RNvMCs2zuxy40ZI89_7xdl_ffiNtB2_10FfiManager3new
FN:22,_RNvXs_Cs2zuxy40ZI89_7xdl_ffiNtB4_10FfiManagerNtNtCs2CqrNpCrSUr_4core7default7Default7default
FNDA:0,_RNvMCs2zuxy40ZI89_7xdl_ffiNtB2_10FfiManager3new
FNDA:0,_RNvXs_Cs2zuxy40ZI89_7xdl_ffiNtB4_10FfiManagerNtNtCs2CqrNpCrSUr_4core7default7Default7default
FNF:2
FNH:0
DA:14,0
DA:15,0
DA:16,0
DA:17,0
DA:18,0
DA:22,0
DA:23,0
DA:24,0
BRF:0
BRH:0
LF:8
LH:0
end_of_record
SF:/Users/ravindraboddipalli/sources/xdl/xdl-ffi/src/netcdf.rs
FN:6,_RNvMNtCs2zuxy40ZI89_7xdl_ffi6netcdfNtB2_15NetCdfInterface3new
FN:12,_RNvXs_NtCs2zuxy40ZI89_7xdl_ffi6netcdfNtB4_15NetCdfInterfaceNtNtCs2CqrNpCrSUr_4core7default7Default7default
FNDA:0,_RNvMNtCs2zuxy40ZI89_7xdl_ffi6netcdfNtB2_15NetCdfInterface3new
FNDA:0,_RNvXs_NtCs2zuxy40ZI89_7xdl_ffi6netcdfNtB4_15NetCdfInterfaceNtNtCs2CqrNpCrSUr_4core7default7Default7default
FNF:2
FNH:0
DA:6,0
DA:7,0
DA:8,0
DA:12,0
DA:13,0
DA:14,0
BRF:0
BRH:0
LF:6
LH:0
end_of_record
SF:/Users/ravindraboddipalli/sources/xdl/xdl-gui/src/gui.rs
FN:294,_RNCNCNvMs_NtCs7EjM2xNHxH9_7xdl_gui3guiNtB8_6XdlGui3news_00Ba_
FN:839,_RNCNCNvMs_NtCs7EjM2xNHxH9_7xdl_gui3guiNtB8_6XdlGui3newsx_00Ba_
FN:152,_RNCNvMNtCs7EjM2xNHxH9_7xdl_gui3guiNtB4_13VariableTable11update_data0B6_
FN:69,_RNCNvMNtCs7EjM2xNHxH9_7xdl_gui3guiNtB4_13VariableTable3new0B6_
FN:1013,_RNCNvMs_NtCs7EjM2xNHxH9_7xdl_gui3guiNtB6_6XdlGui13get_file_type0B8_
FN:1027,_RNCNvMs_NtCs7EjM2xNHxH9_7xdl_gui3guiNtB6_6XdlGui17looks_like_matlab0B8_
FN:1075,_RNCNvMs_NtCs7EjM2xNHxH9_7xdl_gui3guiNtB6_6XdlGui17looks_like_matlabs0_0B8_
FN:1040,_RNCNvMs_NtCs7EjM2xNHxH9_7xdl_gui3guiNtB6_6XdlGui17looks_like_matlabs_0B8_
FN:1585,_RNCNvMs_NtCs7EjM2xNHxH9_7xdl_gui3guiNtB6_6XdlGui19create_indexed_data0B8_
FN:1505,_RNCNvMs_NtCs7EjM2xNHxH9_7xdl_gui3guiNtB6_6XdlGui20parse_plot_arguments0B8_
FN:1506,_RNCNvMs_NtCs7EjM2xNHxH9_7xdl_gui3guiNtB6_6XdlGui20parse_plot_argumentss_0B8_
FN:1186,_RNCNvMs_NtCs7EjM2xNHxH9_7xdl_gui3guiNtB6_6XdlGui20show_execution_trace0B8_
FN:1349,_RNCNvMs_NtCs7EjM2xNHxH9_7xdl_gui3guiNtB6_6XdlGui22simulate_xdl_execution0B8_
FN:1523,_RNCNvMs_NtCs7EjM2xNHxH9_7xdl_gui3guiNtB6_6XdlGui26generate_data_for_variable0B8_
FN:1537,_RNCNvMs_NtCs7EjM2xNHxH9_7xdl_gui3guiNtB6_6XdlGui26generate_data_for_variables0_0B8_
FN:1538,_RNCNvMs_NtCs7EjM2xNHxH9_7xdl_gui3guiNtB6_6XdlGui26generate_data_for_variables1_0B8_
FN:1542,_RNCNvMs_NtCs7EjM2xNHxH9_7xdl_gui3guiNtB6_6XdlGui26generate_data_for_variables2_0B8_
FN:1544,_RNCNvMs_NtCs7EjM2xNHxH9_7xdl_gui3guiNtB6_6XdlGui26generate_data_for_variables3_0B8_
FN:1549,_RNCNvMs_NtCs7EjM2xNHxH9_7xdl_gui3guiNtB6_6XdlGui26generate_data_for_variables4_0B8_
FN:1558,_RNCNvMs_NtCs7EjM2xNHxH9_7xdl_gui3guiNtB6_6XdlGui26generate_data_for_variables5_0B8_
FN:1562,_RNCNvMs_NtCs7EjM2xNHxH9_7xdl_gui3guiNtB6_6XdlGui26generate_data_for_variables6_0B8_
FN:1566,_RNCNvMs_NtCs7EjM2xNHxH9_7xdl_gui3guiNtB6_6XdlGui26generate_data_for_variables7_0B8_
FN:1567,_RNCNvMs_NtCs7EjM2xNHxH9_7xdl_gui3guiNtB6_6XdlGui26generate_data_for_variables8_0B8_
FN:1571,_RNCNvMs_NtCs7EjM2xNHxH9_7xdl_gui3guiNtB6_6XdlGui26generate_data_for_variables9_0B8_
FN:1527,_RNCNvMs_NtCs7EjM2xNHxH9_7xdl_gui3guiNtB6_6XdlGui26generate_data_for_variables_0B8_
FN:1576,_RNCNvMs_NtCs7EjM2xNHxH9_7xdl_gui3guiNtB6_6XdlGui26generate_data_for_variablesa_0B8_
FN:1577,_RNCNvMs_NtCs7EjM2xNHxH9_7xdl_gui3guiNtB6_6XdlGui26generate_data_for_variablesb_0B8_
FN:1250,_RNCNvMs_NtCs7EjM2xNHxH9_7xdl_gui3guiNtB6_6XdlGui27execute_fallback_simulation0B8_
FN:1480,_RNCNvMs_NtCs7EjM2xNHxH9_7xdl_gui3guiNtB6_6XdlGui30extract_plot_data_with_formula0B8_
FN:1481,_RNCNvMs_NtCs7EjM2xNHxH9_7xdl_gui3guiNtB6_6XdlGui30extract_plot_data_with_formulas_0B8_
FN:263,_RNCNvMs_NtCs7EjM2xNHxH9_7xdl_gui3guiNtB6_6XdlGui3new0B8_
FN:337,_RNCNvMs_NtCs7EjM2xNHxH9_7xdl_gui3guiNtB6_6XdlGui3news0_0B8_
FN:364,_RNCNvMs_NtCs7EjM2xNHxH9_7xdl_gui3guiNtB6_6XdlGui3news1_0B8_
FN:387,_RNCNvMs_NtCs7EjM2xNHxH9_7xdl_gui3guiNtB6_6XdlGui3news2_0B8_
FN:395,_RNCNvMs_NtCs7EjM2xNHxH9_7xdl_gui3guiNtB6_6XdlGui3news3_0B8_
FN:404,_RNCNvMs_NtCs7EjM2xNHxH9_7xdl_gui3guiNtB6_6XdlGui3news4_0B8_
FN:411,_RNCNvMs_NtCs7EjM2xNHxH9_7xdl_gui3guiNtB6_6XdlGui3news5_0B8_
FN:421,_RNCNvMs_NtCs7EjM2xNHxH9_7xdl_gui3guiNtB6_6XdlGui3news6_0B8_
FN:431,_RNCNvMs_NtCs7EjM2xNHxH9_7xdl_gui3guiNtB6_6XdlGui3news7_0B8_
FN:441,_RNCNvMs_NtCs7EjM2xNHxH9_7xdl_gui3guiNtB6_6XdlGui3news8_0B8_
FN:448,_RNCNvMs_NtCs7EjM2xNHxH9_7xdl_gui3guiNtB6_6XdlGui3news9_0B8_
FN:917,_RNCNvMs_NtCs7EjM2xNHxH9_7xdl_gui3guiNtB6_6XdlGui3newsA_0B8_
FN:278,_RNCNvMs_NtCs7EjM2xNHxH9_7xdl_gui3guiNtB6_6XdlGui3news_0B8_
FN:458,_RNCNvMs_NtCs7EjM2xNHxH9_7xdl_gui3guiNtB6_6XdlGui3newsa_0B8_
FN:468,_RNCNvMs_NtCs7EjM2xNHxH9_7xdl_gui3guiNtB6_6XdlGui3newsb_0B8_
FN:478,_RNCNvMs_NtCs7EjM2xNHxH9_7xdl_gui3guiNtB6_6XdlGui3newsc_0B8_
FN:485,_RNCNvMs_NtCs7EjM2xNHxH9_7xdl_gui3guiNtB6_6XdlGui3newsd_0B8_
FN:495,_RNCNvMs_NtCs7EjM2xNHxH9_7xdl_gui3guiNtB6_6XdlGui3newse_0B8_
FN:505,_RNCNvMs_NtCs7EjM2xNHxH9_7xdl_gui3guiNtB6_6XdlGui3newsf_0B8_
FN:517,_RNCNvMs_NtCs7EjM2xNHxH9_7xdl_gui3guiNtB6_6XdlGui3newsg_0B8_
FN:527,_RNCNvMs_NtCs7EjM2xNHxH9_7xdl_gui3guiNtB6_6XdlGui3newsh_0B8_
FN:538,_RNCNvMs_NtCs7EjM2xNHxH9_7xdl_gui3guiNtB6_6XdlGui3newsi_0B8_
FN:550,_RNCNvMs_NtCs7EjM2xNHxH9_7xdl_gui3guiNtB6_6XdlGui3newsj_0B8_
FN:560,_RNCNvMs_NtCs7EjM2xNHxH9_7xdl_gui3guiNtB6_6XdlGui3newsk_0B8_
FN:568,_RNCNvMs_NtCs7EjM2xNHxH9_7xdl_gui3guiNtB6_6XdlGui3newsl_0B8_
FN:579,_RNCNvMs_NtCs7EjM2xNHxH9_7xdl_gui3guiNtB6_6XdlGui3newsm_0B8_
FN:589,_RNCNvMs_NtCs7EjM2xNHxH9_7xdl_gui3guiNtB6_6XdlGui3newsn_0B8_
FN:599,_RNCNvMs_NtCs7EjM2xNHxH9_7xdl_gui3guiNtB6_6XdlGui3newso_0B8_
FN:606,_RNCNvMs_NtCs7EjM2xNHxH9_7xdl_gui3guiNtB6_6XdlGui3newsp_0B8_
FN:617,_RNCNvMs_NtCs7EjM2xNHxH9_7xdl_gui3guiNtB6_6XdlGui3newsq_0B8_
FN:627,_RNCNvMs_NtCs7EjM2xNHxH9_7xdl_gui3guiNtB6_6XdlGui3newsr_0B8_
FN:638,_RNCNvMs_NtCs7EjM2xNHxH9_7xdl_gui3guiNtB6_6XdlGui3newss_0B8_
FN:664,_RNCNvMs_NtCs7EjM2xNHxH9_7xdl_gui3guiNtB6_6XdlGui3newst_0B8_
FN:693,_RNCNvMs_NtCs7EjM2xNHxH9_7xdl_gui3guiNtB6_6XdlGui3newsu_0B8_
FN:700,_RNCNvMs_NtCs7EjM2xNHxH9_7xdl_gui3guiNtB6_6XdlGui3newsv_0B8_
FN:790,_RNCNvMs_NtCs7EjM2xNHxH9_7xdl_gui3guiNtB6_6XdlGui3newsw_0B8_
FN:809,_RNCNvMs_NtCs7EjM2xNHxH9_7xdl_gui3guiNtB6_6XdlGui3newsx_0B8_
FN:894,_RNCNvMs_NtCs7EjM2xNHxH9_7xdl_gui3guiNtB6_6XdlGui3newsy_0B8_
FN:901,_RNCNvMs_NtCs7EjM2xNHxH9_7xdl_gui3guiNtB6_6XdlGui3newsz_0B8_
FN:147,_RNvMNtCs7EjM2xNHxH9_7xdl_gui3guiNtB2_13VariableTable11update_data
FN:48,_RNvMNtCs7EjM2xNHxH9_7xdl_gui3guiNtB2_13VariableTable3new
FN:1010,_RNvMs_NtCs7EjM2xNHxH9_7xdl_gui3guiNtB4_6XdlGui13get_file_type
FN:1432,_RNvMs_NtCs7EjM2xNHxH9_7xdl_gui3guiNtB4_6XdlGui15truncate_string
FN:1078,_RNvMs_NtCs7EjM2xNHxH9_7xdl_gui3guiNtB4_6XdlGui16execute_xdl_code
FN:1024,_RNvMs_NtCs7EjM2xNHxH9_7xdl_gui3guiNtB4_6XdlGui17looks_like_matlab
FN:1584,_RNvMs_NtCs7EjM2xNHxH9_7xdl_gui3guiNtB4_6XdlGui19create_indexed_data
FN:1488,_RNvMs_NtCs7EjM2xNHxH9_7xdl_gui3guiNtB4_6XdlGui20parse_plot_arguments
FN:1178,_RNvMs_NtCs7EjM2xNHxH9_7xdl_gui3guiNtB4_6XdlGui20show_execution_trace
FN:940,_RNvMs_NtCs7EjM2xNHxH9_7xdl_gui3guiNtB4_6XdlGui21handle_file_selection
FN:1422,_RNvMs_NtCs7EjM2xNHxH9_7xdl_gui3guiNtB4_6XdlGui21update_variable_table
FN:1279,_RNvMs_NtCs7EjM2xNHxH9_7xdl_gui3guiNtB4_6XdlGui22simulate_xdl_execution
FN:1511,_RNvMs_NtCs7EjM2xNHxH9_7xdl_gui3guiNtB4_6XdlGui26generate_data_for_variable
FN:1242,_RNvMs_NtCs7EjM2xNHxH9_7xdl_gui3guiNtB4_6XdlGui27execute_fallback_simulation
FN:1441,_RNvMs_NtCs7EjM2xNHxH9_7xdl_gui3guiNtB4_6XdlGui28extract_number_from_function
FN:1590,_RNvMs_NtCs7EjM2xNHxH9_7xdl_gui3guiNtB4_6XdlGui29generate_formula_for_variable
FN:1453,_RNvMs_NtCs7EjM2xNHxH9_7xdl_gui3guiNtB4_6XdlGui30extract_plot_data_with_formula
FN:1385,_RNvMs_NtCs7EjM2xNHxH9_7xdl_gui3guiNtB4_6XdlGui32simulate_xdl_execution_with_vars
FN:1000,_RNvMs_NtCs7EjM2xNHxH9_7xdl_gui3guiNtB4_6XdlGui34extract_filename_from_browser_text
FN:232,_RNvMs_NtCs7EjM2xNHxH9_7xdl_gui3guiNtB4_6XdlGui3new
FN:1634,_RNvMs_NtCs7EjM2xNHxH9_7xdl_gui3guiNtB4_6XdlGui4show
FN:28,_RNCNvNtCs7EjM2xNHxH9_7xdl_gui3gui20PENDING_PLOT_WINDOWS0B5_
FNDA:0,_RNCNCNvMs_NtCs7EjM2xNHxH9_7xdl_gui3guiNtB8_6XdlGui3news_00Ba_
FNDA:0,_RNCNCNvMs_NtCs7EjM2xNHxH9_7xdl_gui3guiNtB8_6XdlGui3newsx_00Ba_
FNDA:0,_RNCNvMNtCs7EjM2xNHxH9_7xdl_gui3guiNtB4_13VariableTable11update_data0B6_
FNDA:0,_RNCNvMNtCs7EjM2xNHxH9_7xdl_gui3guiNtB4_13VariableTable3new0B6_
FNDA:0,_RNCNvMs_NtCs7EjM2xNHxH9_7xdl_gui3guiNtB6_6XdlGui13get_file_type0B8_
FNDA:0,_RNCNvMs_NtCs7EjM2xNHxH9_7xdl_gui3guiNtB6_6XdlGui17looks_like_matlab0B8_
FNDA:0,_RNCNvMs_NtCs7EjM2xNHxH9_7xdl_gui3guiNtB6_6XdlGui17looks_like_matlabs0_0B8_
FNDA:0,_RNCNvMs_NtCs7EjM2xNHxH9_7xdl_gui3guiNtB6_6XdlGui17looks_like_matlabs_0B8_
FNDA:0,_RNCNvMs_NtCs7EjM2xNHxH9_7xdl_gui3guiNtB6_6XdlGui19create_indexed_data0B8_
FNDA:0,_RNCNvMs_NtCs7EjM2xNHxH9_7xdl_gui3guiNtB6_6XdlGui20parse_plot_arguments0B8_
FNDA:0,_RNCNvMs_NtCs7EjM2xNHxH9_7xdl_gui3guiNtB6_6XdlGui20parse_plot_argumentss_0B8_
FNDA:0,_RNCNvMs_NtCs7EjM2xNHxH9_7xdl_gui3guiNtB6_6XdlGui20show_execution_trace0B8_
FNDA:0,_RNCNvMs_NtCs7EjM2xNHxH9_7xdl_gui3guiNtB6_6XdlGui22simulate_xdl_execution0B8_
FNDA:0,_RNCNvMs_NtCs7EjM2xNHxH9_7xdl_gui3guiNtB6_6XdlGui26generate_data_for_variable0B8_
FNDA:0,_RNCNvMs_NtCs7EjM2xNHxH9_7xdl_gui3guiNtB6_6XdlGui26generate_data_for_variables0_0B8_
FNDA:0,_RNCNvMs_NtCs7EjM2xNHxH9_7xdl_gui3guiNtB6_6XdlGui26generate_data_for_variables1_0B8_
FNDA:0,_RNCNvMs_NtCs7EjM2xNHxH9_7xdl_gui3guiNtB6_6XdlGui26generate_data_for_variables2_0B8_
FNDA:0,_RNCNvMs_NtCs7EjM2xNHxH9_7xdl_gui3guiNtB6_6XdlGui26generate_data_for_variables3_0B8_
FNDA:0,_RNCNvMs_NtCs7EjM2xNHxH9_7xdl_gui3guiNtB6_6XdlGui26generate_data_for_variables4_0B8_
FNDA:0,_RNCNvMs_NtCs7EjM2xNHxH9_7xdl_gui3guiNtB6_6XdlGui26generate_data_for_variables5_0B8_
FNDA:0,_RNCNvMs_NtCs7EjM2xNHxH9_7xdl_gui3guiNtB6_6XdlGui26generate_data_for_variables6_0B8_
FNDA:0,_RNCNvMs_NtCs7EjM2xNHxH9_7xdl_gui3guiNtB6_6XdlGui26generate_data_for_variables7_0B8_
FNDA:0,_RNCNvMs_NtCs7EjM2xNHxH9_7xdl_gui3guiNtB6_6XdlGui26generate_data_for_variables8_0B8_
FNDA:0,_RNCNvMs_NtCs7EjM2xNHxH9_7xdl_gui3guiNtB6_6XdlGui26generate_data_for_variables9_0B8_
FNDA:0,_RNCNvMs_NtCs7EjM2xNHxH9_7xdl_gui3guiNtB6_6XdlGui26generate_data_for_variables_0B8_
FNDA:0,_RNCNvMs_NtCs7EjM2xNHxH9_7xdl_gui3guiNtB6_6XdlGui26generate_data_for_variablesa_0B8_
FNDA:0,_RNCNvMs_NtCs7EjM2xNHxH9_7xdl_gui3guiNtB6_6XdlGui26generate_data_for_variablesb_0B8_
FNDA:0,_RNCNvMs_NtCs7EjM2xNHxH9_7xdl_gui3guiNtB6_6XdlGui27execute_fallback_simulation0B8_
FNDA:0,_RNCNvMs_NtCs7EjM2xNHxH9_7xdl_gui3guiNtB6_6XdlGui30extract_plot_data_with_formula0B8_
FNDA:0,_RNCNvMs_NtCs7EjM2xNHxH9_7xdl_gui3guiNtB6_6XdlGui30extract_plot_data_with_formulas_0B8_
FNDA:0,_RNCNvMs_NtCs7EjM2xNHxH9_7xdl_gui3guiNtB6_6XdlGui3new0B8_
FNDA:0,_RNCNvMs_NtCs7EjM2xNHxH9_7xdl_gui3guiNtB6_6XdlGui3news0_0B8_
FNDA:0,_RNCNvMs_NtCs7EjM2xNHxH9_7xdl_gui3guiNtB6_6XdlGui3news1_0B8_
FNDA:0,_RNCNvMs_NtCs7EjM2xNHxH9_7xdl_gui3guiNtB6_6XdlGui3news2_0B8_
FNDA:0,_RNCNvMs_NtCs7EjM2xNHxH9_7xdl_gui3guiNtB6_6XdlGui3news3_0B8_
FNDA:0,_RNCNvMs_NtCs7EjM2xNHxH9_7xdl_gui3guiNtB6_6XdlGui3news4_0B8_
FNDA:0,_RNCNvMs_NtCs7EjM2xNHxH9_7xdl_gui3guiNtB6_6XdlGui3news5_0B8_
FNDA:0,_RNCNvMs_NtCs7EjM2xNHxH9_7xdl_gui3guiNtB6_6XdlGui3news6_0B8_
FNDA:0,_RNCNvMs_NtCs7EjM2xNHxH9_7xdl_gui3guiNtB6_6XdlGui3news7_0B8_
FNDA:0,_RNCNvMs_NtCs7EjM2xNHxH9_7xdl_gui3guiNtB6_6XdlGui3news8_0B8_
FNDA:0,_RNCNvMs_NtCs7EjM2xNHxH9_7xdl_gui3guiNtB6_6XdlGui3news9_0B8_
FNDA:0,_RNCNvMs_NtCs7EjM2xNHxH9_7xdl_gui3guiNtB6_6XdlGui3newsA_0B8_
FNDA:0,_RNCNvMs_NtCs7EjM2xNHxH9_7xdl_gui3guiNtB6_6XdlGui3news_0B8_
FNDA:0,_RNCNvMs_NtCs7EjM2xNHxH9_7xdl_gui3guiNtB6_6XdlGui3newsa_0B8_
FNDA:0,_RNCNvMs_NtCs7EjM2xNHxH9_7xdl_gui3guiNtB6_6XdlGui3newsb_0B8_
FNDA:0,_RNCNvMs_NtCs7EjM2xNHxH9_7xdl_gui3guiNtB6_6XdlGui3newsc_0B8_
FNDA:0,_RNCNvMs_NtCs7EjM2xNHxH9_7xdl_gui3guiNtB6_6XdlGui3newsd_0B8_
FNDA:0,_RNCNvMs_NtCs7EjM2xNHxH9_7xdl_gui3guiNtB6_6XdlGui3newse_0B8_
FNDA:0,_RNCNvMs_NtCs7EjM2xNHxH9_7xdl_gui3guiNtB6_6XdlGui3newsf_0B8_
FNDA:0,_RNCNvMs_NtCs7EjM2xNHxH9_7xdl_gui3guiNtB6_6XdlGui3newsg_0B8_
FNDA:0,_RNCNvMs_NtCs7EjM2xNHxH9_7xdl_gui3guiNtB6_6XdlGui3newsh_0B8_
FNDA:0,_RNCNvMs_NtCs7EjM2xNHxH9_7xdl_gui3guiNtB6_6XdlGui3newsi_0B8_
FNDA:0,_RNCNvMs_NtCs7EjM2xNHxH9_7xdl_gui3guiNtB6_6XdlGui3newsj_0B8_
FNDA:0,_RNCNvMs_NtCs7EjM2xNHxH9_7xdl_gui3guiNtB6_6XdlGui3newsk_0B8_
FNDA:0,_RNCNvMs_NtCs7EjM2xNHxH9_7xdl_gui3guiNtB6_6XdlGui3newsl_0B8_
FNDA:0,_RNCNvMs_NtCs7EjM2xNHxH9_7xdl_gui3guiNtB6_6XdlGui3newsm_0B8_
FNDA:0,_RNCNvMs_NtCs7EjM2xNHxH9_7xdl_gui3guiNtB6_6XdlGui3newsn_0B8_
FNDA:0,_RNCNvMs_NtCs7EjM2xNHxH9_7xdl_gui3guiNtB6_6XdlGui3newso_0B8_
FNDA:0,_RNCNvMs_NtCs7EjM2xNHxH9_7xdl_gui3guiNtB6_6XdlGui3newsp_0B8_
FNDA:0,_RNCNvMs_NtCs7EjM2xNHxH9_7xdl_gui3guiNtB6_6XdlGui3newsq_0B8_
FNDA:0,_RNCNvMs_NtCs7EjM2xNHxH9_7xdl_gui3guiNtB6_6XdlGui3newsr_0B8_
FNDA:0,_RNCNvMs_NtCs7EjM2xNHxH9_7xdl_gui3guiNtB6_6XdlGui3newss_0B8_
FNDA:0,_RNCNvMs_NtCs7EjM2xNHxH9_7xdl_gui3guiNtB6_6XdlGui3newst_0B8_
FNDA:0,_RNCNvMs_NtCs7EjM2xNHxH9_7xdl_gui3guiNtB6_6XdlGui3newsu_0B8_
FNDA:0,_RNCNvMs_NtCs7EjM2xNHxH9_7xdl_gui3guiNtB6_6XdlGui3newsv_0B8_
FNDA:0,_RNCNvMs_NtCs7EjM2xNHxH9_7xdl_gui3guiNtB6_6XdlGui3newsw_0B8_
FNDA:0,_RNCNvMs_NtCs7EjM2xNHxH9_7xdl_gui3guiNtB6_6XdlGui3newsx_0B8_
FNDA:0,_RNCNvMs_NtCs7EjM2xNHxH9_7xdl_gui3guiNtB6_6XdlGui3newsy_0B8_
FNDA:0,_RNCNvMs_NtCs7EjM2xNHxH9_7xdl_gui3guiNtB6_6XdlGui3newsz_0B8_
FNDA:0,_RNvMNtCs7EjM2xNHxH9_7xdl_gui3guiNtB2_13VariableTable11update_data
FNDA:0,_RNvMNtCs7EjM2xNHxH9_7xdl_gui3guiNtB2_13VariableTable3new
FNDA:0,_RNvMs_NtCs7EjM2xNHxH9_7xdl_gui3guiNtB4_6XdlGui13get_file_type
FNDA:0,_RNvMs_NtCs7EjM2xNHxH9_7xdl_gui3guiNtB4_6XdlGui15truncate_string
FNDA:0,_RNvMs_NtCs7EjM2xNHxH9_7xdl_gui3guiNtB4_6XdlGui16execute_xdl_code
FNDA:0,_RNvMs_NtCs7EjM2xNHxH9_7xdl_gui3guiNtB4_6XdlGui17looks_like_matlab
FNDA:0,_RNvMs_NtCs7EjM2xNHxH9_7xdl_gui3guiNtB4_6XdlGui19create_indexed_data
FNDA:0,_RNvMs_NtCs7EjM2xNHxH9_7xdl_gui3guiNtB4_6XdlGui20parse_plot_arguments
FNDA:0,_RNvMs_NtCs7EjM2xNHxH9_7xdl_gui3guiNtB4_6XdlGui20show_execution_trace
FNDA:0,_RNvMs_NtCs7EjM2xNHxH9_7xdl_gui3guiNtB4_6XdlGui21handle_file_selection
FNDA:0,_RNvMs_NtCs7EjM2xNHxH9_7xdl_gui3guiNtB4_6XdlGui21update_variable_table
FNDA:0,_RNvMs_NtCs7EjM2xNHxH9_7xdl_gui3guiNtB4_6XdlGui22simulate_xdl_execution
FNDA:0,_RNvMs_NtCs7EjM2xNHxH9_7xdl_gui3guiNtB4_6XdlGui26generate_data_for_variable
FNDA:0,_RNvMs_NtCs7EjM2xNHxH9_7xdl_gui3guiNtB4_6XdlGui27execute_fallback_simulation
FNDA:0,_RNvMs_NtCs7EjM2xNHxH9_7xdl_gui3guiNtB4_6XdlGui28extract_number_from_function
FNDA:0,_RNvMs_NtCs7EjM2xNHxH9_7xdl_gui3guiNtB4_6XdlGui29generate_formula_for_variable
FNDA:0,_RNvMs_NtCs7EjM2xNHxH9_7xdl_gui3guiNtB4_6XdlGui30extract_plot_data_with_formula
FNDA:0,_RNvMs_NtCs7EjM2xNHxH9_7xdl_gui3guiNtB4_6XdlGui32simulate_xdl_execution_with_vars
FNDA:0,_RNvMs_NtCs7EjM2xNHxH9_7xdl_gui3guiNtB4_6XdlGui34extract_filename_from_browser_text
FNDA:0,_RNvMs_NtCs7EjM2xNHxH9_7xdl_gui3guiNtB4_6XdlGui3new
FNDA:0,_RNvMs_NtCs7EjM2xNHxH9_7xdl_gui3guiNtB4_6XdlGui4show
FNDA:0,_RNCNvNtCs7EjM2xNHxH9_7xdl_gui3gui20PENDING_PLOT_WINDOWS0B5_
FNF:91
FNH:0
DA:28,0
DA:48,0
DA:49,0
DA:50,0
DA:51,0
DA:52,0
DA:53,0
DA:54,0
DA:55,0
DA:58,0
DA:59,0
DA:60,0
DA:61,0
DA:63,0
DA:64,0
DA:66,0
DA:67,0
DA:69,0
DA:70,0
DA:71,0
DA:72,0
DA:73,0
DA:75,0
DA:76,0
DA:77,0
DA:78,0
DA:79,0
DA:80,0
DA:81,0
DA:82,0
DA:84,0
DA:85,0
DA:86,0
DA:87,0
DA:88,0
DA:89,0
DA:90,0
DA:91,0
DA:93,0
DA:94,0
DA:97,0
DA:98,0
DA:99,0
DA:102,0
DA:103,0
DA:105,0
DA:107,0
DA:110,0
DA:111,0
DA:113,0
DA:114,0
DA:115,0
DA:116,0
DA:117,0
DA:118,0
DA:119,0
DA:123,0
DA:124,0
DA:125,0
DA:126,0
DA:127,0
DA:128,0
DA:129,0
DA:133,0
DA:134,0
DA:136,0
DA:137,0
DA:138,0
DA:140,0
DA:142,0
DA:144,0
DA:145,0
DA:147,0
DA:148,0
DA:151,0
DA:152,0
DA:154,0
DA:155,0
DA:156,0
DA:157,0
DA:158,0
DA:160,0
DA:163,0
DA:164,0
DA:165,0
DA:166,0
DA:168,0
DA:171,0
DA:173,0
DA:174,0
DA:176,0
DA:179,0
DA:180,0
DA:181,0
DA:182,0
DA:184,0
DA:187,0
DA:190,0
DA:193,0
DA:194,0
DA:195,0
DA:196,0
DA:197,0
DA:198,0
DA:201,0
DA:202,0
DA:203,0
DA:205,0
DA:206,0
DA:207,0
DA:208,0
DA:211,0
DA:212,0
DA:232,0
DA:234,0
DA:241,0
DA:244,0
DA:247,0
DA:248,0
DA:250,0
DA:251,0
DA:254,0
DA:257,0
DA:258,0
DA:259,0
DA:260,0
DA:261,0
DA:263,0
DA:264,0
DA:265,0
DA:266,0
DA:267,0
DA:268,0
DA:272,0
DA:273,0
DA:274,0
DA:275,0
DA:276,0
DA:278,0
DA:279,0
DA:280,0
DA:282,0
DA:284,0
DA:285,0
DA:286,0
DA:287,0
DA:288,0
DA:289,0
DA:292,0
DA:293,0
DA:294,0
DA:295,0
DA:296,0
DA:297,0
DA:298,0
DA:299,0
DA:300,0
DA:303,0
DA:304,0
DA:305,0
DA:309,0
DA:312,0
DA:313,0
DA:314,0
DA:315,0
DA:316,0
DA:317,0
DA:318,0
DA:319,0
DA:321,0
DA:322,0
DA:323,0
DA:324,0
DA:327,0
DA:328,0
DA:331,0
DA:332,0
DA:333,0
DA:334,0
DA:335,0
DA:337,0
DA:338,0
DA:339,0
DA:340,0
DA:342,0
DA:343,0
DA:344,0
DA:346,0
DA:347,0
DA:348,0
DA:351,0
DA:352,0
DA:353,0
DA:354,0
DA:358,0
DA:359,0
DA:360,0
DA:361,0
DA:362,0
DA:364,0
DA:365,0
DA:366,0
DA:367,0
DA:369,0
DA:370,0
DA:372,0
DA:373,0
DA:374,0
DA:377,0
DA:378,0
DA:379,0
DA:380,0
DA:383,0
DA:384,0
DA:387,0
DA:391,0
DA:392,0
DA:395,0
DA:396,0
DA:397,0
DA:400,0
DA:401,0
DA:404,0
DA:407,0
DA:408,0
DA:409,0
DA:411,0
DA:412,0
DA:413,0
DA:414,0
DA:417,0
DA:418,0
DA:419,0
DA:421,0
DA:422,0
DA:423,0
DA:424,0
DA:427,0
DA:428,0
DA:429,0
DA:431,0
DA:432,0
DA:433,0
DA:434,0
DA:437,0
DA:438,0
DA:441,0
DA:444,0
DA:445,0
DA:446,0
DA:448,0
DA:449,0
DA:450,0
DA:451,0
DA:454,0
DA:455,0
DA:456,0
DA:458,0
DA:459,0
DA:460,0
DA:461,0
DA:464,0
DA:465,0
DA:466,0
DA:468,0
DA:469,0
DA:470,0
DA:471,0
DA:474,0
DA:475,0
DA:478,0
DA:481,0
DA:482,0
DA:483,0
DA:485,0
DA:486,0
DA:487,0
DA:488,0
DA:491,0
DA:492,0
DA:493,0
DA:495,0
DA:496,0
DA:497,0
DA:498,0
DA:501,0
DA:502,0
DA:503,0
DA:505,0
DA:506,0
DA:507,0
DA:508,0
DA:512,0
DA:513,0
DA:514,0
DA:517,0
DA:518,0
DA:519,0
DA:520,0
DA:523,0
DA:524,0
DA:527,0
DA:528,0
DA:529,0
DA:530,0
DA:534,0
DA:535,0
DA:536,0
DA:538,0
DA:539,0
DA:540,0
DA:541,0
DA:543,0
DA:546,0
DA:547,0
DA:548,0
DA:550,0
DA:551,0
DA:552,0
DA:553,0
DA:556,0
DA:557,0
DA:560,0
DA:563,0
DA:564,0
DA:565,0
DA:568,0
DA:569,0
DA:570,0
DA:571,0
DA:575,0
DA:576,0
DA:579,0
DA:580,0
DA:581,0
DA:582,0
DA:585,0
DA:586,0
DA:589,0
DA:590,0
DA:591,0
DA:592,0
DA:595,0
DA:596,0
DA:599,0
DA:602,0
DA:603,0
DA:606,0
DA:607,0
DA:608,0
DA:609,0
DA:613,0
DA:614,0
DA:617,0
DA:618,0
DA:619,0
DA:620,0
DA:623,0
DA:624,0
DA:627,0
DA:628,0
DA:629,0
DA:630,0
DA:634,0
DA:635,0
DA:638,0
DA:639,0
DA:640,0
DA:641,0
DA:642,0
DA:643,0
DA:644,0
DA:645,0
DA:646,0
DA:647,0
DA:648,0
DA:649,0
DA:650,0
DA:651,0
DA:652,0
DA:653,0
DA:654,0
DA:655,0
DA:656,0
DA:657,0
DA:660,0
DA:661,0
DA:664,0
DA:665,0
DA:666,0
DA:667,0
DA:668,0
DA:669,0
DA:670,0
DA:671,0
DA:672,0
DA:673,0
DA:674,0
DA:675,0
DA:676,0
DA:677,0
DA:678,0
DA:679,0
DA:680,0
DA:681,0
DA:682,0
DA:683,0
DA:684,0
DA:685,0
DA:686,0
DA:689,0
DA:690,0
DA:693,0
DA:696,0
DA:697,0
DA:700,0
DA:701,0
DA:702,0
DA:703,0
DA:704,0
DA:705,0
DA:706,0
DA:707,0
DA:708,0
DA:709,0
DA:710,0
DA:711,0
DA:715,0
DA:716,0
DA:717,0
DA:720,0
DA:721,0
DA:724,0
DA:725,0
DA:726,0
DA:727,0
DA:728,0
DA:731,0
DA:732,0
DA:733,0
DA:734,0
DA:735,0
DA:738,0
DA:739,0
DA:741,0
DA:742,0
DA:743,0
DA:745,0
DA:746,0
DA:748,0
DA:749,0
DA:750,0
DA:753,0
DA:754,0
DA:755,0
DA:756,0
DA:759,0
DA:760,0
DA:761,0
DA:764,0
DA:767,0
DA:768,0
DA:769,0
DA:772,0
DA:775,0
DA:778,0
DA:781,0
DA:784,0
DA:785,0
DA:786,0
DA:787,0
DA:790,0
DA:791,0
DA:792,0
DA:793,0
DA:794,0
DA:795,0
DA:796,0
DA:799,0
DA:802,0
DA:803,0
DA:804,0
DA:805,0
DA:806,0
DA:807,0
DA:809,0
DA:810,0
DA:813,0
DA:814,0
DA:815,0
DA:816,0
DA:817,0
DA:818,0
DA:821,0
DA:822,0
DA:825,0
DA:826,0
DA:827,0
DA:828,0
DA:829,0
DA:830,0
DA:832,0
DA:833,0
DA:836,0
DA:837,0
DA:838,0
DA:839,0
DA:840,0
DA:841,0
DA:843,0
DA:846,0
DA:848,0
DA:849,0
DA:850,0
DA:851,0
DA:855,0
DA:856,0
DA:861,0
DA:864,0
DA:865,0
DA:866,0
DA:867,0
DA:868,0
DA:869,0
DA:870,0
DA:872,0
DA:875,0
DA:876,0
DA:877,0
DA:878,0
DA:881,0
DA:882,0
DA:883,0
DA:884,0
DA:885,0
DA:886,0
DA:887,0
DA:888,0
DA:891,0
DA:892,0
DA:894,0
DA:895,0
DA:896,0
DA:897,0
DA:901,0
DA:902,0
DA:904,0
DA:905,0
DA:907,0
DA:908,0
DA:909,0
DA:910,0
DA:912,0
DA:914,0
DA:917,0
DA:918,0
DA:919,0
DA:920,0
DA:922,0
DA:924,0
DA:925,0
DA:926,0
DA:927,0
DA:928,0
DA:929,0
DA:930,0
DA:931,0
DA:932,0
DA:934,0
DA:935,0
DA:940,0
DA:941,0
DA:942,0
DA:943,0
DA:944,0
DA:945,0
DA:946,0
DA:948,0
DA:950,0
DA:952,0
DA:953,0
DA:954,0
DA:956,0
DA:958,0
DA:959,0
DA:961,0
DA:962,0
DA:963,0
DA:964,0
DA:965,0
DA:966,0
DA:967,0
DA:968,0
DA:969,0
DA:970,0
DA:971,0
DA:972,0
DA:973,0
DA:974,0
DA:975,0
DA:976,0
DA:977,0
DA:978,0
DA:983,0
DA:984,0
DA:985,0
DA:986,0
DA:987,0
DA:988,0
DA:989,0
DA:990,0
DA:991,0
DA:992,0
DA:993,0
DA:994,0
DA:995,0
DA:997,0
DA:1000,0
DA:1002,0
DA:1003,0
DA:1004,0
DA:1005,0
DA:1006,0
DA:1007,0
DA:1010,0
DA:1011,0
DA:1012,0
DA:1013,0
DA:1015,0
DA:1016,0
DA:1017,0
DA:1018,0
DA:1019,0
DA:1020,0
DA:1022,0
DA:1024,0
DA:1027,0
DA:1028,0
DA:1029,0
DA:1030,0
DA:1031,0
DA:1032,0
DA:1033,0
DA:1034,0
DA:1035,0
DA:1036,0
DA:1037,0
DA:1040,0
DA:1041,0
DA:1042,0
DA:1043,0
DA:1044,0
DA:1045,0
DA:1048,0
DA:1049,0
DA:1050,0
DA:1051,0
DA:1053,0
DA:1054,0
DA:1061,0
DA:1062,0
DA:1063,0
DA:1064,0
DA:1065,0
DA:1066,0
DA:1067,0
DA:1068,0
DA:1069,0
DA:1070,0
DA:1071,0
DA:1072,0
DA:1073,0
DA:1074,0
DA:1075,0
DA:1076,0
DA:1078,0
DA:1079,0
DA:1080,0
DA:1081,0
DA:1082,0
DA:1083,0
DA:1084,0
DA:1085,0
DA:1088,0
DA:1090,0
DA:1092,0
DA:1093,0
DA:1101,0
DA:1102,0
DA:1105,0
DA:1106,0
DA:1109,0
DA:1112,0
DA:1113,0
DA:1114,0
DA:1115,0
DA:1116,0
DA:1117,0
DA:1118,0
DA:1119,0
DA:1120,0
DA:1122,0
DA:1124,0
DA:1126,0
DA:1127,0
DA:1128,0
DA:1129,0
DA:1130,0
DA:1131,0
DA:1132,0
DA:1133,0
DA:1134,0
DA:1135,0
DA:1138,0
DA:1139,0
DA:1140,0
DA:1141,0
DA:1142,0
DA:1143,0
DA:1144,0
DA:1146,0
DA:1148,0
DA:1149,0
DA:1150,0
DA:1154,0
DA:1155,0
DA:1156,0
DA:1160,0
DA:1161,0
DA:1162,0
DA:1167,0
DA:1169,0
DA:1170,0
DA:1171,0
DA:1173,0
DA:1174,0
DA:1175,0
DA:1178,0
DA:1179,0
DA:1180,0
DA:1181,0
DA:1182,0
DA:1184,0
DA:1185,0
DA:1186,0
DA:1187,0
DA:1188,0
DA:1189,0
DA:1190,0
DA:1191,0
DA:1193,0
DA:1194,0
DA:1195,0
DA:1198,0
DA:1199,0
DA:1200,0
DA:1201,0
DA:1202,0
DA:1204,0
DA:1205,0
DA:1206,0
DA:1207,0
DA:1210,0
DA:1211,0
DA:1212,0
DA:1213,0
DA:1214,0
DA:1215,0
DA:1216,0
DA:1217,0
DA:1218,0
DA:1221,0
DA:1222,0
DA:1223,0
DA:1224,0
DA:1225,0
DA:1226,0
DA:1227,0
DA:1228,0
DA:1229,0
DA:1230,0
DA:1231,0
DA:1232,0
DA:1233,0
DA:1234,0
DA:1235,0
DA:1236,0
DA:1237,0
DA:1239,0
DA:1242,0
DA:1243,0
DA:1244,0
DA:1245,0
DA:1246,0
DA:1248,0
DA:1249,0
DA:1250,0
DA:1251,0
DA:1252,0
DA:1253,0
DA:1254,0
DA:1255,0
DA:1257,0
DA:1258,0
DA:1259,0
DA:1260,0
DA:1261,0
DA:1263,0
DA:1265,0
DA:1266,0
DA:1267,0
DA:1268,0
DA:1269,0
DA:1271,0
DA:1272,0
DA:1273,0
DA:1276,0
DA:1279,0
DA:1280,0
DA:1283,0
DA:1284,0
DA:1285,0
DA:1286,0
DA:1287,0
DA:1288,0
DA:1289,0
DA:1290,0
DA:1291,0
DA:1292,0
DA:1293,0
DA:1294,0
DA:1295,0
DA:1296,0
DA:1297,0
DA:1298,0
DA:1299,0
DA:1300,0
DA:1301,0
DA:1302,0
DA:1303,0
DA:1305,0
DA:1306,0
DA:1307,0
DA:1308,0
DA:1309,0
DA:1312,0
DA:1313,0
DA:1314,0
DA:1315,0
DA:1318,0
DA:1319,0
DA:1320,0
DA:1321,0
DA:1322,0
DA:1323,0
DA:1324,0
DA:1325,0
DA:1326,0
DA:1327,0
DA:1328,0
DA:1329,0
DA:1332,0
DA:1333,0
DA:1335,0
DA:1336,0
DA:1337,0
DA:1338,0
DA:1339,0
DA:1340,0
DA:1341,0
DA:1342,0
DA:1343,0
DA:1344,0
DA:1345,0
DA:1346,0
DA:1347,0
DA:1349,0
DA:1350,0
DA:1351,0
DA:1352,0
DA:1353,0
DA:1354,0
DA:1355,0
DA:1356,0
DA:1357,0
DA:1358,0
DA:1360,0
DA:1361,0
DA:1364,0
DA:1365,0
DA:1366,0
DA:1367,0
DA:1368,0
DA:1369,0
DA:1370,0
DA:1371,0
DA:1373,0
DA:1374,0
DA:1377,0
DA:1378,0
DA:1380,0
DA:1382,0
DA:1385,0
DA:1386,0
DA:1387,0
DA:1388,0
DA:1389,0
DA:1392,0
DA:1393,0
DA:1394,0
DA:1395,0
DA:1396,0
DA:1399,0
DA:1400,0
DA:1401,0
DA:1403,0
DA:1405,0
DA:1406,0
DA:1407,0
DA:1408,0
DA:1410,0
DA:1413,0
DA:1414,0
DA:1415,0
DA:1416,0
DA:1417,0
DA:1419,0
DA:1420,0
DA:1422,0
DA:1423,0
DA:1424,0
DA:1425,0
DA:1426,0
DA:1427,0
DA:1428,0
DA:1429,0
DA:1432,0
DA:1433,0
DA:1434,0
DA:1436,0
DA:1438,0
DA:1441,0
DA:1442,0
DA:1443,0
DA:1444,0
DA:1445,0
DA:1446,0
DA:1447,0
DA:1448,0
DA:1449,0
DA:1450,0
DA:1453,0
DA:1454,0
DA:1455,0
DA:1456,0
DA:1458,0
DA:1461,0
DA:1464,0
DA:1465,0
DA:1466,0
DA:1467,0
DA:1471,0
DA:1472,0
DA:1473,0
DA:1474,0
DA:1475,0
DA:1476,0
DA:1480,0
DA:1481,0
DA:1482,0
DA:1485,0
DA:1488,0
DA:1490,0
DA:1491,0
DA:1492,0
DA:1493,0
DA:1494,0
DA:1495,0
DA:1496,0
DA:1497,0
DA:1499,0
DA:1500,0
DA:1501,0
DA:1503,0
DA:1504,0
DA:1505,0
DA:1506,0
DA:1507,0
DA:1508,0
DA:1511,0
DA:1513,0
DA:1514,0
DA:1516,0
DA:1518,0
DA:1520,0
DA:1522,0
DA:1523,0
DA:1525,0
DA:1527,0
DA:1528,0
DA:1530,0
DA:1532,0
DA:1533,0
DA:1535,0
DA:1537,0
DA:1538,0
DA:1539,0
DA:1542,0
DA:1543,0
DA:1544,0
DA:1545,0
DA:1547,0
DA:1549,0
DA:1550,0
DA:1551,0
DA:1552,0
DA:1556,0
DA:1557,0
DA:1558,0
DA:1559,0
DA:1561,0
DA:1562,0
DA:1563,0
DA:1565,0
DA:1566,0
DA:1567,0
DA:1568,0
DA:1570,0
DA:1571,0
DA:1572,0
DA:1576,0
DA:1577,0
DA:1578,0
DA:1581,0
DA:1584,0
DA:1585,0
DA:1586,0
DA:1587,0
DA:1590,0
DA:1592,0
DA:1593,0
DA:1595,0
DA:1597,0
DA:1600,0
DA:1601,0
DA:1602,0
DA:1603,0
DA:1605,0
DA:1607,0
DA:1608,0
DA:1609,0
DA:1610,0
DA:1612,0
DA:1614,0
DA:1615,0
DA:1616,0
DA:1617,0
DA:1619,0
DA:1621,0
DA:1625,0
DA:1626,0
DA:1627,0
DA:1628,0
DA:1629,0
DA:1630,0
DA:1632,0
DA:1634,0
DA:1635,0
DA:1636,0
DA:1637,0
BRF:0
BRH:0
LF:1104
LH:0
end_of_record
SF:/Users/ravindraboddipalli/sources/xdl/xdl-gui/src/image_window.rs
FN:20,_RNCNvMNtCs7EjM2xNHxH9_7xdl_gui12image_windowNtB4_11ImageWindow3new0B6_
FN:60,_RNCNvMNtCs7EjM2xNHxH9_7xdl_gui12image_windowNtB4_11ImageWindow3news0_0B6_
FN:55,_RNCNvMNtCs7EjM2xNHxH9_7xdl_gui12image_windowNtB4_11ImageWindow3news_0B6_
FN:17,_RNvMNtCs7EjM2xNHxH9_7xdl_gui12image_windowNtB2_11ImageWindow3new
FN:75,_RNvMNtCs7EjM2xNHxH9_7xdl_gui12image_windowNtB2_11ImageWindow4show
FNDA:0,_RNCNvMNtCs7EjM2xNHxH9_7xdl_gui12image_windowNtB4_11ImageWindow3new0B6_
FNDA:0,_RNCNvMNtCs7EjM2xNHxH9_7xdl_gui12image_windowNtB4_11ImageWindow3news0_0B6_
FNDA:0,_RNCNvMNtCs7EjM2xNHxH9_7xdl_gui12image_windowNtB4_11ImageWindow3news_0B6_
FNDA:0,_RNvMNtCs7EjM2xNHxH9_7xdl_gui12image_windowNtB2_11ImageWindow3new
FNDA:0,_RNvMNtCs7EjM2xNHxH9_7xdl_gui12image_windowNtB2_11ImageWindow4show
FNF:5
FNH:0
DA:17,0
DA:19,0
DA:20,0
DA:23,0
DA:24,0
DA:27,0
DA:28,0
DA:29,0
DA:32,0
DA:33,0
DA:36,0
DA:37,0
DA:38,0
DA:39,0
DA:40,0
DA:41,0
DA:42,0
DA:43,0
DA:44,0
DA:45,0
DA:46,0
DA:47,0
DA:48,0
DA:51,0
DA:52,0
DA:55,0
DA:56,0
DA:57,0
DA:60,0
DA:61,0
DA:62,0
DA:63,0
DA:65,0
DA:67,0
DA:69,0
DA:70,0
DA:72,0
DA:73,0
DA:75,0
DA:76,0
DA:78,0
DA:79,0
DA:80,0
DA:81,0
BRF:0
BRH:0
LF:47
LH:0
end_of_record
SF:/Users/ravindraboddipalli/sources/xdl/xdl-gui/src/main.rs
FN:18,_RNvCs7EjM2xNHxH9_7xdl_gui4main
FNDA:0,_RNvCs7EjM2xNHxH9_7xdl_gui4main
FNF:1
FNH:0
DA:18,0
DA:20,0
DA:21,0
DA:22,0
DA:24,0
DA:27,0
DA:28,0
DA:30,0
DA:32,0
DA:33,0
DA:35,0
DA:36,0
BRF:0
BRH:0
LF:12
LH:0
end_of_record
SF:/Users/ravindraboddipalli/sources/xdl/xdl-gui/src/plot_window.rs
FN:70,_RNCNvMNtCs7EjM2xNHxH9_7xdl_gui11plot_windowNtB4_9PlotFrame15new_with_labels0B6_
FN:115,_RNCNvMNtCs7EjM2xNHxH9_7xdl_gui11plot_windowNtB4_9PlotFrame21draw_plot_with_labels0B6_
FN:117,_RNCNvMNtCs7EjM2xNHxH9_7xdl_gui11plot_windowNtB4_9PlotFrame21draw_plot_with_labelss0_0B6_
FN:118,_RNCNvMNtCs7EjM2xNHxH9_7xdl_gui11plot_windowNtB4_9PlotFrame21draw_plot_with_labelss1_0B6_
FN:116,_RNCNvMNtCs7EjM2xNHxH9_7xdl_gui11plot_windowNtB4_9PlotFrame21draw_plot_with_labelss_0B6_
FN:236,_RNCNvMs_NtCs7EjM2xNHxH9_7xdl_gui11plot_windowNtB6_10PlotWindow11with_labels0B8_
FN:229,_RNCNvMs_NtCs7EjM2xNHxH9_7xdl_gui11plot_windowNtB6_10PlotWindow11with_labelss0_0B8_
FN:230,_RNCNvMs_NtCs7EjM2xNHxH9_7xdl_gui11plot_windowNtB6_10PlotWindow11with_labelss1_0B8_
FN:231,_RNCNvMs_NtCs7EjM2xNHxH9_7xdl_gui11plot_windowNtB6_10PlotWindow11with_labelss2_0B8_
FN:232,_RNCNvMs_NtCs7EjM2xNHxH9_7xdl_gui11plot_windowNtB6_10PlotWindow11with_labelss3_0B8_
FN:244,_RNCNvMs_NtCs7EjM2xNHxH9_7xdl_gui11plot_windowNtB6_10PlotWindow11with_labelss_0B8_
FN:46,_RNvMNtCs7EjM2xNHxH9_7xdl_gui11plot_windowNtB2_9PlotFrame15new_with_labels
FN:33,_RNvMNtCs7EjM2xNHxH9_7xdl_gui11plot_windowNtB2_9PlotFrame16new_with_formula
FN:94,_RNvMNtCs7EjM2xNHxH9_7xdl_gui11plot_windowNtB2_9PlotFrame21draw_plot_with_labels
FN:90,_RNvMNtCs7EjM2xNHxH9_7xdl_gui11plot_windowNtB2_9PlotFrame22draw_plot_with_formula
FN:29,_RNvMNtCs7EjM2xNHxH9_7xdl_gui11plot_windowNtB2_9PlotFrame3new
FN:86,_RNvMNtCs7EjM2xNHxH9_7xdl_gui11plot_windowNtB2_9PlotFrame9draw_plot
FN:195,_RNvMs_NtCs7EjM2xNHxH9_7xdl_gui11plot_windowNtB4_10PlotWindow11with_labels
FN:253,_RNvMs_NtCs7EjM2xNHxH9_7xdl_gui11plot_windowNtB4_10PlotWindow4show
FNDA:0,_RNCNvMNtCs7EjM2xNHxH9_7xdl_gui11plot_windowNtB4_9PlotFrame15new_with_labels0B6_
FNDA:0,_RNCNvMNtCs7EjM2xNHxH9_7xdl_gui11plot_windowNtB4_9PlotFrame21draw_plot_with_labels0B6_
FNDA:0,_RNCNvMNtCs7EjM2xNHxH9_7xdl_gui11plot_windowNtB4_9PlotFrame21draw_plot_with_labelss0_0B6_
FNDA:0,_RNCNvMNtCs7EjM2xNHxH9_7xdl_gui11plot_windowNtB4_9PlotFrame21draw_plot_with_labelss1_0B6_
FNDA:0,_RNCNvMNtCs7EjM2xNHxH9_7xdl_gui11plot_windowNtB4_9PlotFrame21draw_plot_with_labelss_0B6_
FNDA:0,_RNCNvMs_NtCs7EjM2xNHxH9_7xdl_gui11plot_windowNtB6_10PlotWindow11with_labels0B8_
FNDA:0,_RNCNvMs_NtCs7EjM2xNHxH9_7xdl_gui11plot_windowNtB6_10PlotWindow11with_labelss0_0B8_
FNDA:0,_RNCNvMs_NtCs7EjM2xNHxH9_7xdl_gui11plot_windowNtB6_10PlotWindow11with_labelss1_0B8_
FNDA:0,_RNCNvMs_NtCs7EjM2xNHxH9_7xdl_gui11plot_windowNtB6_10PlotWindow11with_labelss2_0B8_
FNDA:0,_RNCNvMs_NtCs7EjM2xNHxH9_7xdl_gui11plot_windowNtB6_10PlotWindow11with_labelss3_0B8_
FNDA:0,_RNCNvMs_NtCs7EjM2xNHxH9_7xdl_gui11plot_windowNtB6_10PlotWindow11with_labelss_0B8_
FNDA:0,_RNvMNtCs7EjM2xNHxH9_7xdl_gui11plot_windowNtB2_9PlotFrame15new_with_labels
FNDA:0,_RNvMNtCs7EjM2xNHxH9_7xdl_gui11plot_windowNtB2_9PlotFrame16new_with_formula
FNDA:0,_RNvMNtCs7EjM2xNHxH9_7xdl_gui11plot_windowNtB2_9PlotFrame21draw_plot_with_labels
FNDA:0,_RNvMNtCs7EjM2xNHxH9_7xdl_gui11plot_windowNtB2_9PlotFrame22draw_plot_with_formula
FNDA:0,_RNvMNtCs7EjM2xNHxH9_7xdl_gui11plot_windowNtB2_9PlotFrame3new
FNDA:0,_RNvMNtCs7EjM2xNHxH9_7xdl_gui11plot_windowNtB2_9PlotFrame9draw_plot
FNDA:0,_RNvMs_NtCs7EjM2xNHxH9_7xdl_gui11plot_windowNtB4_10PlotWindow11with_labels
FNDA:0,_RNvMs_NtCs7EjM2xNHxH9_7xdl_gui11plot_windowNtB4_10PlotWindow4show
FNF:19
FNH:0
DA:29,0
DA:30,0
DA:31,0
DA:33,0
DA:34,0
DA:35,0
DA:36,0
DA:37,0
DA:38,0
DA:39,0
DA:40,0
DA:41,0
DA:42,0
DA:43,0
DA:46,0
DA:47,0
DA:48,0
DA:49,0
DA:50,0
DA:51,0
DA:52,0
DA:53,0
DA:54,0
DA:55,0
DA:56,0
DA:57,0
DA:58,0
DA:59,0
DA:61,0
DA:62,0
DA:63,0
DA:64,0
DA:65,0
DA:66,0
DA:67,0
DA:68,0
DA:70,0
DA:71,0
DA:72,0
DA:73,0
DA:75,0
DA:76,0
DA:77,0
DA:78,0
DA:79,0
DA:80,0
DA:81,0
DA:82,0
DA:83,0
DA:86,0
DA:87,0
DA:88,0
DA:90,0
DA:91,0
DA:92,0
DA:94,0
DA:95,0
DA:96,0
DA:97,0
DA:98,0
DA:99,0
DA:100,0
DA:101,0
DA:102,0
DA:103,0
DA:104,0
DA:107,0
DA:108,0
DA:109,0
DA:110,0
DA:111,0
DA:112,0
DA:115,0
DA:116,0
DA:117,0
DA:118,0
DA:121,0
DA:122,0
DA:125,0
DA:127,0
DA:130,0
DA:131,0
DA:133,0
DA:134,0
DA:136,0
DA:138,0
DA:139,0
DA:141,0
DA:142,0
DA:143,0
DA:144,0
DA:145,0
DA:146,0
DA:148,0
DA:149,0
DA:153,0
DA:154,0
DA:157,0
DA:158,0
DA:159,0
DA:160,0
DA:161,0
DA:162,0
DA:163,0
DA:164,0
DA:169,0
DA:170,0
DA:172,0
DA:174,0
DA:175,0
DA:177,0
DA:180,0
DA:181,0
DA:182,0
DA:183,0
DA:184,0
DA:190,0
DA:191,0
DA:195,0
DA:196,0
DA:197,0
DA:198,0
DA:199,0
DA:200,0
DA:201,0
DA:202,0
DA:203,0
DA:204,0
DA:207,0
DA:208,0
DA:213,0
DA:214,0
DA:215,0
DA:216,0
DA:217,0
DA:221,0
DA:222,0
DA:223,0
DA:225,0
DA:226,0
DA:227,0
DA:228,0
DA:229,0
DA:230,0
DA:231,0
DA:232,0
DA:233,0
DA:236,0
DA:237,0
DA:238,0
DA:240,0
DA:241,0
DA:244,0
DA:245,0
DA:246,0
DA:247,0
DA:248,0
DA:250,0
DA:251,0
DA:253,0
DA:254,0
DA:255,0
BRF:0
BRH:0
LF:173
LH:0
end_of_record
SF:/Users/ravindraboddipalli/sources/xdl/xdl-interpreter/src/context.rs
FN:95,_RNvMs0_NtCs8qPDi5EjI4n_15xdl_interpreter7contextNtB5_7Context10push_scope
FN:142,_RNvMs0_NtCs8qPDi5EjI4n_15xdl_interpreter7contextNtB5_7Context12get_function
FN:118,_RNvMs0_NtCs8qPDi5EjI4n_15xdl_interpreter7contextNtB5_7Context12get_variable
FN:111,_RNvMs0_NtCs8qPDi5EjI4n_15xdl_interpreter7contextNtB5_7Context12set_variable
FN:130,_RNvMs0_NtCs8qPDi5EjI4n_15xdl_interpreter7contextNtB5_7Context19get_system_variable
FN:82,_RNvMs0_NtCs8qPDi5EjI4n_15xdl_interpreter7contextNtB5_7Context21init_system_variables
FN:68,_RNvMs0_NtCs8qPDi5EjI4n_15xdl_interpreter7contextNtB5_7Context3new
FN:100,_RNvMs0_NtCs8qPDi5EjI4n_15xdl_interpreter7contextNtB5_7Context9pop_scope
FN:46,_RNvMs_NtCs8qPDi5EjI4n_15xdl_interpreter7contextNtB4_5Scope3get
FN:36,_RNvMs_NtCs8qPDi5EjI4n_15xdl_interpreter7contextNtB4_5Scope3new
FN:42,_RNvMs_NtCs8qPDi5EjI4n_15xdl_interpreter7contextNtB4_5Scope3set
FN:208,_RNvNtNtCs8qPDi5EjI4n_15xdl_interpreter7context5testss_21test_system_variables
FN:190,_RNvNtNtCs8qPDi5EjI4n_15xdl_interpreter7context5testss_21test_variable_scoping
FN:218,_RNvNtNtCs8qPDi5EjI4n_15xdl_interpreter7context5testss_23test_variable_not_found
FN:133,_RNCNvMs0_NtCs8qPDi5EjI4n_15xdl_interpreter7contextNtB7_7Context19get_system_variable0B9_
FN:158,_RNCNvMs0_NtCs8qPDi5EjI4n_15xdl_interpreter7contextNtB7_7Context12has_variable0B9_
FN:162,_RNvMs0_NtCs8qPDi5EjI4n_15xdl_interpreter7contextNtB5_7Context11scope_depth
FN:157,_RNvMs0_NtCs8qPDi5EjI4n_15xdl_interpreter7contextNtB5_7Context12has_variable
FN:152,_RNvMs0_NtCs8qPDi5EjI4n_15xdl_interpreter7contextNtB5_7Context13get_procedure
FN:137,_RNvMs0_NtCs8qPDi5EjI4n_15xdl_interpreter7contextNtB5_7Context15define_function
FN:147,_RNvMs0_NtCs8qPDi5EjI4n_15xdl_interpreter7contextNtB5_7Context16define_procedure
FN:167,_RNvMs0_NtCs8qPDi5EjI4n_15xdl_interpreter7contextNtB5_7Context17get_all_variables
FN:50,_RNvMs_NtCs8qPDi5EjI4n_15xdl_interpreter7contextNtB4_5Scope8contains
FN:30,_RNvXNtCs8qPDi5EjI4n_15xdl_interpreter7contextNtB2_5ScopeNtNtCs2CqrNpCrSUr_4core7default7Default7default
FN:180,_RNvXs1_NtCs8qPDi5EjI4n_15xdl_interpreter7contextNtB5_7ContextNtNtCs2CqrNpCrSUr_4core7default7Default7default
FNDA:1,_RNvMs0_NtCs8qPDi5EjI4n_15xdl_interpreter7contextNtB5_7Context10push_scope
FNDA:0,_RNvMs0_NtCs8qPDi5EjI4n_15xdl_interpreter7contextNtB5_7Context12get_function
FNDA:5,_RNvMs0_NtCs8qPDi5EjI4n_15xdl_interpreter7contextNtB5_7Context12get_variable
FNDA:3,_RNvMs0_NtCs8qPDi5EjI4n_15xdl_interpreter7contextNtB5_7Context12set_variable
FNDA:2,_RNvMs0_NtCs8qPDi5EjI4n_15xdl_interpreter7contextNtB5_7Context19get_system_variable
FNDA:7,_RNvMs0_NtCs8qPDi5EjI4n_15xdl_interpreter7contextNtB5_7Context21init_system_variables
FNDA:7,_RNvMs0_NtCs8qPDi5EjI4n_15xdl_interpreter7contextNtB5_7Context3new
FNDA:1,_RNvMs0_NtCs8qPDi5EjI4n_15xdl_interpreter7contextNtB5_7Context9pop_scope
FNDA:5,_RNvMs_NtCs8qPDi5EjI4n_15xdl_interpreter7contextNtB4_5Scope3get
FNDA:8,_RNvMs_NtCs8qPDi5EjI4n_15xdl_interpreter7contextNtB4_5Scope3new
FNDA:3,_RNvMs_NtCs8qPDi5EjI4n_15xdl_interpreter7contextNtB4_5Scope3set
FNDA:1,_RNvNtNtCs8qPDi5EjI4n_15xdl_interpreter7context5testss_21test_system_variables
FNDA:1,_RNvNtNtCs8qPDi5EjI4n_15xdl_interpreter7context5testss_21test_variable_scoping
FNDA:1,_RNvNtNtCs8qPDi5EjI4n_15xdl_interpreter7context5testss_23test_variable_not_found
FNDA:0,_RNCNvMs0_NtCs8qPDi5EjI4n_15xdl_interpreter7contextNtB7_7Context19get_system_variable0B9_
FNDA:0,_RNCNvMs0_NtCs8qPDi5EjI4n_15xdl_interpreter7contextNtB7_7Context12has_variable0B9_
FNDA:0,_RNvMs0_NtCs8qPDi5EjI4n_15xdl_interpreter7contextNtB5_7Context11scope_depth
FNDA:0,_RNvMs0_NtCs8qPDi5EjI4n_15xdl_interpreter7contextNtB5_7Context12has_variable
FNDA:0,_RNvMs0_NtCs8qPDi5EjI4n_15xdl_interpreter7contextNtB5_7Context13get_procedure
FNDA:0,_RNvMs0_NtCs8qPDi5EjI4n_15xdl_interpreter7contextNtB5_7Context15define_function
FNDA:0,_RNvMs0_NtCs8qPDi5EjI4n_15xdl_interpreter7contextNtB5_7Context16define_procedure
FNDA:0,_RNvMs0_NtCs8qPDi5EjI4n_15xdl_interpreter7contextNtB5_7Context17get_all_variables
FNDA:0,_RNvMs_NtCs8qPDi5EjI4n_15xdl_interpreter7contextNtB4_5Scope8contains
FNDA:0,_RNvXNtCs8qPDi5EjI4n_15xdl_interpreter7contextNtB2_5ScopeNtNtCs2CqrNpCrSUr_4core7default7Default7default
FNDA:0,_RNvXs1_NtCs8qPDi5EjI4n_15xdl_interpreter7contextNtB5_7ContextNtNtCs2CqrNpCrSUr_4core7default7Default7default
FNF:25
FNH:13
DA:30,0
DA:31,0
DA:32,0
DA:36,8
DA:37,8
DA:38,8
DA:39,8
DA:40,8
DA:42,3
DA:43,3
DA:44,3
DA:46,5
DA:47,5
DA:48,5
DA:50,0
DA:51,0
DA:52,0
DA:68,7
DA:69,7
DA:70,7
DA:71,7
DA:72,7
DA:73,7
DA:74,7
DA:77,7
DA:78,7
DA:79,7
DA:82,7
DA:84,7
DA:85,7
DA:86,7
DA:87,7
DA:88,7
DA:89,7
DA:90,7
DA:91,7
DA:92,7
DA:95,1
DA:96,1
DA:97,1
DA:100,1
DA:101,1
DA:102,0
DA:103,0
DA:104,0
DA:105,1
DA:106,1
DA:107,1
DA:108,1
DA:111,3
DA:112,3
DA:113,3
DA:114,3
DA:115,3
DA:118,5
DA:120,5
DA:121,5
DA:122,4
DA:123,1
DA:126,1
DA:127,5
DA:130,2
DA:131,2
DA:132,2
DA:133,2
DA:134,2
DA:137,0
DA:138,0
DA:139,0
DA:142,0
DA:143,0
DA:144,0
DA:147,0
DA:148,0
DA:149,0
DA:152,0
DA:153,0
DA:154,0
DA:157,0
DA:158,0
DA:159,0
DA:162,0
DA:163,0
DA:164,0
DA:167,0
DA:168,0
DA:170,0
DA:171,0
DA:172,0
DA:173,0
DA:175,0
DA:176,0
DA:180,0
DA:181,0
DA:182,0
DA:190,1
DA:191,1
DA:194,1
DA:195,1
DA:198,1
DA:199,1
DA:200,1
DA:203,1
DA:204,1
DA:205,1
DA:208,1
DA:209,1
DA:210,1
DA:211,1
DA:212,1
DA:213,0
DA:215,1
DA:218,1
DA:219,1
DA:220,1
DA:221,1
DA:224,1
BRF:0
BRH:0
LF:119
LH:78
end_of_record
SF:/Users/ravindraboddipalli/sources/xdl/xdl-interpreter/src/evaluator.rs
FN:1051,_RNvNtNtCs8qPDi5EjI4n_15xdl_interpreter9evaluator5testss_20test_system_variable
FN:1035,_RNvNtNtCs8qPDi5EjI4n_15xdl_interpreter9evaluator5testss_20test_variable_lookup
FN:1013,_RNvNtNtCs8qPDi5EjI4n_15xdl_interpreter9evaluator5testss_22test_binary_arithmetic
FN:999,_RNvNtNtCs8qPDi5EjI4n_15xdl_interpreter9evaluator5testss_23test_literal_evaluation
FN:632,_RINvMNtCs8qPDi5EjI4n_15xdl_interpreter9evaluatorNtB3_9Evaluator22try_numeric_conversionNCNvB2_18evaluate_binary_opsQ_0EB5_
FN:632,_RINvMNtCs8qPDi5EjI4n_15xdl_interpreter9evaluatorNtB3_9Evaluator22try_numeric_conversionNCNvB2_18evaluate_binary_opsR_0EB5_
FN:632,_RINvMNtCs8qPDi5EjI4n_15xdl_interpreter9evaluatorNtB3_9Evaluator22try_numeric_conversionNCNvB2_18evaluate_binary_opsS_0EB5_
FN:615,_RNCNvMNtCs8qPDi5EjI4n_15xdl_interpreter9evaluatorNtB4_9Evaluator17evaluate_unary_op0B6_
FN:194,_RNCNvMNtCs8qPDi5EjI4n_15xdl_interpreter9evaluatorNtB4_9Evaluator18evaluate_binary_op0B6_
FN:196,_RNCNvMNtCs8qPDi5EjI4n_15xdl_interpreter9evaluatorNtB4_9Evaluator18evaluate_binary_ops0_0B6_
FN:200,_RNCNvMNtCs8qPDi5EjI4n_15xdl_interpreter9evaluatorNtB4_9Evaluator18evaluate_binary_ops1_0B6_
FN:202,_RNCNvMNtCs8qPDi5EjI4n_15xdl_interpreter9evaluatorNtB4_9Evaluator18evaluate_binary_ops2_0B6_
FN:206,_RNCNvMNtCs8qPDi5EjI4n_15xdl_interpreter9evaluatorNtB4_9Evaluator18evaluate_binary_ops3_0B6_
FN:212,_RNCNvMNtCs8qPDi5EjI4n_15xdl_interpreter9evaluatorNtB4_9Evaluator18evaluate_binary_ops4_0B6_
FN:223,_RNCNvMNtCs8qPDi5EjI4n_15xdl_interpreter9evaluatorNtB4_9Evaluator18evaluate_binary_ops5_0B6_
FN:234,_RNCNvMNtCs8qPDi5EjI4n_15xdl_interpreter9evaluatorNtB4_9Evaluator18evaluate_binary_ops6_0B6_
FN:239,_RNCNvMNtCs8qPDi5EjI4n_15xdl_interpreter9evaluatorNtB4_9Evaluator18evaluate_binary_ops7_0B6_
FN:244,_RNCNvMNtCs8qPDi5EjI4n_15xdl_interpreter9evaluatorNtB4_9Evaluator18evaluate_binary_ops8_0B6_
FN:249,_RNCNvMNtCs8qPDi5EjI4n_15xdl_interpreter9evaluatorNtB4_9Evaluator18evaluate_binary_ops9_0B6_
FN:363,_RNCNvMNtCs8qPDi5EjI4n_15xdl_interpreter9evaluatorNtB4_9Evaluator18evaluate_binary_opsA_0B6_
FN:364,_RNCNvMNtCs8qPDi5EjI4n_15xdl_interpreter9evaluatorNtB4_9Evaluator18evaluate_binary_opsB_0B6_
FN:367,_RNCNvMNtCs8qPDi5EjI4n_15xdl_interpreter9evaluatorNtB4_9Evaluator18evaluate_binary_opsC_0B6_
FN:371,_RNCNvMNtCs8qPDi5EjI4n_15xdl_interpreter9evaluatorNtB4_9Evaluator18evaluate_binary_opsD_0B6_
FN:385,_RNCNvMNtCs8qPDi5EjI4n_15xdl_interpreter9evaluatorNtB4_9Evaluator18evaluate_binary_opsE_0B6_
FN:386,_RNCNvMNtCs8qPDi5EjI4n_15xdl_interpreter9evaluatorNtB4_9Evaluator18evaluate_binary_opsF_0B6_
FN:387,_RNCNvMNtCs8qPDi5EjI4n_15xdl_interpreter9evaluatorNtB4_9Evaluator18evaluate_binary_opsG_0B6_
FN:390,_RNCNvMNtCs8qPDi5EjI4n_15xdl_interpreter9evaluatorNtB4_9Evaluator18evaluate_binary_opsH_0B6_
FN:392,_RNCNvMNtCs8qPDi5EjI4n_15xdl_interpreter9evaluatorNtB4_9Evaluator18evaluate_binary_opsI_0B6_
FN:395,_RNCNvMNtCs8qPDi5EjI4n_15xdl_interpreter9evaluatorNtB4_9Evaluator18evaluate_binary_opsJ_0B6_
FN:411,_RNCNvMNtCs8qPDi5EjI4n_15xdl_interpreter9evaluatorNtB4_9Evaluator18evaluate_binary_opsK_0B6_
FN:412,_RNCNvMNtCs8qPDi5EjI4n_15xdl_interpreter9evaluatorNtB4_9Evaluator18evaluate_binary_opsL_0B6_
FN:413,_RNCNvMNtCs8qPDi5EjI4n_15xdl_interpreter9evaluatorNtB4_9Evaluator18evaluate_binary_opsM_0B6_
FN:416,_RNCNvMNtCs8qPDi5EjI4n_15xdl_interpreter9evaluatorNtB4_9Evaluator18evaluate_binary_opsN_0B6_
FN:418,_RNCNvMNtCs8qPDi5EjI4n_15xdl_interpreter9evaluatorNtB4_9Evaluator18evaluate_binary_opsO_0B6_
FN:421,_RNCNvMNtCs8qPDi5EjI4n_15xdl_interpreter9evaluatorNtB4_9Evaluator18evaluate_binary_opsP_0B6_
FN:445,_RNCNvMNtCs8qPDi5EjI4n_15xdl_interpreter9evaluatorNtB4_9Evaluator18evaluate_binary_opsQ_0B6_
FN:454,_RNCNvMNtCs8qPDi5EjI4n_15xdl_interpreter9evaluatorNtB4_9Evaluator18evaluate_binary_opsR_0B6_
FN:463,_RNCNvMNtCs8qPDi5EjI4n_15xdl_interpreter9evaluatorNtB4_9Evaluator18evaluate_binary_opsS_0B6_
FN:195,_RNCNvMNtCs8qPDi5EjI4n_15xdl_interpreter9evaluatorNtB4_9Evaluator18evaluate_binary_ops_0B6_
FN:254,_RNCNvMNtCs8qPDi5EjI4n_15xdl_interpreter9evaluatorNtB4_9Evaluator18evaluate_binary_opsa_0B6_
FN:259,_RNCNvMNtCs8qPDi5EjI4n_15xdl_interpreter9evaluatorNtB4_9Evaluator18evaluate_binary_opsb_0B6_
FN:272,_RNCNvMNtCs8qPDi5EjI4n_15xdl_interpreter9evaluatorNtB4_9Evaluator18evaluate_binary_opsc_0B6_
FN:273,_RNCNvMNtCs8qPDi5EjI4n_15xdl_interpreter9evaluatorNtB4_9Evaluator18evaluate_binary_opsd_0B6_
FN:274,_RNCNvMNtCs8qPDi5EjI4n_15xdl_interpreter9evaluatorNtB4_9Evaluator18evaluate_binary_opse_0B6_
FN:277,_RNCNvMNtCs8qPDi5EjI4n_15xdl_interpreter9evaluatorNtB4_9Evaluator18evaluate_binary_opsf_0B6_
FN:279,_RNCNvMNtCs8qPDi5EjI4n_15xdl_interpreter9evaluatorNtB4_9Evaluator18evaluate_binary_opsg_0B6_
FN:282,_RNCNvMNtCs8qPDi5EjI4n_15xdl_interpreter9evaluatorNtB4_9Evaluator18evaluate_binary_opsh_0B6_
FN:287,_RNCNvMNtCs8qPDi5EjI4n_15xdl_interpreter9evaluatorNtB4_9Evaluator18evaluate_binary_opsi_0B6_
FN:297,_RNCNvMNtCs8qPDi5EjI4n_15xdl_interpreter9evaluatorNtB4_9Evaluator18evaluate_binary_opsj_0B6_
FN:305,_RNCNvMNtCs8qPDi5EjI4n_15xdl_interpreter9evaluatorNtB4_9Evaluator18evaluate_binary_opsk_0B6_
FN:306,_RNCNvMNtCs8qPDi5EjI4n_15xdl_interpreter9evaluatorNtB4_9Evaluator18evaluate_binary_opsl_0B6_
FN:307,_RNCNvMNtCs8qPDi5EjI4n_15xdl_interpreter9evaluatorNtB4_9Evaluator18evaluate_binary_opsm_0B6_
FN:308,_RNCNvMNtCs8qPDi5EjI4n_15xdl_interpreter9evaluatorNtB4_9Evaluator18evaluate_binary_opsn_0B6_
FN:311,_RNCNvMNtCs8qPDi5EjI4n_15xdl_interpreter9evaluatorNtB4_9Evaluator18evaluate_binary_opso_0B6_
FN:315,_RNCNvMNtCs8qPDi5EjI4n_15xdl_interpreter9evaluatorNtB4_9Evaluator18evaluate_binary_opsp_0B6_
FN:328,_RNCNvMNtCs8qPDi5EjI4n_15xdl_interpreter9evaluatorNtB4_9Evaluator18evaluate_binary_opsq_0B6_
FN:329,_RNCNvMNtCs8qPDi5EjI4n_15xdl_interpreter9evaluatorNtB4_9Evaluator18evaluate_binary_opsr_0B6_
FN:330,_RNCNvMNtCs8qPDi5EjI4n_15xdl_interpreter9evaluatorNtB4_9Evaluator18evaluate_binary_opss_0B6_
FN:333,_RNCNvMNtCs8qPDi5EjI4n_15xdl_interpreter9evaluatorNtB4_9Evaluator18evaluate_binary_opst_0B6_
FN:335,_RNCNvMNtCs8qPDi5EjI4n_15xdl_interpreter9evaluatorNtB4_9Evaluator18evaluate_binary_opsu_0B6_
FN:338,_RNCNvMNtCs8qPDi5EjI4n_15xdl_interpreter9evaluatorNtB4_9Evaluator18evaluate_binary_opsv_0B6_
FN:343,_RNCNvMNtCs8qPDi5EjI4n_15xdl_interpreter9evaluatorNtB4_9Evaluator18evaluate_binary_opsw_0B6_
FN:353,_RNCNvMNtCs8qPDi5EjI4n_15xdl_interpreter9evaluatorNtB4_9Evaluator18evaluate_binary_opsx_0B6_
FN:361,_RNCNvMNtCs8qPDi5EjI4n_15xdl_interpreter9evaluatorNtB4_9Evaluator18evaluate_binary_opsy_0B6_
FN:362,_RNCNvMNtCs8qPDi5EjI4n_15xdl_interpreter9evaluatorNtB4_9Evaluator18evaluate_binary_opsz_0B6_
FN:86,_RNCNvMNtCs8qPDi5EjI4n_15xdl_interpreter9evaluatorNtB4_9Evaluator8evaluate0B6_
FN:652,_RNvMNtCs8qPDi5EjI4n_15xdl_interpreter9evaluatorNtB2_9Evaluator12values_equal
FN:673,_RNvMNtCs8qPDi5EjI4n_15xdl_interpreter9evaluatorNtB2_9Evaluator14compare_values
FN:604,_RNvMNtCs8qPDi5EjI4n_15xdl_interpreter9evaluatorNtB2_9Evaluator17evaluate_unary_op
FN:697,_RNvMNtCs8qPDi5EjI4n_15xdl_interpreter9evaluatorNtB2_9Evaluator18evaluate_array_ref
FN:176,_RNvMNtCs8qPDi5EjI4n_15xdl_interpreter9evaluatorNtB2_9Evaluator18evaluate_binary_op
FN:956,_RNvMNtCs8qPDi5EjI4n_15xdl_interpreter9evaluatorNtB2_9Evaluator20handle_python_import
FN:812,_RNvMNtCs8qPDi5EjI4n_15xdl_interpreter9evaluatorNtB2_9Evaluator21evaluate_single_index
FN:719,_RNvMNtCs8qPDi5EjI4n_15xdl_interpreter9evaluatorNtB2_9Evaluator23evaluate_multidim_index
FN:15,_RNvMNtCs8qPDi5EjI4n_15xdl_interpreter9evaluatorNtB2_9Evaluator3new
FN:22,_RNvMNtCs8qPDi5EjI4n_15xdl_interpreter9evaluatorNtB2_9Evaluator8evaluate
FN:647,_RNvMNtCs8qPDi5EjI4n_15xdl_interpreter9evaluatorNtB2_9Evaluator9to_double
FN:160,_RNvMNtCs8qPDi5EjI4n_15xdl_interpreter9evaluatorNtB2_9Evaluator14call_procedure
FN:165,_RNvMNtCs8qPDi5EjI4n_15xdl_interpreter9evaluatorNtB2_9Evaluator28call_procedure_with_keywords
FN:989,_RNvXs_NtCs8qPDi5EjI4n_15xdl_interpreter9evaluatorNtB4_9EvaluatorNtNtCs2CqrNpCrSUr_4core7default7Default7default
FNDA:1,_RNvNtNtCs8qPDi5EjI4n_15xdl_interpreter9evaluator5testss_20test_system_variable
FNDA:1,_RNvNtNtCs8qPDi5EjI4n_15xdl_interpreter9evaluator5testss_20test_variable_lookup
FNDA:1,_RNvNtNtCs8qPDi5EjI4n_15xdl_interpreter9evaluator5testss_22test_binary_arithmetic
FNDA:1,_RNvNtNtCs8qPDi5EjI4n_15xdl_interpreter9evaluator5testss_23test_literal_evaluation
FNDA:0,_RINvMNtCs8qPDi5EjI4n_15xdl_interpreter9evaluatorNtB3_9Evaluator22try_numeric_conversionNCNvB2_18evaluate_binary_opsQ_0EB5_
FNDA:0,_RINvMNtCs8qPDi5EjI4n_15xdl_interpreter9evaluatorNtB3_9Evaluator22try_numeric_conversionNCNvB2_18evaluate_binary_opsR_0EB5_
FNDA:0,_RINvMNtCs8qPDi5EjI4n_15xdl_interpreter9evaluatorNtB3_9Evaluator22try_numeric_conversionNCNvB2_18evaluate_binary_opsS_0EB5_
FNDA:0,_RNCNvMNtCs8qPDi5EjI4n_15xdl_interpreter9evaluatorNtB4_9Evaluator17evaluate_unary_op0B6_
FNDA:0,_RNCNvMNtCs8qPDi5EjI4n_15xdl_interpreter9evaluatorNtB4_9Evaluator18evaluate_binary_op0B6_
FNDA:0,_RNCNvMNtCs8qPDi5EjI4n_15xdl_interpreter9evaluatorNtB4_9Evaluator18evaluate_binary_ops0_0B6_
FNDA:0,_RNCNvMNtCs8qPDi5EjI4n_15xdl_interpreter9evaluatorNtB4_9Evaluator18evaluate_binary_ops1_0B6_
FNDA:0,_RNCNvMNtCs8qPDi5EjI4n_15xdl_interpreter9evaluatorNtB4_9Evaluator18evaluate_binary_ops2_0B6_
FNDA:0,_RNCNvMNtCs8qPDi5EjI4n_15xdl_interpreter9evaluatorNtB4_9Evaluator18evaluate_binary_ops3_0B6_
FNDA:0,_RNCNvMNtCs8qPDi5EjI4n_15xdl_interpreter9evaluatorNtB4_9Evaluator18evaluate_binary_ops4_0B6_
FNDA:0,_RNCNvMNtCs8qPDi5EjI4n_15xdl_interpreter9evaluatorNtB4_9Evaluator18evaluate_binary_ops5_0B6_
FNDA:0,_RNCNvMNtCs8qPDi5EjI4n_15xdl_interpreter9evaluatorNtB4_9Evaluator18evaluate_binary_ops6_0B6_
FNDA:0,_RNCNvMNtCs8qPDi5EjI4n_15xdl_interpreter9evaluatorNtB4_9Evaluator18evaluate_binary_ops7_0B6_
FNDA:0,_RNCNvMNtCs8qPDi5EjI4n_15xdl_interpreter9evaluatorNtB4_9Evaluator18evaluate_binary_ops8_0B6_
FNDA:0,_RNCNvMNtCs8qPDi5EjI4n_15xdl_interpreter9evaluatorNtB4_9Evaluator18evaluate_binary_ops9_0B6_
FNDA:0,_RNCNvMNtCs8qPDi5EjI4n_15xdl_interpreter9evaluatorNtB4_9Evaluator18evaluate_binary_opsA_0B6_
FNDA:0,_RNCNvMNtCs8qPDi5EjI4n_15xdl_interpreter9evaluatorNtB4_9Evaluator18evaluate_binary_opsB_0B6_
FNDA:0,_RNCNvMNtCs8qPDi5EjI4n_15xdl_interpreter9evaluatorNtB4_9Evaluator18evaluate_binary_opsC_0B6_
FNDA:0,_RNCNvMNtCs8qPDi5EjI4n_15xdl_interpreter9evaluatorNtB4_9Evaluator18evaluate_binary_opsD_0B6_
FNDA:0,_RNCNvMNtCs8qPDi5EjI4n_15xdl_interpreter9evaluatorNtB4_9Evaluator18evaluate_binary_opsE_0B6_
FNDA:0,_RNCNvMNtCs8qPDi5EjI4n_15xdl_interpreter9evaluatorNtB4_9Evaluator18evaluate_binary_opsF_0B6_
FNDA:0,_RNCNvMNtCs8qPDi5EjI4n_15xdl_interpreter9evaluatorNtB4_9Evaluator18evaluate_binary_opsG_0B6_
FNDA:0,_RNCNvMNtCs8qPDi5EjI4n_15xdl_interpreter9evaluatorNtB4_9Evaluator18evaluate_binary_opsH_0B6_
FNDA:0,_RNCNvMNtCs8qPDi5EjI4n_15xdl_interpreter9evaluatorNtB4_9Evaluator18evaluate_binary_opsI_0B6_
FNDA:0,_RNCNvMNtCs8qPDi5EjI4n_15xdl_interpreter9evaluatorNtB4_9Evaluator18evaluate_binary_opsJ_0B6_
FNDA:0,_RNCNvMNtCs8qPDi5EjI4n_15xdl_interpreter9evaluatorNtB4_9Evaluator18evaluate_binary_opsK_0B6_
FNDA:0,_RNCNvMNtCs8qPDi5EjI4n_15xdl_interpreter9evaluatorNtB4_9Evaluator18evaluate_binary_opsL_0B6_
FNDA:0,_RNCNvMNtCs8qPDi5EjI4n_15xdl_interpreter9evaluatorNtB4_9Evaluator18evaluate_binary_opsM_0B6_
FNDA:0,_RNCNvMNtCs8qPDi5EjI4n_15xdl_interpreter9evaluatorNtB4_9Evaluator18evaluate_binary_opsN_0B6_
FNDA:0,_RNCNvMNtCs8qPDi5EjI4n_15xdl_interpreter9evaluatorNtB4_9Evaluator18evaluate_binary_opsO_0B6_
FNDA:0,_RNCNvMNtCs8qPDi5EjI4n_15xdl_interpreter9evaluatorNtB4_9Evaluator18evaluate_binary_opsP_0B6_
FNDA:0,_RNCNvMNtCs8qPDi5EjI4n_15xdl_interpreter9evaluatorNtB4_9Evaluator18evaluate_binary_opsQ_0B6_
FNDA:0,_RNCNvMNtCs8qPDi5EjI4n_15xdl_interpreter9evaluatorNtB4_9Evaluator18evaluate_binary_opsR_0B6_
FNDA:0,_RNCNvMNtCs8qPDi5EjI4n_15xdl_interpreter9evaluatorNtB4_9Evaluator18evaluate_binary_opsS_0B6_
FNDA:0,_RNCNvMNtCs8qPDi5EjI4n_15xdl_interpreter9evaluatorNtB4_9Evaluator18evaluate_binary_ops_0B6_
FNDA:0,_RNCNvMNtCs8qPDi5EjI4n_15xdl_interpreter9evaluatorNtB4_9Evaluator18evaluate_binary_opsa_0B6_
FNDA:0,_RNCNvMNtCs8qPDi5EjI4n_15xdl_interpreter9evaluatorNtB4_9Evaluator18evaluate_binary_opsb_0B6_
FNDA:0,_RNCNvMNtCs8qPDi5EjI4n_15xdl_interpreter9evaluatorNtB4_9Evaluator18evaluate_binary_opsc_0B6_
FNDA:0,_RNCNvMNtCs8qPDi5EjI4n_15xdl_interpreter9evaluatorNtB4_9Evaluator18evaluate_binary_opsd_0B6_
FNDA:0,_RNCNvMNtCs8qPDi5EjI4n_15xdl_interpreter9evaluatorNtB4_9Evaluator18evaluate_binary_opse_0B6_
FNDA:0,_RNCNvMNtCs8qPDi5EjI4n_15xdl_interpreter9evaluatorNtB4_9Evaluator18evaluate_binary_opsf_0B6_
FNDA:0,_RNCNvMNtCs8qPDi5EjI4n_15xdl_interpreter9evaluatorNtB4_9Evaluator18evaluate_binary_opsg_0B6_
FNDA:0,_RNCNvMNtCs8qPDi5EjI4n_15xdl_interpreter9evaluatorNtB4_9Evaluator18evaluate_binary_opsh_0B6_
FNDA:0,_RNCNvMNtCs8qPDi5EjI4n_15xdl_interpreter9evaluatorNtB4_9Evaluator18evaluate_binary_opsi_0B6_
FNDA:0,_RNCNvMNtCs8qPDi5EjI4n_15xdl_interpreter9evaluatorNtB4_9Evaluator18evaluate_binary_opsj_0B6_
FNDA:0,_RNCNvMNtCs8qPDi5EjI4n_15xdl_interpreter9evaluatorNtB4_9Evaluator18evaluate_binary_opsk_0B6_
FNDA:0,_RNCNvMNtCs8qPDi5EjI4n_15xdl_interpreter9evaluatorNtB4_9Evaluator18evaluate_binary_opsl_0B6_
FNDA:0,_RNCNvMNtCs8qPDi5EjI4n_15xdl_interpreter9evaluatorNtB4_9Evaluator18evaluate_binary_opsm_0B6_
FNDA:0,_RNCNvMNtCs8qPDi5EjI4n_15xdl_interpreter9evaluatorNtB4_9Evaluator18evaluate_binary_opsn_0B6_
FNDA:0,_RNCNvMNtCs8qPDi5EjI4n_15xdl_interpreter9evaluatorNtB4_9Evaluator18evaluate_binary_opso_0B6_
FNDA:0,_RNCNvMNtCs8qPDi5EjI4n_15xdl_interpreter9evaluatorNtB4_9Evaluator18evaluate_binary_opsp_0B6_
FNDA:0,_RNCNvMNtCs8qPDi5EjI4n_15xdl_interpreter9evaluatorNtB4_9Evaluator18evaluate_binary_opsq_0B6_
FNDA:0,_RNCNvMNtCs8qPDi5EjI4n_15xdl_interpreter9evaluatorNtB4_9Evaluator18evaluate_binary_opsr_0B6_
FNDA:0,_RNCNvMNtCs8qPDi5EjI4n_15xdl_interpreter9evaluatorNtB4_9Evaluator18evaluate_binary_opss_0B6_
FNDA:0,_RNCNvMNtCs8qPDi5EjI4n_15xdl_interpreter9evaluatorNtB4_9Evaluator18evaluate_binary_opst_0B6_
FNDA:0,_RNCNvMNtCs8qPDi5EjI4n_15xdl_interpreter9evaluatorNtB4_9Evaluator18evaluate_binary_opsu_0B6_
FNDA:0,_RNCNvMNtCs8qPDi5EjI4n_15xdl_interpreter9evaluatorNtB4_9Evaluator18evaluate_binary_opsv_0B6_
FNDA:0,_RNCNvMNtCs8qPDi5EjI4n_15xdl_interpreter9evaluatorNtB4_9Evaluator18evaluate_binary_opsw_0B6_
FNDA:0,_RNCNvMNtCs8qPDi5EjI4n_15xdl_interpreter9evaluatorNtB4_9Evaluator18evaluate_binary_opsx_0B6_
FNDA:0,_RNCNvMNtCs8qPDi5EjI4n_15xdl_interpreter9evaluatorNtB4_9Evaluator18evaluate_binary_opsy_0B6_
FNDA:0,_RNCNvMNtCs8qPDi5EjI4n_15xdl_interpreter9evaluatorNtB4_9Evaluator18evaluate_binary_opsz_0B6_
FNDA:0,_RNCNvMNtCs8qPDi5EjI4n_15xdl_interpreter9evaluatorNtB4_9Evaluator8evaluate0B6_
FNDA:0,_RNvMNtCs8qPDi5EjI4n_15xdl_interpreter9evaluatorNtB2_9Evaluator12values_equal
FNDA:0,_RNvMNtCs8qPDi5EjI4n_15xdl_interpreter9evaluatorNtB2_9Evaluator14compare_values
FNDA:0,_RNvMNtCs8qPDi5EjI4n_15xdl_interpreter9evaluatorNtB2_9Evaluator17evaluate_unary_op
FNDA:0,_RNvMNtCs8qPDi5EjI4n_15xdl_interpreter9evaluatorNtB2_9Evaluator18evaluate_array_ref
FNDA:1,_RNvMNtCs8qPDi5EjI4n_15xdl_interpreter9evaluatorNtB2_9Evaluator18evaluate_binary_op
FNDA:0,_RNvMNtCs8qPDi5EjI4n_15xdl_interpreter9evaluatorNtB2_9Evaluator20handle_python_import
FNDA:0,_RNvMNtCs8qPDi5EjI4n_15xdl_interpreter9evaluatorNtB2_9Evaluator21evaluate_single_index
FNDA:0,_RNvMNtCs8qPDi5EjI4n_15xdl_interpreter9evaluatorNtB2_9Evaluator23evaluate_multidim_index
FNDA:4,_RNvMNtCs8qPDi5EjI4n_15xdl_interpreter9evaluatorNtB2_9Evaluator3new
FNDA:6,_RNvMNtCs8qPDi5EjI4n_15xdl_interpreter9evaluatorNtB2_9Evaluator8evaluate
FNDA:0,_RNvMNtCs8qPDi5EjI4n_15xdl_interpreter9evaluatorNtB2_9Evaluator9to_double
FNDA:0,_RNvMNtCs8qPDi5EjI4n_15xdl_interpreter9evaluatorNtB2_9Evaluator14call_procedure
FNDA:0,_RNvMNtCs8qPDi5EjI4n_15xdl_interpreter9evaluatorNtB2_9Evaluator28call_procedure_with_keywords
FNDA:0,_RNvXs_NtCs8qPDi5EjI4n_15xdl_interpreter9evaluatorNtB4_9EvaluatorNtNtCs2CqrNpCrSUr_4core7default7Default7default
FNF:78
FNH:7
DA:15,4
DA:16,4
DA:17,4
DA:18,4
DA:19,4
DA:22,6
DA:23,6
DA:24,3
DA:26,1
DA:28,1
DA:31,1
DA:33,1
DA:34,1
DA:35,1
DA:38,0
DA:39,0
DA:40,0
DA:44,0
DA:45,0
DA:46,0
DA:50,0
DA:52,0
DA:53,0
DA:54,0
DA:55,0
DA:58,0
DA:59,0
DA:60,0
DA:64,0
DA:65,0
DA:66,0
DA:67,0
DA:68,0
DA:69,0
DA:73,0
DA:74,0
DA:77,0
DA:79,0
DA:80,0
DA:81,0
DA:82,0
DA:86,0
DA:88,0
DA:90,0
DA:91,0
DA:93,0
DA:94,0
DA:95,0
DA:96,0
DA:97,0
DA:98,0
DA:99,0
DA:100,0
DA:101,0
DA:102,0
DA:103,0
DA:106,0
DA:107,0
DA:108,0
DA:109,0
DA:112,0
DA:113,0
DA:114,0
DA:116,0
DA:120,0
DA:121,0
DA:122,0
DA:125,0
DA:126,0
DA:128,0
DA:129,0
DA:130,0
DA:134,0
DA:135,0
DA:136,0
DA:140,0
DA:141,0
DA:142,0
DA:143,0
DA:144,0
DA:147,0
DA:149,0
DA:152,0
DA:153,0
DA:154,0
DA:155,0
DA:157,6
DA:160,0
DA:161,0
DA:162,0
DA:165,0
DA:166,0
DA:167,0
DA:168,0
DA:169,0
DA:170,0
DA:171,0
DA:172,0
DA:173,0
DA:176,1
DA:177,1
DA:178,1
DA:179,1
DA:180,1
DA:181,1
DA:186,1
DA:187,0
DA:188,0
DA:189,0
DA:190,0
DA:191,0
DA:192,0
DA:193,0
DA:194,0
DA:195,0
DA:196,0
DA:197,0
DA:198,0
DA:199,0
DA:200,0
DA:201,0
DA:202,0
DA:203,0
DA:204,0
DA:205,0
DA:206,0
DA:207,0
DA:209,0
DA:210,0
DA:211,0
DA:212,0
DA:213,0
DA:214,0
DA:216,0
DA:218,0
DA:219,0
DA:220,0
DA:221,0
DA:222,0
DA:223,0
DA:224,0
DA:225,0
DA:227,0
DA:229,0
DA:230,0
DA:231,0
DA:232,0
DA:233,0
DA:234,0
DA:235,0
DA:236,0
DA:237,0
DA:238,0
DA:239,0
DA:240,0
DA:241,0
DA:242,0
DA:243,0
DA:244,0
DA:245,0
DA:246,0
DA:247,0
DA:248,0
DA:249,0
DA:250,0
DA:251,0
DA:252,0
DA:253,0
DA:254,0
DA:255,0
DA:256,0
DA:257,0
DA:258,0
DA:259,0
DA:260,0
DA:262,0
DA:263,0
DA:264,0
DA:267,0
DA:269,0
DA:270,0
DA:271,0
DA:272,0
DA:273,0
DA:274,0
DA:275,0
DA:276,0
DA:277,0
DA:278,0
DA:279,0
DA:280,0
DA:281,0
DA:282,0
DA:283,0
DA:285,0
DA:286,0
DA:287,0
DA:288,0
DA:289,0
DA:291,0
DA:293,0
DA:294,0
DA:295,0
DA:296,0
DA:297,0
DA:298,0
DA:299,0
DA:301,0
DA:303,0
DA:304,0
DA:305,0
DA:306,0
DA:307,0
DA:308,0
DA:309,0
DA:310,0
DA:311,0
DA:312,0
DA:313,0
DA:314,0
DA:315,0
DA:316,0
DA:318,0
DA:319,0
DA:320,0
DA:323,0
DA:325,0
DA:326,0
DA:327,0
DA:328,0
DA:329,0
DA:330,0
DA:331,0
DA:332,0
DA:333,0
DA:334,0
DA:335,0
DA:336,0
DA:337,0
DA:338,0
DA:339,0
DA:341,0
DA:342,0
DA:343,0
DA:344,0
DA:345,0
DA:347,0
DA:349,0
DA:350,0
DA:351,0
DA:352,0
DA:353,0
DA:354,0
DA:355,0
DA:357,0
DA:359,0
DA:360,0
DA:361,0
DA:362,0
DA:363,0
DA:364,0
DA:365,0
DA:366,0
DA:367,0
DA:368,0
DA:369,0
DA:370,0
DA:371,0
DA:372,0
DA:374,0
DA:375,0
DA:376,0
DA:379,0
DA:382,0
DA:383,0
DA:384,0
DA:385,0
DA:386,0
DA:387,0
DA:388,0
DA:389,0
DA:390,0
DA:391,0
DA:392,0
DA:393,0
DA:394,0
DA:395,0
DA:396,0
DA:398,0
DA:399,0
DA:400,0
DA:403,0
DA:404,0
DA:405,0
DA:406,0
DA:408,0
DA:409,0
DA:410,0
DA:411,0
DA:412,0
DA:413,0
DA:414,0
DA:415,0
DA:416,0
DA:417,0
DA:418,0
DA:419,0
DA:420,0
DA:421,0
DA:422,0
DA:424,0
DA:425,0
DA:426,0
DA:429,0
DA:430,0
DA:431,0
DA:432,0
DA:434,1
DA:437,1
DA:438,1
DA:439,1
DA:440,0
DA:441,0
DA:442,0
DA:443,0
DA:444,0
DA:445,0
DA:448,0
DA:449,0
DA:450,0
DA:451,0
DA:452,0
DA:453,0
DA:454,0
DA:457,0
DA:458,0
DA:459,0
DA:460,0
DA:461,0
DA:462,0
DA:463,0
DA:466,0
DA:467,0
DA:468,0
DA:469,0
DA:471,0
DA:474,0
DA:475,0
DA:476,0
DA:478,0
DA:481,0
DA:482,0
DA:483,0
DA:485,0
DA:488,0
DA:489,0
DA:490,0
DA:492,0
DA:496,0
DA:497,0
DA:498,0
DA:499,0
DA:501,0
DA:507,0
DA:508,0
DA:509,0
DA:512,0
DA:513,0
DA:514,0
DA:515,0
DA:517,0
DA:520,0
DA:521,0
DA:522,0
DA:524,0
DA:527,0
DA:528,0
DA:529,0
DA:531,0
DA:534,0
DA:535,0
DA:536,0
DA:538,0
DA:542,0
DA:543,0
DA:544,0
DA:545,0
DA:547,0
DA:553,0
DA:554,0
DA:556,0
DA:558,0
DA:559,0
DA:561,0
DA:563,0
DA:564,0
DA:566,0
DA:568,0
DA:569,0
DA:571,0
DA:573,0
DA:574,0
DA:576,0
DA:578,0
DA:579,0
DA:581,0
DA:586,0
DA:587,0
DA:588,0
DA:591,0
DA:592,0
DA:593,0
DA:596,0
DA:597,0
DA:598,0
DA:599,0
DA:601,1
DA:604,0
DA:608,0
DA:609,0
DA:610,0
DA:611,0
DA:612,0
DA:613,0
DA:614,0
DA:615,0
DA:616,0
DA:619,0
DA:620,0
DA:623,0
DA:624,0
DA:625,0
DA:626,0
DA:627,0
DA:629,0
DA:632,0
DA:633,0
DA:634,0
DA:635,0
DA:636,0
DA:637,0
DA:638,0
DA:639,0
DA:641,0
DA:642,0
DA:643,0
DA:644,0
DA:647,0
DA:648,0
DA:649,0
DA:652,0
DA:655,0
DA:656,0
DA:657,0
DA:658,0
DA:659,0
DA:660,0
DA:663,0
DA:664,0
DA:666,0
DA:670,0
DA:673,0
DA:676,0
DA:677,0
DA:678,0
DA:679,0
DA:681,0
DA:682,0
DA:684,0
DA:687,0
DA:688,0
DA:689,0
DA:690,0
DA:691,0
DA:694,0
DA:697,0
DA:698,0
DA:699,0
DA:700,0
DA:701,0
DA:702,0
DA:704,0
DA:705,0
DA:706,0
DA:709,0
DA:711,0
DA:712,0
DA:715,0
DA:716,0
DA:719,0
DA:720,0
DA:721,0
DA:722,0
DA:723,0
DA:724,0
DA:726,0
DA:727,0
DA:728,0
DA:730,0
DA:731,0
DA:732,0
DA:733,0
DA:734,0
DA:735,0
DA:738,0
DA:739,0
DA:740,0
DA:745,0
DA:747,0
DA:748,0
DA:749,0
DA:750,0
DA:753,0
DA:754,0
DA:755,0
DA:759,0
DA:760,0
DA:761,0
DA:762,0
DA:765,0
DA:766,0
DA:767,0
DA:772,0
DA:773,0
DA:775,0
DA:776,0
DA:777,0
DA:778,0
DA:779,0
DA:780,0
DA:782,0
DA:783,0
DA:784,0
DA:785,0
DA:786,0
DA:787,0
DA:790,0
DA:792,0
DA:793,0
DA:794,0
DA:795,0
DA:796,0
DA:797,0
DA:798,0
DA:800,0
DA:801,0
DA:804,0
DA:805,0
DA:806,0
DA:808,0
DA:809,0
DA:812,0
DA:813,0
DA:814,0
DA:815,0
DA:816,0
DA:817,0
DA:819,0
DA:820,0
DA:821,0
DA:822,0
DA:823,0
DA:826,0
DA:827,0
DA:828,0
DA:829,0
DA:830,0
DA:831,0
DA:832,0
DA:833,0
DA:834,0
DA:835,0
DA:836,0
DA:838,0
DA:841,0
DA:842,0
DA:843,0
DA:844,0
DA:845,0
DA:846,0
DA:847,0
DA:849,0
DA:852,0
DA:853,0
DA:854,0
DA:857,0
DA:859,0
DA:860,0
DA:862,0
DA:863,0
DA:864,0
DA:868,0
DA:869,0
DA:871,0
DA:872,0
DA:875,0
DA:876,0
DA:877,0
DA:878,0
DA:879,0
DA:880,0
DA:881,0
DA:882,0
DA:883,0
DA:884,0
DA:885,0
DA:887,0
DA:890,0
DA:891,0
DA:892,0
DA:893,0
DA:894,0
DA:895,0
DA:896,0
DA:898,0
DA:901,0
DA:903,0
DA:904,0
DA:905,0
DA:907,0
DA:910,0
DA:911,0
DA:912,0
DA:913,0
DA:915,0
DA:918,0
DA:919,0
DA:920,0
DA:922,0
DA:925,0
DA:926,0
DA:927,0
DA:928,0
DA:929,0
DA:931,0
DA:932,0
DA:933,0
DA:934,0
DA:935,0
DA:938,0
DA:939,0
DA:940,0
DA:941,0
DA:942,0
DA:943,0
DA:945,0
DA:950,0
DA:953,0
DA:956,0
DA:957,0
DA:958,0
DA:959,0
DA:960,0
DA:961,0
DA:962,0
DA:963,0
DA:964,0
DA:965,0
DA:967,0
DA:968,0
DA:970,0
DA:971,0
DA:973,0
DA:974,0
DA:975,0
DA:981,0
DA:982,0
DA:983,0
DA:984,0
DA:985,0
DA:989,0
DA:990,0
DA:991,0
DA:999,1
DA:1000,1
DA:1001,1
DA:1003,1
DA:1004,1
DA:1005,1
DA:1006,1
DA:1008,1
DA:1009,1
DA:1010,1
DA:1013,1
DA:1014,1
DA:1015,1
DA:1017,1
DA:1018,1
DA:1019,1
DA:1020,1
DA:1021,1
DA:1022,1
DA:1023,1
DA:1024,1
DA:1025,1
DA:1026,1
DA:1027,1
DA:1028,1
DA:1030,1
DA:1031,1
DA:1032,1
DA:1035,1
DA:1036,1
DA:1037,1
DA:1039,1
DA:1041,1
DA:1042,1
DA:1043,1
DA:1044,1
DA:1046,1
DA:1047,1
DA:1048,1
DA:1051,1
DA:1052,1
DA:1053,1
DA:1055,1
DA:1056,1
DA:1057,1
DA:1058,1
DA:1060,1
DA:1061,1
DA:1062,1
DA:1063,0
DA:1065,1
BRF:0
BRH:0
LF:783
LH:77
end_of_record
SF:/Users/ravindraboddipalli/sources/xdl/xdl-interpreter/src/lib.rs
FN:36,_RNvMCs8qPDi5EjI4n_15xdl_interpreterNtB2_11Interpreter11with_output
FN:286,_RNvMCs8qPDi5EjI4n_15xdl_interpreterNtB2_11Interpreter12format_value
FN:74,_RNvMCs8qPDi5EjI4n_15xdl_interpreterNtB2_11Interpreter13get_variables
FN:44,_RNvMCs8qPDi5EjI4n_15xdl_interpreterNtB2_11Interpreter15execute_program
FN:291,_RNvMCs8qPDi5EjI4n_15xdl_interpreterNtB2_11Interpreter16execute_for_loop
FN:78,_RNvMCs8qPDi5EjI4n_15xdl_interpreterNtB2_11Interpreter17execute_statement
FN:348,_RNvMCs8qPDi5EjI4n_15xdl_interpreterNtB2_11Interpreter18execute_while_loop
FN:69,_RNvMCs8qPDi5EjI4n_15xdl_interpreterNtB2_11Interpreter19evaluate_expression
FN:368,_RNvMCs8qPDi5EjI4n_15xdl_interpreterNtB2_11Interpreter19execute_repeat_loop
FN:397,_RNvMCs8qPDi5EjI4n_15xdl_interpreterNtB2_11Interpreter20execute_foreach_loop
FN:465,_RNvMCs8qPDi5EjI4n_15xdl_interpreterNtB2_11Interpreter20modify_array_element
FN:438,_RNvMCs8qPDi5EjI4n_15xdl_interpreterNtB2_11Interpreter24execute_array_assignment
FN:27,_RNvMCs8qPDi5EjI4n_15xdl_interpreterNtB2_11Interpreter3new
FN:653,_RNvMCs8qPDi5EjI4n_15xdl_interpreterNtB2_11Interpreter7context
FN:659,_RNvXs_Cs8qPDi5EjI4n_15xdl_interpreterNtB4_11InterpreterNtNtCs2CqrNpCrSUr_4core7default7Default7default
FNDA:0,_RNvMCs8qPDi5EjI4n_15xdl_interpreterNtB2_11Interpreter11with_output
FNDA:0,_RNvMCs8qPDi5EjI4n_15xdl_interpreterNtB2_11Interpreter12format_value
FNDA:0,_RNvMCs8qPDi5EjI4n_15xdl_interpreterNtB2_11Interpreter13get_variables
FNDA:0,_RNvMCs8qPDi5EjI4n_15xdl_interpreterNtB2_11Interpreter15execute_program
FNDA:0,_RNvMCs8qPDi5EjI4n_15xdl_interpreterNtB2_11Interpreter16execute_for_loop
FNDA:0,_RNvMCs8qPDi5EjI4n_15xdl_interpreterNtB2_11Interpreter17execute_statement
FNDA:0,_RNvMCs8qPDi5EjI4n_15xdl_interpreterNtB2_11Interpreter18execute_while_loop
FNDA:0,_RNvMCs8qPDi5EjI4n_15xdl_interpreterNtB2_11Interpreter19evaluate_expression
FNDA:0,_RNvMCs8qPDi5EjI4n_15xdl_interpreterNtB2_11Interpreter19execute_repeat_loop
FNDA:0,_RNvMCs8qPDi5EjI4n_15xdl_interpreterNtB2_11Interpreter20execute_foreach_loop
FNDA:0,_RNvMCs8qPDi5EjI4n_15xdl_interpreterNtB2_11Interpreter20modify_array_element
FNDA:0,_RNvMCs8qPDi5EjI4n_15xdl_interpreterNtB2_11Interpreter24execute_array_assignment
FNDA:0,_RNvMCs8qPDi5EjI4n_15xdl_interpreterNtB2_11Interpreter3new
FNDA:0,_RNvMCs8qPDi5EjI4n_15xdl_interpreterNtB2_11Interpreter7context
FNDA:0,_RNvXs_Cs8qPDi5EjI4n_15xdl_interpreterNtB4_11InterpreterNtNtCs2CqrNpCrSUr_4core7default7Default7default
FNF:15
FNH:0
DA:27,0
DA:28,0
DA:29,0
DA:30,0
DA:31,0
DA:32,0
DA:33,0
DA:36,0
DA:37,0
DA:38,0
DA:39,0
DA:40,0
DA:41,0
DA:42,0
DA:44,0
DA:48,0
DA:49,0
DA:52,0
DA:53,0
DA:54,0
DA:57,0
DA:58,0
DA:59,0
DA:60,0
DA:61,0
DA:62,0
DA:64,0
DA:66,0
DA:67,0
DA:69,0
DA:70,0
DA:71,0
DA:74,0
DA:75,0
DA:76,0
DA:78,0
DA:79,0
DA:80,0
DA:81,0
DA:83,0
DA:84,0
DA:85,0
DA:86,0
DA:88,0
DA:90,0
DA:92,0
DA:93,0
DA:94,0
DA:98,0
DA:100,0
DA:104,0
DA:105,0
DA:107,0
DA:108,0
DA:109,0
DA:112,0
DA:116,0
DA:117,0
DA:118,0
DA:122,0
DA:123,0
DA:125,0
DA:126,0
DA:127,0
DA:128,0
DA:132,0
DA:133,0
DA:134,0
DA:135,0
DA:136,0
DA:137,0
DA:139,0
DA:140,0
DA:141,0
DA:143,0
DA:144,0
DA:148,0
DA:149,0
DA:150,0
DA:151,0
DA:154,0
DA:155,0
DA:156,0
DA:160,0
DA:161,0
DA:162,0
DA:163,0
DA:164,0
DA:165,0
DA:168,0
DA:169,0
DA:170,0
DA:171,0
DA:172,0
DA:173,0
DA:174,0
DA:175,0
DA:176,0
DA:177,0
DA:185,0
DA:186,0
DA:187,0
DA:188,0
DA:192,0
DA:193,0
DA:194,0
DA:195,0
DA:196,0
DA:197,0
DA:198,0
DA:202,0
DA:203,0
DA:204,0
DA:205,0
DA:209,0
DA:210,0
DA:211,0
DA:212,0
DA:213,0
DA:214,0
DA:215,0
DA:219,0
DA:220,0
DA:221,0
DA:222,0
DA:223,0
DA:225,0
DA:228,0
DA:229,0
DA:230,0
DA:233,0
DA:235,0
DA:236,0
DA:237,0
DA:239,0
DA:240,0
DA:241,0
DA:243,0
DA:244,0
DA:248,0
DA:249,0
DA:252,0
DA:253,0
DA:256,0
DA:257,0
DA:258,0
DA:259,0
DA:261,0
DA:263,0
DA:265,0
DA:267,0
DA:268,0
DA:269,0
DA:271,0
DA:273,0
DA:278,0
DA:281,0
DA:283,0
DA:286,0
DA:287,0
DA:288,0
DA:291,0
DA:292,0
DA:293,0
DA:294,0
DA:295,0
DA:296,0
DA:297,0
DA:298,0
DA:299,0
DA:300,0
DA:301,0
DA:302,0
DA:304,0
DA:307,0
DA:308,0
DA:309,0
DA:311,0
DA:312,0
DA:313,0
DA:315,0
DA:316,0
DA:319,0
DA:320,0
DA:321,0
DA:322,0
DA:323,0
DA:324,0
DA:325,0
DA:326,0
DA:328,0
DA:329,0
DA:332,0
DA:333,0
DA:334,0
DA:335,0
DA:336,0
DA:337,0
DA:341,0
DA:344,0
DA:345,0
DA:348,0
DA:350,0
DA:351,0
DA:352,0
DA:353,0
DA:355,0
DA:356,0
DA:357,0
DA:358,0
DA:359,0
DA:360,0
DA:364,0
DA:365,0
DA:368,0
DA:371,0
DA:372,0
DA:373,0
DA:374,0
DA:377,0
DA:378,0
DA:379,0
DA:380,0
DA:381,0
DA:383,0
DA:388,0
DA:389,0
DA:390,0
DA:391,0
DA:393,0
DA:394,0
DA:397,0
DA:398,0
DA:399,0
DA:400,0
DA:401,0
DA:402,0
DA:403,0
DA:404,0
DA:406,0
DA:407,0
DA:408,0
DA:410,0
DA:411,0
DA:414,0
DA:415,0
DA:416,0
DA:417,0
DA:420,0
DA:421,0
DA:422,0
DA:423,0
DA:424,0
DA:425,0
DA:429,0
DA:431,0
DA:432,0
DA:433,0
DA:435,0
DA:438,0
DA:439,0
DA:440,0
DA:441,0
DA:442,0
DA:443,0
DA:447,0
DA:449,0
DA:452,0
DA:455,0
DA:456,0
DA:458,0
DA:459,0
DA:460,0
DA:462,0
DA:465,0
DA:466,0
DA:467,0
DA:468,0
DA:469,0
DA:470,0
DA:473,0
DA:474,0
DA:475,0
DA:476,0
DA:477,0
DA:480,0
DA:482,0
DA:483,0
DA:485,0
DA:486,0
DA:487,0
DA:488,0
DA:491,0
DA:492,0
DA:493,0
DA:494,0
DA:498,0
DA:499,0
DA:500,0
DA:501,0
DA:504,0
DA:505,0
DA:506,0
DA:507,0
DA:511,0
DA:512,0
DA:514,0
DA:515,0
DA:516,0
DA:517,0
DA:518,0
DA:519,0
DA:521,0
DA:522,0
DA:523,0
DA:524,0
DA:525,0
DA:528,0
DA:529,0
DA:531,0
DA:532,0
DA:533,0
DA:534,0
DA:537,0
DA:538,0
DA:539,0
DA:540,0
DA:541,0
DA:542,0
DA:543,0
DA:544,0
DA:545,0
DA:546,0
DA:547,0
DA:549,0
DA:552,0
DA:553,0
DA:554,0
DA:555,0
DA:556,0
DA:557,0
DA:558,0
DA:561,0
DA:562,0
DA:564,0
DA:565,0
DA:566,0
DA:569,0
DA:570,0
DA:571,0
DA:575,0
DA:576,0
DA:577,0
DA:578,0
DA:580,0
DA:581,0
DA:584,0
DA:585,0
DA:586,0
DA:587,0
DA:588,0
DA:589,0
DA:590,0
DA:591,0
DA:592,0
DA:593,0
DA:594,0
DA:596,0
DA:599,0
DA:600,0
DA:601,0
DA:602,0
DA:603,0
DA:604,0
DA:605,0
DA:608,0
DA:609,0
DA:611,0
DA:612,0
DA:613,0
DA:614,0
DA:615,0
DA:616,0
DA:619,0
DA:620,0
DA:621,0
DA:622,0
DA:624,0
DA:625,0
DA:626,0
DA:628,0
DA:631,0
DA:632,0
DA:633,0
DA:634,0
DA:635,0
DA:636,0
DA:638,0
DA:639,0
DA:641,0
DA:642,0
DA:643,0
DA:645,0
DA:646,0
DA:647,0
DA:650,0
DA:653,0
DA:654,0
DA:655,0
DA:659,0
DA:660,0
DA:661,0
BRF:0
BRH:0
LF:412
LH:0
end_of_record
SF:/Users/ravindraboddipalli/sources/xdl/xdl-interpreter/src/runtime.rs
FN:8,_RNvMNtCs8qPDi5EjI4n_15xdl_interpreter7runtimeNtB2_7Runtime3new
FN:16,_RNvXs_NtCs8qPDi5EjI4n_15xdl_interpreter7runtimeNtB4_7RuntimeNtNtCs2CqrNpCrSUr_4core7default7Default7default
FNDA:0,_RNvMNtCs8qPDi5EjI4n_15xdl_interpreter7runtimeNtB2_7Runtime3new
FNDA:0,_RNvXs_NtCs8qPDi5EjI4n_15xdl_interpreter7runtimeNtB4_7RuntimeNtNtCs2CqrNpCrSUr_4core7default7Default7default
FNF:2
FNH:0
DA:8,0
DA:9,0
DA:10,0
DA:11,0
DA:12,0
DA:16,0
DA:17,0
DA:18,0
BRF:0
BRH:0
LF:8
LH:0
end_of_record
SF:/Users/ravindraboddipalli/sources/xdl/xdl-matlab/src/function_map.rs
FN:89,_RNvNtCs6eC1fZgMygC_10xdl_matlab12function_map16get_xdl_function
FN:106,_RNvNtNtCs6eC1fZgMygC_10xdl_matlab12function_map5testss_21test_function_mapping
FN:7,_RNCNvNtCs6eC1fZgMygC_10xdl_matlab12function_map19MATLAB_FUNCTION_MAP0B5_
FN:94,_RNvNtCs6eC1fZgMygC_10xdl_matlab12function_map22needs_special_handling
FNDA:10,_RNvNtCs6eC1fZgMygC_10xdl_matlab12function_map16get_xdl_function
FNDA:1,_RNvNtNtCs6eC1fZgMygC_10xdl_matlab12function_map5testss_21test_function_mapping
FNDA:1,_RNCNvNtCs6eC1fZgMygC_10xdl_matlab12function_map19MATLAB_FUNCTION_MAP0B5_
FNDA:0,_RNvNtCs6eC1fZgMygC_10xdl_matlab12function_map22needs_special_handling
FNF:4
FNH:3
DA:7,1
DA:8,1
DA:11,1
DA:12,1
DA:13,1
DA:14,1
DA:15,1
DA:18,1
DA:19,1
DA:20,1
DA:23,1
DA:24,1
DA:25,1
DA:26,1
DA:27,1
DA:28,1
DA:29,1
DA:30,1
DA:31,1
DA:32,1
DA:33,1
DA:34,1
DA:35,1
DA:36,1
DA:37,1
DA:38,1
DA:41,1
DA:42,1
DA:43,1
DA:44,1
DA:45,1
DA:46,1
DA:47,1
DA:50,1
DA:51,1
DA:52,1
DA:55,1
DA:56,1
DA:57,1
DA:58,1
DA:59,1
DA:60,1
DA:61,1
DA:62,1
DA:65,1
DA:66,1
DA:67,1
DA:68,1
DA:71,1
DA:72,1
DA:73,1
DA:76,1
DA:77,1
DA:80,1
DA:81,1
DA:82,1
DA:83,1
DA:85,1
DA:86,1
DA:89,10
DA:90,10
DA:91,10
DA:94,0
DA:95,0
DA:96,0
DA:97,0
DA:99,0
DA:106,1
DA:107,1
DA:108,1
DA:109,1
DA:110,1
DA:111,1
BRF:0
BRH:0
LF:73
LH:68
end_of_record
SF:/Users/ravindraboddipalli/sources/xdl/xdl-matlab/src/lexer.rs
FN:509,_RNvNtNtCs6eC1fZgMygC_10xdl_matlab5lexer5testss_12test_comment
FN:493,_RNvNtNtCs6eC1fZgMygC_10xdl_matlab5lexer5testss_18test_simple_tokens
FN:500,_RNvNtNtCs6eC1fZgMygC_10xdl_matlab5lexer5testss_21test_element_wise_ops
FN:133,_RNvMNtCs6eC1fZgMygC_10xdl_matlab5lexerNtB2_5Lexer10next_token
FN:295,_RNvMNtCs6eC1fZgMygC_10xdl_matlab5lexerNtB2_5Lexer11read_number
FN:343,_RNvMNtCs6eC1fZgMygC_10xdl_matlab5lexerNtB2_5Lexer11read_string
FN:412,_RNvMNtCs6eC1fZgMygC_10xdl_matlab5lexerNtB2_5Lexer12current_char
FN:278,_RNvMNtCs6eC1fZgMygC_10xdl_matlab5lexerNtB2_5Lexer12read_comment
FN:373,_RNvMNtCs6eC1fZgMygC_10xdl_matlab5lexerNtB2_5Lexer15read_identifier
FN:468,_RNvMNtCs6eC1fZgMygC_10xdl_matlab5lexerNtB2_5Lexer19is_after_identifier
FN:439,_RNvMNtCs6eC1fZgMygC_10xdl_matlab5lexerNtB2_5Lexer30skip_whitespace_except_newline
FN:96,_RNvMNtCs6eC1fZgMygC_10xdl_matlab5lexerNtB2_5Lexer3new
FN:428,_RNvMNtCs6eC1fZgMygC_10xdl_matlab5lexerNtB2_5Lexer7advance
FN:105,_RNvMNtCs6eC1fZgMygC_10xdl_matlab5lexerNtB2_5Lexer8tokenize
FN:435,_RNvMNtCs6eC1fZgMygC_10xdl_matlab5lexerNtB2_5Lexer9is_at_end
FN:420,_RNvMNtCs6eC1fZgMygC_10xdl_matlab5lexerNtB2_5Lexer9peek_char
FN:333,_RNCNvMNtCs6eC1fZgMygC_10xdl_matlab5lexerNtB4_5Lexer11read_number0B6_
FN:514,_RNCNvNtNtCs6eC1fZgMygC_10xdl_matlab5lexer5testss_12test_comment0B7_
FNDA:1,_RNvNtNtCs6eC1fZgMygC_10xdl_matlab5lexer5testss_12test_comment
FNDA:1,_RNvNtNtCs6eC1fZgMygC_10xdl_matlab5lexer5testss_18test_simple_tokens
FNDA:1,_RNvNtNtCs6eC1fZgMygC_10xdl_matlab5lexer5testss_21test_element_wise_ops
FNDA:40,_RNvMNtCs6eC1fZgMygC_10xdl_matlab5lexerNtB2_5Lexer10next_token
FNDA:7,_RNvMNtCs6eC1fZgMygC_10xdl_matlab5lexerNtB2_5Lexer11read_number
FNDA:0,_RNvMNtCs6eC1fZgMygC_10xdl_matlab5lexerNtB2_5Lexer11read_string
FNDA:266,_RNvMNtCs6eC1fZgMygC_10xdl_matlab5lexerNtB2_5Lexer12current_char
FNDA:1,_RNvMNtCs6eC1fZgMygC_10xdl_matlab5lexerNtB2_5Lexer12read_comment
FNDA:13,_RNvMNtCs6eC1fZgMygC_10xdl_matlab5lexerNtB2_5Lexer15read_identifier
FNDA:0,_RNvMNtCs6eC1fZgMygC_10xdl_matlab5lexerNtB2_5Lexer19is_after_identifier
FNDA:40,_RNvMNtCs6eC1fZgMygC_10xdl_matlab5lexerNtB2_5Lexer30skip_whitespace_except_newline
FNDA:6,_RNvMNtCs6eC1fZgMygC_10xdl_matlab5lexerNtB2_5Lexer3new
FNDA:91,_RNvMNtCs6eC1fZgMygC_10xdl_matlab5lexerNtB2_5Lexer7advance
FNDA:6,_RNvMNtCs6eC1fZgMygC_10xdl_matlab5lexerNtB2_5Lexer8tokenize
FNDA:586,_RNvMNtCs6eC1fZgMygC_10xdl_matlab5lexerNtB2_5Lexer9is_at_end
FNDA:6,_RNvMNtCs6eC1fZgMygC_10xdl_matlab5lexerNtB2_5Lexer9peek_char
FNDA:0,_RNCNvMNtCs6eC1fZgMygC_10xdl_matlab5lexerNtB4_5Lexer11read_number0B6_
FNDA:4,_RNCNvNtNtCs6eC1fZgMygC_10xdl_matlab5lexer5testss_12test_comment0B7_
FNF:18
FNH:15
DA:96,6
DA:97,6
DA:98,6
DA:99,6
DA:100,6
DA:101,6
DA:102,6
DA:103,6
DA:105,6
DA:106,6
DA:108,46
DA:109,40
DA:111,40
DA:112,0
DA:113,40
DA:115,40
DA:118,40
DA:119,40
DA:120,40
DA:123,6
DA:124,6
DA:125,6
DA:126,6
DA:127,6
DA:128,6
DA:130,6
DA:131,6
DA:133,40
DA:134,40
DA:135,40
DA:137,40
DA:140,40
DA:141,1
DA:142,39
DA:145,39
DA:146,1
DA:147,1
DA:148,0
DA:149,1
DA:150,1
DA:151,1
DA:152,1
DA:153,1
DA:154,1
DA:155,1
DA:156,1
DA:157,1
DA:158,38
DA:161,38
DA:162,7
DA:163,31
DA:166,31
DA:167,0
DA:168,31
DA:171,31
DA:172,13
DA:173,18
DA:176,18
DA:178,18
DA:179,1
DA:180,0
DA:181,0
DA:182,0
DA:183,0
DA:184,0
DA:185,2
DA:186,2
DA:187,0
DA:188,0
DA:189,0
DA:190,0
DA:191,1
DA:192,3
DA:193,0
DA:194,0
DA:196,0
DA:197,0
DA:198,0
DA:200,0
DA:204,6
DA:205,0
DA:206,0
DA:208,6
DA:212,0
DA:213,0
DA:214,0
DA:216,0
DA:220,0
DA:221,0
DA:222,0
DA:224,0
DA:228,0
DA:229,0
DA:230,0
DA:232,0
DA:236,0
DA:237,0
DA:238,0
DA:240,0
DA:243,3
DA:245,1
DA:246,1
DA:249,1
DA:250,1
DA:253,1
DA:254,1
DA:257,0
DA:258,0
DA:260,0
DA:263,0
DA:264,0
DA:265,0
DA:266,0
DA:270,18
DA:271,18
DA:272,18
DA:273,18
DA:274,18
DA:275,18
DA:276,40
DA:278,1
DA:279,1
DA:280,1
DA:282,19
DA:283,18
DA:284,18
DA:285,18
DA:287,1
DA:288,1
DA:289,1
DA:290,1
DA:291,1
DA:292,1
DA:293,1
DA:295,7
DA:296,7
DA:299,16
DA:300,9
DA:301,9
DA:302,9
DA:305,7
DA:306,0
DA:307,0
DA:309,0
DA:310,0
DA:311,0
DA:312,0
DA:313,7
DA:316,7
DA:317,0
DA:318,0
DA:320,0
DA:321,0
DA:322,0
DA:323,0
DA:325,0
DA:326,0
DA:327,0
DA:328,0
DA:329,7
DA:331,7
DA:332,7
DA:333,7
DA:335,7
DA:336,7
DA:337,7
DA:338,7
DA:339,7
DA:340,7
DA:341,7
DA:343,0
DA:344,0
DA:345,0
DA:347,0
DA:348,0
DA:349,0
DA:350,0
DA:351,0
DA:352,0
DA:353,0
DA:354,0
DA:355,0
DA:356,0
DA:359,0
DA:360,0
DA:361,0
DA:363,0
DA:365,0
DA:366,0
DA:367,0
DA:368,0
DA:369,0
DA:370,0
DA:371,0
DA:373,13
DA:374,13
DA:376,32
DA:377,31
DA:378,19
DA:379,19
DA:380,19
DA:381,19
DA:383,13
DA:384,13
DA:385,13
DA:386,13
DA:387,13
DA:388,13
DA:389,13
DA:390,13
DA:391,13
DA:392,13
DA:393,13
DA:394,13
DA:395,13
DA:396,13
DA:397,13
DA:398,13
DA:399,13
DA:400,13
DA:401,13
DA:404,13
DA:405,13
DA:406,13
DA:407,13
DA:408,13
DA:409,13
DA:410,13
DA:412,266
DA:413,266
DA:414,0
DA:416,266
DA:418,266
DA:420,6
DA:421,6
DA:422,0
DA:424,6
DA:426,6
DA:428,91
DA:429,91
DA:430,91
DA:431,91
DA:432,91
DA:433,91
DA:435,586
DA:436,586
DA:437,586
DA:439,40
DA:440,62
DA:441,62
DA:442,62
DA:443,22
DA:444,40
DA:445,3
DA:446,0
DA:447,0
DA:450,0
DA:451,0
DA:452,0
DA:454,0
DA:455,0
DA:456,0
DA:457,0
DA:458,0
DA:459,0
DA:460,0
DA:461,0
DA:463,40
DA:466,40
DA:468,0
DA:471,0
DA:472,0
DA:473,0
DA:475,0
DA:476,0
DA:477,0
DA:478,0
DA:479,0
DA:480,0
DA:481,0
DA:482,0
DA:484,0
DA:485,0
DA:493,1
DA:494,1
DA:495,1
DA:496,1
DA:497,1
DA:500,1
DA:501,1
DA:502,1
DA:503,1
DA:504,1
DA:505,1
DA:506,1
DA:509,1
DA:510,1
DA:511,1
DA:512,1
DA:513,1
DA:514,4
DA:515,1
DA:516,1
BRF:0
BRH:0
LF:305
LH:192
end_of_record
SF:/Users/ravindraboddipalli/sources/xdl/xdl-matlab/src/lib.rs
FN:28,_RNvNtCs6eC1fZgMygC_10xdl_matlab5testss_25test_simple_transpilation
FN:18,_RNCNvCs6eC1fZgMygC_10xdl_matlab16load_matlab_file0B3_
FN:16,_RNvCs6eC1fZgMygC_10xdl_matlab16load_matlab_file
FNDA:1,_RNvNtCs6eC1fZgMygC_10xdl_matlab5testss_25test_simple_transpilation
FNDA:0,_RNCNvCs6eC1fZgMygC_10xdl_matlab16load_matlab_file0B3_
FNDA:0,_RNvCs6eC1fZgMygC_10xdl_matlab16load_matlab_file
FNF:3
FNH:1
DA:16,0
DA:17,0
DA:18,0
DA:20,0
DA:21,0
DA:28,1
DA:29,1
DA:30,1
DA:31,1
DA:32,1
BRF:0
BRH:0
LF:11
LH:5
end_of_record
SF:/Users/ravindraboddipalli/sources/xdl/xdl-matlab/src/transpiler.rs
FN:1190,_RNvNtNtCs6eC1fZgMygC_10xdl_matlab10transpiler5testss_21test_function_mapping
FN:1183,_RNvNtNtCs6eC1fZgMygC_10xdl_matlab10transpiler5testss_22test_simple_assignment
FN:1117,_RNCNCNvMNtCs6eC1fZgMygC_10xdl_matlab10transpilerNtB6_10Transpiler22parse_range_expression00B8_
FN:1115,_RNCNvMNtCs6eC1fZgMygC_10xdl_matlab10transpilerNtB4_10Transpiler22parse_range_expression0B6_
FN:1070,_RNvMNtCs6eC1fZgMygC_10xdl_matlab10transpilerNtB2_10Transpiler13convert_range
FN:32,_RNvMNtCs6eC1fZgMygC_10xdl_matlab10transpilerNtB2_10Transpiler13current_token
FN:190,_RNvMNtCs6eC1fZgMygC_10xdl_matlab10transpilerNtB2_10Transpiler18transpile_for_loop
FN:94,_RNvMNtCs6eC1fZgMygC_10xdl_matlab10transpilerNtB2_10Transpiler18transpile_function
FN:289,_RNvMNtCs6eC1fZgMygC_10xdl_matlab10transpilerNtB2_10Transpiler19transpile_statement
FN:231,_RNvMNtCs6eC1fZgMygC_10xdl_matlab10transpilerNtB2_10Transpiler20transpile_while_loop
FN:1094,_RNvMNtCs6eC1fZgMygC_10xdl_matlab10transpilerNtB2_10Transpiler22parse_range_expression
FN:253,_RNvMNtCs6eC1fZgMygC_10xdl_matlab10transpilerNtB2_10Transpiler22transpile_if_statement
FN:569,_RNvMNtCs6eC1fZgMygC_10xdl_matlab10transpilerNtB2_10Transpiler32collect_expression_until_newline
FN:20,_RNvMNtCs6eC1fZgMygC_10xdl_matlab10transpilerNtB2_10Transpiler3new
FN:47,_RNvMNtCs6eC1fZgMygC_10xdl_matlab10transpilerNtB2_10Transpiler4emit
FN:41,_RNvMNtCs6eC1fZgMygC_10xdl_matlab10transpilerNtB2_10Transpiler7advance
FN:51,_RNvMNtCs6eC1fZgMygC_10xdl_matlab10transpilerNtB2_10Transpiler9emit_line
FN:57,_RNvMNtCs6eC1fZgMygC_10xdl_matlab10transpilerNtB2_10Transpiler9transpile
FN:1170,_RNvNtCs6eC1fZgMygC_10xdl_matlab10transpiler23transpile_matlab_to_xdl
FNDA:1,_RNvNtNtCs6eC1fZgMygC_10xdl_matlab10transpiler5testss_21test_function_mapping
FNDA:1,_RNvNtNtCs6eC1fZgMygC_10xdl_matlab10transpiler5testss_22test_simple_assignment
FNDA:0,_RNCNCNvMNtCs6eC1fZgMygC_10xdl_matlab10transpilerNtB6_10Transpiler22parse_range_expression00B8_
FNDA:0,_RNCNvMNtCs6eC1fZgMygC_10xdl_matlab10transpilerNtB4_10Transpiler22parse_range_expression0B6_
FNDA:0,_RNvMNtCs6eC1fZgMygC_10xdl_matlab10transpilerNtB2_10Transpiler13convert_range
FNDA:54,_RNvMNtCs6eC1fZgMygC_10xdl_matlab10transpilerNtB2_10Transpiler13current_token
FNDA:0,_RNvMNtCs6eC1fZgMygC_10xdl_matlab10transpilerNtB2_10Transpiler18transpile_for_loop
FNDA:0,_RNvMNtCs6eC1fZgMygC_10xdl_matlab10transpilerNtB2_10Transpiler18transpile_function
FNDA:3,_RNvMNtCs6eC1fZgMygC_10xdl_matlab10transpilerNtB2_10Transpiler19transpile_statement
FNDA:0,_RNvMNtCs6eC1fZgMygC_10xdl_matlab10transpilerNtB2_10Transpiler20transpile_while_loop
FNDA:0,_RNvMNtCs6eC1fZgMygC_10xdl_matlab10transpilerNtB2_10Transpiler22parse_range_expression
FNDA:0,_RNvMNtCs6eC1fZgMygC_10xdl_matlab10transpilerNtB2_10Transpiler22transpile_if_statement
FNDA:3,_RNvMNtCs6eC1fZgMygC_10xdl_matlab10transpilerNtB2_10Transpiler32collect_expression_until_newline
FNDA:3,_RNvMNtCs6eC1fZgMygC_10xdl_matlab10transpilerNtB2_10Transpiler3new
FNDA:9,_RNvMNtCs6eC1fZgMygC_10xdl_matlab10transpilerNtB2_10Transpiler4emit
FNDA:28,_RNvMNtCs6eC1fZgMygC_10xdl_matlab10transpilerNtB2_10Transpiler7advance
FNDA:3,_RNvMNtCs6eC1fZgMygC_10xdl_matlab10transpilerNtB2_10Transpiler9emit_line
FNDA:3,_RNvMNtCs6eC1fZgMygC_10xdl_matlab10transpilerNtB2_10Transpiler9transpile
FNDA:3,_RNvNtCs6eC1fZgMygC_10xdl_matlab10transpiler23transpile_matlab_to_xdl
FNF:19
FNH:11
DA:20,3
DA:21,3
DA:22,3
DA:23,3
DA:24,3
DA:25,3
DA:26,3
DA:27,3
DA:28,3
DA:29,3
DA:30,3
DA:32,54
DA:33,54
DA:34,54
DA:35,54
DA:36,54
DA:37,54
DA:38,54
DA:39,54
DA:41,28
DA:42,28
DA:43,28
DA:44,28
DA:45,28
DA:47,9
DA:48,9
DA:49,9
DA:51,3
DA:52,3
DA:53,3
DA:54,3
DA:55,3
DA:57,3
DA:58,6
DA:59,6
DA:61,6
DA:62,0
DA:63,0
DA:64,0
DA:65,0
DA:67,0
DA:70,0
DA:73,0
DA:76,0
DA:79,3
DA:81,0
DA:82,0
DA:83,0
DA:84,3
DA:85,0
DA:86,0
DA:87,0
DA:91,3
DA:92,3
DA:94,0
DA:95,0
DA:99,0
DA:102,0
DA:103,0
DA:104,0
DA:105,0
DA:106,0
DA:107,0
DA:108,0
DA:109,0
DA:110,0
DA:111,0
DA:113,0
DA:116,0
DA:117,0
DA:118,0
DA:119,0
DA:121,0
DA:122,0
DA:123,0
DA:124,0
DA:125,0
DA:126,0
DA:127,0
DA:128,0
DA:129,0
DA:132,0
DA:133,0
DA:135,0
DA:137,0
DA:140,0
DA:141,0
DA:142,0
DA:143,0
DA:144,0
DA:145,0
DA:146,0
DA:147,0
DA:148,0
DA:149,0
DA:150,0
DA:152,0
DA:153,0
DA:156,0
DA:157,0
DA:160,0
DA:161,0
DA:162,0
DA:164,0
DA:165,0
DA:166,0
DA:167,0
DA:169,0
DA:170,0
DA:171,0
DA:172,0
DA:175,0
DA:176,0
DA:177,0
DA:180,0
DA:181,0
DA:183,0
DA:184,0
DA:185,0
DA:187,0
DA:188,0
DA:190,0
DA:191,0
DA:194,0
DA:195,0
DA:197,0
DA:199,0
DA:202,0
DA:203,0
DA:204,0
DA:205,0
DA:208,0
DA:211,0
DA:213,0
DA:214,0
DA:217,0
DA:218,0
DA:221,0
DA:222,0
DA:224,0
DA:225,0
DA:226,0
DA:228,0
DA:229,0
DA:231,0
DA:232,0
DA:234,0
DA:236,0
DA:237,0
DA:239,0
DA:240,0
DA:243,0
DA:244,0
DA:246,0
DA:247,0
DA:248,0
DA:250,0
DA:251,0
DA:253,0
DA:254,0
DA:256,0
DA:258,0
DA:259,0
DA:261,0
DA:262,0
DA:265,0
DA:268,0
DA:269,0
DA:270,0
DA:271,0
DA:272,0
DA:274,0
DA:275,0
DA:277,0
DA:279,0
DA:280,0
DA:282,0
DA:283,0
DA:284,0
DA:286,0
DA:287,0
DA:289,3
DA:291,3
DA:292,3
DA:293,3
DA:295,0
DA:297,0
DA:298,0
DA:300,0
DA:301,0
DA:302,0
DA:303,0
DA:304,0
DA:306,0
DA:307,0
DA:308,0
DA:309,0
DA:310,0
DA:312,3
DA:314,0
DA:315,0
DA:316,0
DA:318,0
DA:319,0
DA:320,0
DA:321,0
DA:322,0
DA:324,0
DA:325,0
DA:326,0
DA:327,0
DA:328,0
DA:330,3
DA:332,0
DA:333,0
DA:334,0
DA:337,0
DA:338,0
DA:339,0
DA:340,0
DA:341,0
DA:342,0
DA:343,0
DA:344,0
DA:345,0
DA:346,0
DA:347,0
DA:348,0
DA:349,0
DA:350,0
DA:351,0
DA:353,0
DA:354,0
DA:356,0
DA:357,0
DA:358,0
DA:359,0
DA:360,0
DA:362,0
DA:363,0
DA:364,0
DA:366,0
DA:367,0
DA:368,0
DA:369,0
DA:370,0
DA:371,0
DA:372,0
DA:373,0
DA:375,3
DA:377,0
DA:380,3
DA:381,3
DA:382,3
DA:383,3
DA:385,3
DA:386,3
DA:387,3
DA:388,2
DA:390,0
DA:392,0
DA:393,0
DA:394,0
DA:397,0
DA:398,0
DA:400,0
DA:401,0
DA:402,0
DA:403,0
DA:404,0
DA:406,0
DA:407,0
DA:408,0
DA:410,0
DA:411,0
DA:412,0
DA:413,0
DA:414,0
DA:415,2
DA:416,1
DA:417,0
DA:418,0
DA:419,0
DA:422,3
DA:423,3
DA:425,0
DA:426,0
DA:427,0
DA:428,0
DA:430,0
DA:431,0
DA:432,0
DA:433,0
DA:434,0
DA:436,0
DA:437,0
DA:438,0
DA:439,0
DA:440,0
DA:441,0
DA:442,0
DA:443,0
DA:444,3
DA:446,3
DA:447,3
DA:449,0
DA:452,0
DA:453,0
DA:456,0
DA:457,0
DA:458,0
DA:459,0
DA:460,0
DA:461,0
DA:462,0
DA:463,0
DA:466,0
DA:467,0
DA:468,0
DA:471,0
DA:472,0
DA:473,0
DA:474,0
DA:475,0
DA:476,0
DA:477,0
DA:480,0
DA:481,0
DA:482,0
DA:485,0
DA:486,0
DA:488,0
DA:491,0
DA:492,0
DA:493,0
DA:494,0
DA:495,0
DA:496,0
DA:497,0
DA:498,0
DA:499,0
DA:500,0
DA:501,0
DA:502,0
DA:504,0
DA:505,0
DA:507,0
DA:508,0
DA:509,0
DA:510,0
DA:511,0
DA:513,0
DA:514,0
DA:515,0
DA:516,0
DA:518,3
DA:520,0
DA:521,0
DA:522,0
DA:523,0
DA:525,0
DA:526,0
DA:527,0
DA:528,0
DA:529,0
DA:531,0
DA:532,0
DA:533,0
DA:534,0
DA:535,0
DA:536,0
DA:537,0
DA:538,0
DA:540,3
DA:542,0
DA:543,0
DA:544,0
DA:546,0
DA:547,0
DA:548,0
DA:549,0
DA:550,0
DA:552,0
DA:553,0
DA:554,0
DA:555,0
DA:556,0
DA:558,3
DA:560,0
DA:562,3
DA:563,3
DA:564,3
DA:565,3
DA:566,3
DA:567,3
DA:569,3
DA:570,3
DA:573,20
DA:574,17
DA:575,20
DA:578,3
DA:579,17
DA:581,17
DA:582,6
DA:584,6
DA:585,6
DA:586,6
DA:587,6
DA:591,6
DA:592,2
DA:594,4
DA:599,6
DA:600,6
DA:601,6
DA:602,2
DA:605,6
DA:606,0
DA:607,0
DA:610,0
DA:611,0
DA:612,0
DA:615,0
DA:616,0
DA:617,0
DA:618,0
DA:619,0
DA:622,0
DA:623,0
DA:624,0
DA:626,0
DA:627,0
DA:628,0
DA:629,0
DA:631,0
DA:632,0
DA:633,0
DA:634,0
DA:635,0
DA:636,0
DA:640,0
DA:641,0
DA:642,0
DA:643,0
DA:644,0
DA:645,0
DA:646,0
DA:647,0
DA:648,0
DA:651,0
DA:652,0
DA:653,0
DA:655,0
DA:656,0
DA:658,0
DA:660,0
DA:661,0
DA:662,0
DA:663,0
DA:664,0
DA:665,0
DA:666,0
DA:667,0
DA:668,0
DA:669,0
DA:670,0
DA:671,0
DA:672,0
DA:673,0
DA:674,0
DA:675,0
DA:676,0
DA:679,0
DA:680,0
DA:681,0
DA:683,0
DA:684,0
DA:685,0
DA:688,0
DA:689,0
DA:690,0
DA:691,0
DA:692,0
DA:693,0
DA:694,6
DA:697,6
DA:698,0
DA:699,0
DA:701,0
DA:702,0
DA:705,0
DA:706,0
DA:707,0
DA:709,0
DA:710,0
DA:712,0
DA:714,0
DA:715,0
DA:716,0
DA:717,0
DA:718,0
DA:719,0
DA:720,0
DA:721,0
DA:722,0
DA:723,0
DA:724,0
DA:725,0
DA:726,0
DA:727,0
DA:729,0
DA:730,0
DA:731,0
DA:732,0
DA:733,0
DA:735,0
DA:737,0
DA:739,0
DA:742,0
DA:743,0
DA:744,0
DA:746,0
DA:747,0
DA:748,0
DA:754,0
DA:755,0
DA:756,0
DA:758,0
DA:759,0
DA:760,0
DA:761,0
DA:762,0
DA:763,0
DA:764,0
DA:765,0
DA:766,0
DA:767,0
DA:768,0
DA:769,0
DA:770,0
DA:771,0
DA:772,0
DA:773,6
DA:776,6
DA:777,0
DA:778,0
DA:780,0
DA:781,0
DA:784,0
DA:785,0
DA:786,0
DA:788,0
DA:789,0
DA:791,0
DA:793,0
DA:794,0
DA:795,0
DA:796,0
DA:797,0
DA:798,0
DA:799,0
DA:800,0
DA:801,0
DA:802,0
DA:803,0
DA:804,0
DA:805,0
DA:806,0
DA:808,0
DA:809,0
DA:810,0
DA:811,0
DA:812,0
DA:814,0
DA:816,0
DA:818,0
DA:821,0
DA:822,0
DA:823,0
DA:825,0
DA:826,0
DA:827,0
DA:830,0
DA:831,0
DA:832,0
DA:833,0
DA:834,0
DA:835,0
DA:836,0
DA:837,0
DA:838,0
DA:839,0
DA:840,0
DA:841,0
DA:842,0
DA:843,0
DA:844,0
DA:845,0
DA:846,6
DA:849,6
DA:851,0
DA:852,0
DA:853,0
DA:854,0
DA:855,0
DA:856,0
DA:857,0
DA:858,0
DA:859,0
DA:860,0
DA:862,0
DA:864,0
DA:865,0
DA:868,0
DA:869,0
DA:871,0
DA:872,0
DA:873,0
DA:874,0
DA:875,0
DA:876,0
DA:877,0
DA:878,0
DA:879,0
DA:882,0
DA:884,0
DA:885,0
DA:886,0
DA:887,0
DA:889,0
DA:890,0
DA:891,0
DA:892,0
DA:893,0
DA:896,0
DA:897,0
DA:898,0
DA:899,0
DA:901,0
DA:902,0
DA:903,0
DA:904,0
DA:906,0
DA:907,0
DA:909,0
DA:910,0
DA:911,0
DA:912,0
DA:913,0
DA:914,0
DA:916,0
DA:917,0
DA:918,0
DA:919,0
DA:920,0
DA:921,0
DA:923,0
DA:926,0
DA:927,0
DA:928,0
DA:929,0
DA:930,6
DA:932,6
DA:934,0
DA:935,0
DA:936,0
DA:937,0
DA:940,0
DA:941,0
DA:944,0
DA:945,0
DA:947,0
DA:948,0
DA:949,0
DA:950,0
DA:951,0
DA:953,0
DA:954,0
DA:955,0
DA:956,0
DA:957,0
DA:959,0
DA:962,0
DA:963,0
DA:964,0
DA:965,0
DA:966,6
DA:967,6
DA:968,6
DA:970,3
DA:971,0
DA:975,2
DA:976,2
DA:979,2
DA:980,2
DA:981,2
DA:983,8
DA:984,6
DA:985,0
DA:986,2
DA:987,0
DA:988,4
DA:990,6
DA:991,4
DA:992,4
DA:993,6
DA:996,2
DA:997,0
DA:998,0
DA:999,0
DA:1000,0
DA:1001,2
DA:1002,2
DA:1003,2
DA:1004,2
DA:1005,2
DA:1006,2
DA:1007,2
DA:1011,0
DA:1012,0
DA:1015,0
DA:1016,0
DA:1017,0
DA:1018,0
DA:1020,0
DA:1022,0
DA:1023,0
DA:1024,0
DA:1025,0
DA:1026,0
DA:1027,0
DA:1028,0
DA:1032,0
DA:1033,0
DA:1034,0
DA:1035,0
DA:1036,0
DA:1038,0
DA:1039,0
DA:1040,0
DA:1041,0
DA:1042,0
DA:1044,0
DA:1045,0
DA:1046,0
DA:1049,0
DA:1050,0
DA:1052,6
DA:1055,15
DA:1056,15
DA:1060,0
DA:1061,3
DA:1063,3
DA:1064,3
DA:1065,3
DA:1067,3
DA:1068,3
DA:1070,0
DA:1074,0
DA:1076,0
DA:1079,0
DA:1080,0
DA:1081,0
DA:1085,0
DA:1086,0
DA:1087,0
DA:1088,0
DA:1090,0
DA:1092,0
DA:1094,0
DA:1097,0
DA:1098,0
DA:1100,0
DA:1101,0
DA:1102,0
DA:1103,0
DA:1104,0
DA:1105,0
DA:1106,0
DA:1108,0
DA:1109,0
DA:1110,0
DA:1113,0
DA:1114,0
DA:1115,0
DA:1116,0
DA:1117,0
DA:1118,0
DA:1119,0
DA:1121,0
DA:1122,0
DA:1123,0
DA:1124,0
DA:1126,0
DA:1128,0
DA:1129,0
DA:1131,0
DA:1132,0
DA:1133,0
DA:1134,0
DA:1135,0
DA:1138,0
DA:1141,0
DA:1142,0
DA:1145,0
DA:1146,0
DA:1148,0
DA:1153,0
DA:1154,0
DA:1155,0
DA:1156,0
DA:1157,0
DA:1163,0
DA:1166,0
DA:1170,3
DA:1171,3
DA:1172,3
DA:1174,3
DA:1175,3
DA:1176,3
DA:1183,1
DA:1184,1
DA:1185,1
DA:1186,1
DA:1187,1
DA:1190,1
DA:1191,1
DA:1192,1
DA:1193,1
DA:1194,1
BRF:0
BRH:0
LF:831
LH:150
end_of_record
SF:/Users/ravindraboddipalli/sources/xdl/xdl-parser/src/ast.rs
FN:305,_RNvMNtCslwE2O2taVR6_10xdl_parser3astNtB2_8Location3new
FN:321,_RNvMNtCslwE2O2taVR6_10xdl_parser3astNtB2_8Location7unknown
FN:313,_RNvMNtCslwE2O2taVR6_10xdl_parser3astNtB2_8Location9with_file
FN:381,_RNvMs0_NtCslwE2O2taVR6_10xdl_parser3astNtB5_10Expression11is_constant
FN:386,_RNvMs0_NtCslwE2O2taVR6_10xdl_parser3astNtB5_10Expression11is_variable
FN:357,_RNvMs0_NtCslwE2O2taVR6_10xdl_parser3astNtB5_10Expression8location
FN:332,_RNvMs_NtCslwE2O2taVR6_10xdl_parser3astNtB4_9Statement8location
FN:321,_RNvMNtCslMvNkBGonrW_10xdl_parser3astNtB2_8Location7unknown
FN:305,_RNvMNtCslMvNkBGonrW_10xdl_parser3astNtB2_8Location3new
FN:313,_RNvMNtCslMvNkBGonrW_10xdl_parser3astNtB2_8Location9with_file
FN:381,_RNvMs0_NtCslMvNkBGonrW_10xdl_parser3astNtB5_10Expression11is_constant
FN:386,_RNvMs0_NtCslMvNkBGonrW_10xdl_parser3astNtB5_10Expression11is_variable
FN:357,_RNvMs0_NtCslMvNkBGonrW_10xdl_parser3astNtB5_10Expression8location
FN:332,_RNvMs_NtCslMvNkBGonrW_10xdl_parser3astNtB4_9Statement8location
FNDA:0,_RNvMNtCslwE2O2taVR6_10xdl_parser3astNtB2_8Location3new
FNDA:6,_RNvMNtCslwE2O2taVR6_10xdl_parser3astNtB2_8Location7unknown
FNDA:0,_RNvMNtCslwE2O2taVR6_10xdl_parser3astNtB2_8Location9with_file
FNDA:0,_RNvMs0_NtCslwE2O2taVR6_10xdl_parser3astNtB5_10Expression11is_constant
FNDA:0,_RNvMs0_NtCslwE2O2taVR6_10xdl_parser3astNtB5_10Expression11is_variable
FNDA:0,_RNvMs0_NtCslwE2O2taVR6_10xdl_parser3astNtB5_10Expression8location
FNDA:0,_RNvMs_NtCslwE2O2taVR6_10xdl_parser3astNtB4_9Statement8location
FNDA:35,_RNvMNtCslMvNkBGonrW_10xdl_parser3astNtB2_8Location7unknown
FNDA:0,_RNvMNtCslMvNkBGonrW_10xdl_parser3astNtB2_8Location3new
FNDA:0,_RNvMNtCslMvNkBGonrW_10xdl_parser3astNtB2_8Location9with_file
FNDA:0,_RNvMs0_NtCslMvNkBGonrW_10xdl_parser3astNtB5_10Expression11is_constant
FNDA:0,_RNvMs0_NtCslMvNkBGonrW_10xdl_parser3astNtB5_10Expression11is_variable
FNDA:0,_RNvMs0_NtCslMvNkBGonrW_10xdl_parser3astNtB5_10Expression8location
FNDA:0,_RNvMs_NtCslMvNkBGonrW_10xdl_parser3astNtB4_9Statement8location
FNF:7
FNH:1
DA:305,0
DA:306,0
DA:307,0
DA:308,0
DA:309,0
DA:310,0
DA:311,0
DA:313,0
DA:314,0
DA:315,0
DA:316,0
DA:317,0
DA:318,0
DA:319,0
DA:321,41
DA:322,41
DA:323,41
DA:324,41
DA:325,41
DA:326,41
DA:327,41
DA:332,0
DA:333,0
DA:334,0
DA:335,0
DA:336,0
DA:337,0
DA:338,0
DA:339,0
DA:340,0
DA:341,0
DA:342,0
DA:343,0
DA:344,0
DA:345,0
DA:346,0
DA:347,0
DA:348,0
DA:349,0
DA:350,0
DA:352,0
DA:357,0
DA:358,0
DA:359,0
DA:360,0
DA:361,0
DA:362,0
DA:363,0
DA:364,0
DA:365,0
DA:366,0
DA:367,0
DA:368,0
DA:369,0
DA:370,0
DA:371,0
DA:372,0
DA:373,0
DA:374,0
DA:375,0
DA:376,0
DA:378,0
DA:381,0
DA:382,0
DA:383,0
DA:386,0
DA:387,0
DA:388,0
BRF:0
BRH:0
LF:68
LH:7
end_of_record
SF:/Users/ravindraboddipalli/sources/xdl/xdl-parser/src/lexer.rs
FN:156,_RNvNtCslwE2O2taVR6_10xdl_parser5lexer11parse_float
FN:306,_RNvNtCslwE2O2taVR6_10xdl_parser5lexer11parse_token
FN:164,_RNvNtCslwE2O2taVR6_10xdl_parser5lexer12parse_number
FN:169,_RNvNtCslwE2O2taVR6_10xdl_parser5lexer12parse_string
FN:262,_RNvNtCslwE2O2taVR6_10xdl_parser5lexer13parse_comment
FN:128,_RNvNtCslwE2O2taVR6_10xdl_parser5lexer13parse_integer
FN:272,_RNvNtCslwE2O2taVR6_10xdl_parser5lexer14parse_operator
FN:290,_RNvNtCslwE2O2taVR6_10xdl_parser5lexer15parse_delimiter
FN:119,_RNvNtCslwE2O2taVR6_10xdl_parser5lexer18is_identifier_char
FN:123,_RNvNtCslwE2O2taVR6_10xdl_parser5lexer19is_identifier_start
FN:252,_RNvNtCslwE2O2taVR6_10xdl_parser5lexer21parse_system_variable
FN:133,_RNvNtCslwE2O2taVR6_10xdl_parser5lexer22parse_double_precision
FN:324,_RNvNtCslwE2O2taVR6_10xdl_parser5lexer24handle_line_continuation
FN:191,_RNvNtCslwE2O2taVR6_10xdl_parser5lexer27parse_identifier_or_keyword
FN:349,_RNvNtCslwE2O2taVR6_10xdl_parser5lexer8tokenize
FN:159,_RNCNvNtCslwE2O2taVR6_10xdl_parser5lexer11parse_float0B5_
FN:174,_RNCNvNtCslwE2O2taVR6_10xdl_parser5lexer12parse_string0B5_
FN:182,_RNCNvNtCslwE2O2taVR6_10xdl_parser5lexer12parse_strings_0B5_
FN:265,_RNCNvNtCslwE2O2taVR6_10xdl_parser5lexer13parse_comment0B5_
FN:265,_RNCNvNtCslwE2O2taVR6_10xdl_parser5lexer13parse_comments_0B5_
FN:129,_RNCNvNtCslwE2O2taVR6_10xdl_parser5lexer13parse_integer0B5_
FN:255,_RNCNvNtCslwE2O2taVR6_10xdl_parser5lexer21parse_system_variable0B5_
FN:146,_RNCNvNtCslwE2O2taVR6_10xdl_parser5lexer22parse_double_precision0B5_
FN:389,_RNvNtNtCslMvNkBGonrW_10xdl_parser5lexer5testss_20test_tokenize_simple
FN:404,_RNvNtNtCslMvNkBGonrW_10xdl_parser5lexer5testss_20test_tokenize_string
FN:419,_RNvNtNtCslMvNkBGonrW_10xdl_parser5lexer5testss_22test_tokenize_keywords
FN:436,_RNvNtNtCslMvNkBGonrW_10xdl_parser5lexer5testss_29test_tokenize_system_variable
FN:159,_RNCNvNtCslMvNkBGonrW_10xdl_parser5lexer11parse_float0B5_
FN:174,_RNCNvNtCslMvNkBGonrW_10xdl_parser5lexer12parse_string0B5_
FN:182,_RNCNvNtCslMvNkBGonrW_10xdl_parser5lexer12parse_strings_0B5_
FN:265,_RNCNvNtCslMvNkBGonrW_10xdl_parser5lexer13parse_comment0B5_
FN:265,_RNCNvNtCslMvNkBGonrW_10xdl_parser5lexer13parse_comments_0B5_
FN:129,_RNCNvNtCslMvNkBGonrW_10xdl_parser5lexer13parse_integer0B5_
FN:255,_RNCNvNtCslMvNkBGonrW_10xdl_parser5lexer21parse_system_variable0B5_
FN:146,_RNCNvNtCslMvNkBGonrW_10xdl_parser5lexer22parse_double_precision0B5_
FN:156,_RNvNtCslMvNkBGonrW_10xdl_parser5lexer11parse_float
FN:306,_RNvNtCslMvNkBGonrW_10xdl_parser5lexer11parse_token
FN:164,_RNvNtCslMvNkBGonrW_10xdl_parser5lexer12parse_number
FN:169,_RNvNtCslMvNkBGonrW_10xdl_parser5lexer12parse_string
FN:262,_RNvNtCslMvNkBGonrW_10xdl_parser5lexer13parse_comment
FN:128,_RNvNtCslMvNkBGonrW_10xdl_parser5lexer13parse_integer
FN:272,_RNvNtCslMvNkBGonrW_10xdl_parser5lexer14parse_operator
FN:290,_RNvNtCslMvNkBGonrW_10xdl_parser5lexer15parse_delimiter
FN:119,_RNvNtCslMvNkBGonrW_10xdl_parser5lexer18is_identifier_char
FN:123,_RNvNtCslMvNkBGonrW_10xdl_parser5lexer19is_identifier_start
FN:252,_RNvNtCslMvNkBGonrW_10xdl_parser5lexer21parse_system_variable
FN:133,_RNvNtCslMvNkBGonrW_10xdl_parser5lexer22parse_double_precision
FN:324,_RNvNtCslMvNkBGonrW_10xdl_parser5lexer24handle_line_continuation
FN:191,_RNvNtCslMvNkBGonrW_10xdl_parser5lexer27parse_identifier_or_keyword
FN:349,_RNvNtCslMvNkBGonrW_10xdl_parser5lexer8tokenize
FNDA:0,_RNvNtCslwE2O2taVR6_10xdl_parser5lexer11parse_float
FNDA:0,_RNvNtCslwE2O2taVR6_10xdl_parser5lexer11parse_token
FNDA:0,_RNvNtCslwE2O2taVR6_10xdl_parser5lexer12parse_number
FNDA:0,_RNvNtCslwE2O2taVR6_10xdl_parser5lexer12parse_string
FNDA:0,_RNvNtCslwE2O2taVR6_10xdl_parser5lexer13parse_comment
FNDA:0,_RNvNtCslwE2O2taVR6_10xdl_parser5lexer13parse_integer
FNDA:0,_RNvNtCslwE2O2taVR6_10xdl_parser5lexer14parse_operator
FNDA:0,_RNvNtCslwE2O2taVR6_10xdl_parser5lexer15parse_delimiter
FNDA:0,_RNvNtCslwE2O2taVR6_10xdl_parser5lexer18is_identifier_char
FNDA:0,_RNvNtCslwE2O2taVR6_10xdl_parser5lexer19is_identifier_start
FNDA:0,_RNvNtCslwE2O2taVR6_10xdl_parser5lexer21parse_system_variable
FNDA:0,_RNvNtCslwE2O2taVR6_10xdl_parser5lexer22parse_double_precision
FNDA:0,_RNvNtCslwE2O2taVR6_10xdl_parser5lexer24handle_line_continuation
FNDA:0,_RNvNtCslwE2O2taVR6_10xdl_parser5lexer27parse_identifier_or_keyword
FNDA:0,_RNvNtCslwE2O2taVR6_10xdl_parser5lexer8tokenize
FNDA:0,_RNCNvNtCslwE2O2taVR6_10xdl_parser5lexer11parse_float0B5_
FNDA:0,_RNCNvNtCslwE2O2taVR6_10xdl_parser5lexer12parse_string0B5_
FNDA:0,_RNCNvNtCslwE2O2taVR6_10xdl_parser5lexer12parse_strings_0B5_
FNDA:0,_RNCNvNtCslwE2O2taVR6_10xdl_parser5lexer13parse_comment0B5_
FNDA:0,_RNCNvNtCslwE2O2taVR6_10xdl_parser5lexer13parse_comments_0B5_
FNDA:0,_RNCNvNtCslwE2O2taVR6_10xdl_parser5lexer13parse_integer0B5_
FNDA:0,_RNCNvNtCslwE2O2taVR6_10xdl_parser5lexer21parse_system_variable0B5_
FNDA:0,_RNCNvNtCslwE2O2taVR6_10xdl_parser5lexer22parse_double_precision0B5_
FNDA:1,_RNvNtNtCslMvNkBGonrW_10xdl_parser5lexer5testss_20test_tokenize_simple
FNDA:1,_RNvNtNtCslMvNkBGonrW_10xdl_parser5lexer5testss_20test_tokenize_string
FNDA:1,_RNvNtNtCslMvNkBGonrW_10xdl_parser5lexer5testss_22test_tokenize_keywords
FNDA:1,_RNvNtNtCslMvNkBGonrW_10xdl_parser5lexer5testss_29test_tokenize_system_variable
FNDA:0,_RNCNvNtCslMvNkBGonrW_10xdl_parser5lexer11parse_float0B5_
FNDA:1,_RNCNvNtCslMvNkBGonrW_10xdl_parser5lexer12parse_string0B5_
FNDA:0,_RNCNvNtCslMvNkBGonrW_10xdl_parser5lexer12parse_strings_0B5_
FNDA:0,_RNCNvNtCslMvNkBGonrW_10xdl_parser5lexer13parse_comment0B5_
FNDA:0,_RNCNvNtCslMvNkBGonrW_10xdl_parser5lexer13parse_comments_0B5_
FNDA:14,_RNCNvNtCslMvNkBGonrW_10xdl_parser5lexer13parse_integer0B5_
FNDA:1,_RNCNvNtCslMvNkBGonrW_10xdl_parser5lexer21parse_system_variable0B5_
FNDA:0,_RNCNvNtCslMvNkBGonrW_10xdl_parser5lexer22parse_double_precision0B5_
FNDA:50,_RNvNtCslMvNkBGonrW_10xdl_parser5lexer11parse_float
FNDA:51,_RNvNtCslMvNkBGonrW_10xdl_parser5lexer11parse_token
FNDA:50,_RNvNtCslMvNkBGonrW_10xdl_parser5lexer12parse_number
FNDA:51,_RNvNtCslMvNkBGonrW_10xdl_parser5lexer12parse_string
FNDA:51,_RNvNtCslMvNkBGonrW_10xdl_parser5lexer13parse_comment
FNDA:50,_RNvNtCslMvNkBGonrW_10xdl_parser5lexer13parse_integer
FNDA:14,_RNvNtCslMvNkBGonrW_10xdl_parser5lexer14parse_operator
FNDA:4,_RNvNtCslMvNkBGonrW_10xdl_parser5lexer15parse_delimiter
FNDA:20,_RNvNtCslMvNkBGonrW_10xdl_parser5lexer18is_identifier_char
FNDA:80,_RNvNtCslMvNkBGonrW_10xdl_parser5lexer19is_identifier_start
FNDA:36,_RNvNtCslMvNkBGonrW_10xdl_parser5lexer21parse_system_variable
FNDA:50,_RNvNtCslMvNkBGonrW_10xdl_parser5lexer22parse_double_precision
FNDA:11,_RNvNtCslMvNkBGonrW_10xdl_parser5lexer24handle_line_continuation
FNDA:35,_RNvNtCslMvNkBGonrW_10xdl_parser5lexer27parse_identifier_or_keyword
FNDA:11,_RNvNtCslMvNkBGonrW_10xdl_parser5lexer8tokenize
FNF:27
FNH:22
DA:119,20
DA:120,20
DA:121,20
DA:123,80
DA:124,80
DA:125,80
DA:128,50
DA:129,50
DA:130,50
DA:133,50
DA:138,50
DA:139,50
DA:140,50
DA:141,50
DA:142,50
DA:143,50
DA:144,50
DA:145,50
DA:146,0
DA:149,0
DA:150,0
DA:151,0
DA:152,50
DA:153,50
DA:156,50
DA:157,50
DA:158,50
DA:159,0
DA:160,50
DA:161,50
DA:164,50
DA:165,50
DA:166,50
DA:169,51
DA:170,51
DA:172,51
DA:173,51
DA:174,51
DA:175,1
DA:176,1
DA:177,51
DA:180,51
DA:181,51
DA:182,51
DA:183,0
DA:184,0
DA:185,51
DA:187,51
DA:188,51
DA:191,35
DA:192,35
DA:193,35
DA:194,35
DA:195,35
DA:197,21
DA:199,21
DA:200,19
DA:201,17
DA:202,17
DA:203,16
DA:204,15
DA:205,14
DA:206,14
DA:207,14
DA:208,14
DA:209,14
DA:210,14
DA:211,14
DA:214,14
DA:215,14
DA:216,14
DA:217,14
DA:218,14
DA:221,14
DA:222,14
DA:223,14
DA:224,14
DA:225,14
DA:226,14
DA:227,14
DA:228,14
DA:229,14
DA:232,14
DA:233,14
DA:234,12
DA:235,12
DA:236,12
DA:237,12
DA:238,12
DA:239,12
DA:240,12
DA:241,12
DA:242,12
DA:245,12
DA:248,21
DA:249,35
DA:252,36
DA:253,36
DA:254,36
DA:255,36
DA:256,1
DA:257,1
DA:258,36
DA:259,36
DA:262,51
DA:263,51
DA:264,51
DA:265,51
DA:266,0
DA:267,0
DA:268,51
DA:269,51
DA:272,14
DA:273,14
DA:274,14
DA:275,14
DA:276,14
DA:277,14
DA:278,14
DA:279,14
DA:280,14
DA:281,14
DA:282,14
DA:283,14
DA:284,14
DA:285,14
DA:286,14
DA:287,14
DA:290,4
DA:291,4
DA:292,4
DA:293,4
DA:294,4
DA:295,4
DA:296,4
DA:297,4
DA:298,4
DA:299,4
DA:300,4
DA:301,4
DA:302,4
DA:303,4
DA:306,51
DA:307,51
DA:308,51
DA:309,51
DA:310,51
DA:311,51
DA:312,51
DA:313,51
DA:314,51
DA:315,51
DA:316,51
DA:317,51
DA:318,51
DA:319,51
DA:320,51
DA:324,11
DA:325,11
DA:326,11
DA:328,26
DA:329,15
DA:332,15
DA:333,0
DA:334,0
DA:335,0
DA:336,0
DA:338,15
DA:339,15
DA:340,4
DA:341,11
DA:345,11
DA:346,11
DA:349,11
DA:351,11
DA:354,11
DA:356,11
DA:357,11
DA:359,62
DA:360,51
DA:361,51
DA:363,51
DA:364,0
DA:365,51
DA:367,51
DA:371,0
DA:372,0
DA:373,0
DA:374,0
DA:380,11
DA:381,11
DA:382,11
DA:389,1
DA:390,1
DA:391,1
DA:392,1
DA:394,1
DA:395,1
DA:396,1
DA:397,1
DA:398,1
DA:401,1
DA:404,1
DA:405,1
DA:406,1
DA:407,1
DA:409,1
DA:410,1
DA:411,1
DA:412,1
DA:413,1
DA:416,1
DA:419,1
DA:420,1
DA:421,1
DA:422,1
DA:424,1
DA:425,1
DA:426,1
DA:427,1
DA:428,1
DA:429,1
DA:430,1
DA:433,1
DA:436,1
DA:437,1
DA:438,1
DA:439,1
DA:441,1
DA:443,1
BRF:0
BRH:0
LF:236
LH:215
end_of_record
SF:/Users/ravindraboddipalli/sources/xdl/xdl-parser/src/lib.rs
FN:32,_RNvNtCslMvNkBGonrW_10xdl_parser5testss_17test_simple_parse
FN:39,_RNvNtCslMvNkBGonrW_10xdl_parser5testss_21test_expression_parse
FN:22,_RNvCslMvNkBGonrW_10xdl_parser16parse_expression
FN:16,_RNvCslMvNkBGonrW_10xdl_parser9parse_xdl
FNDA:1,_RNvNtCslMvNkBGonrW_10xdl_parser5testss_17test_simple_parse
FNDA:1,_RNvNtCslMvNkBGonrW_10xdl_parser5testss_21test_expression_parse
FNDA:1,_RNvCslMvNkBGonrW_10xdl_parser16parse_expression
FNDA:1,_RNvCslMvNkBGonrW_10xdl_parser9parse_xdl
FNF:4
FNH:4
DA:16,1
DA:17,1
DA:18,1
DA:19,1
DA:22,1
DA:23,1
DA:24,1
DA:25,1
DA:32,1
DA:33,1
DA:34,1
DA:35,1
DA:36,1
DA:39,1
DA:40,1
DA:41,1
DA:42,1
DA:43,1
BRF:0
BRH:0
LF:18
LH:18
end_of_record
SF:/Users/ravindraboddipalli/sources/xdl/xdl-parser/src/parser.rs
FN:88,_RNCNvMNtCslwE2O2taVR6_10xdl_parser6parserNtB4_6Parser24parse_block_or_statement0B6_
FN:658,_RNvMNtCslwE2O2taVR6_10xdl_parser6parserNtB2_6Parser11parse_power
FN:676,_RNvMNtCslwE2O2taVR6_10xdl_parser6parserNtB2_6Parser11parse_unary
FN:710,_RNvMNtCslwE2O2taVR6_10xdl_parser6parserNtB2_6Parser13parse_postfix
FN:797,_RNvMNtCslwE2O2taVR6_10xdl_parser6parserNtB2_6Parser13parse_primary
FN:59,_RNvMNtCslwE2O2taVR6_10xdl_parser6parserNtB2_6Parser13parse_program
FN:608,_RNvMNtCslwE2O2taVR6_10xdl_parser6parserNtB2_6Parser14parse_addition
FN:558,_RNvMNtCslwE2O2taVR6_10xdl_parser6parserNtB2_6Parser14parse_equality
FN:101,_RNvMNtCslwE2O2taVR6_10xdl_parser6parserNtB2_6Parser15parse_statement
FN:582,_RNvMNtCslwE2O2taVR6_10xdl_parser6parserNtB2_6Parser16parse_comparison
FN:517,_RNvMNtCslwE2O2taVR6_10xdl_parser6parserNtB2_6Parser16parse_expression
FN:522,_RNvMNtCslwE2O2taVR6_10xdl_parser6parserNtB2_6Parser16parse_logical_or
FN:540,_RNvMNtCslwE2O2taVR6_10xdl_parser6parserNtB2_6Parser17parse_logical_and
FN:164,_RNvMNtCslwE2O2taVR6_10xdl_parser6parserNtB2_6Parser18parse_if_statement
FN:734,_RNvMNtCslwE2O2taVR6_10xdl_parser6parserNtB2_6Parser19parse_array_indices
FN:209,_RNvMNtCslwE2O2taVR6_10xdl_parser6parserNtB2_6Parser19parse_for_statement
FN:632,_RNvMNtCslwE2O2taVR6_10xdl_parser6parserNtB2_6Parser20parse_multiplication
FN:282,_RNvMNtCslwE2O2taVR6_10xdl_parser6parserNtB2_6Parser20parse_procedure_call
FN:378,_RNvMNtCslwE2O2taVR6_10xdl_parser6parserNtB2_6Parser21parse_while_statement
FN:411,_RNvMNtCslwE2O2taVR6_10xdl_parser6parserNtB2_6Parser22parse_repeat_statement
FN:428,_RNvMNtCslwE2O2taVR6_10xdl_parser6parserNtB2_6Parser22parse_return_statement
FN:322,_RNvMNtCslwE2O2taVR6_10xdl_parser6parserNtB2_6Parser23parse_foreach_statement
FN:73,_RNvMNtCslwE2O2taVR6_10xdl_parser6parserNtB2_6Parser24parse_block_or_statement
FN:479,_RNvMNtCslwE2O2taVR6_10xdl_parser6parserNtB2_6Parser25parse_function_definition
FN:444,_RNvMNtCslwE2O2taVR6_10xdl_parser6parserNtB2_6Parser26parse_procedure_definition
FN:14,_RNvMNtCslwE2O2taVR6_10xdl_parser6parserNtB2_6Parser3new
FN:19,_RNvMNtCslwE2O2taVR6_10xdl_parser6parserNtB2_6Parser4peek
FN:35,_RNvMNtCslwE2O2taVR6_10xdl_parser6parserNtB2_6Parser5check
FN:24,_RNvMNtCslwE2O2taVR6_10xdl_parser6parserNtB2_6Parser7advance
FN:40,_RNvMNtCslwE2O2taVR6_10xdl_parser6parserNtB2_6Parser7consume
FN:54,_RNvMNtCslwE2O2taVR6_10xdl_parser6parserNtB2_6Parser9is_at_end
FN:888,_RNvNtCslwE2O2taVR6_10xdl_parser6parser13parse_program
FN:893,_RNvNtCslwE2O2taVR6_10xdl_parser6parser16parse_expression
FN:1002,_RNvNtNtCslMvNkBGonrW_10xdl_parser6parser5testss_19test_parse_for_loop
FN:974,_RNvNtNtCslMvNkBGonrW_10xdl_parser6parser5testss_23test_parse_if_statement
FN:958,_RNvNtNtCslMvNkBGonrW_10xdl_parser6parser5testss_24test_parse_function_call
FN:904,_RNvNtNtCslMvNkBGonrW_10xdl_parser6parser5testss_28test_parse_simple_assignment
FN:926,_RNvNtNtCslMvNkBGonrW_10xdl_parser6parser5testss_32test_parse_arithmetic_expression
FN:658,_RNvMNtCslMvNkBGonrW_10xdl_parser6parserNtB2_6Parser11parse_power
FN:676,_RNvMNtCslMvNkBGonrW_10xdl_parser6parserNtB2_6Parser11parse_unary
FN:710,_RNvMNtCslMvNkBGonrW_10xdl_parser6parserNtB2_6Parser13parse_postfix
FN:797,_RNvMNtCslMvNkBGonrW_10xdl_parser6parserNtB2_6Parser13parse_primary
FN:59,_RNvMNtCslMvNkBGonrW_10xdl_parser6parserNtB2_6Parser13parse_program
FN:608,_RNvMNtCslMvNkBGonrW_10xdl_parser6parserNtB2_6Parser14parse_addition
FN:558,_RNvMNtCslMvNkBGonrW_10xdl_parser6parserNtB2_6Parser14parse_equality
FN:101,_RNvMNtCslMvNkBGonrW_10xdl_parser6parserNtB2_6Parser15parse_statement
FN:582,_RNvMNtCslMvNkBGonrW_10xdl_parser6parserNtB2_6Parser16parse_comparison
FN:517,_RNvMNtCslMvNkBGonrW_10xdl_parser6parserNtB2_6Parser16parse_expression
FN:522,_RNvMNtCslMvNkBGonrW_10xdl_parser6parserNtB2_6Parser16parse_logical_or
FN:540,_RNvMNtCslMvNkBGonrW_10xdl_parser6parserNtB2_6Parser17parse_logical_and
FN:164,_RNvMNtCslMvNkBGonrW_10xdl_parser6parserNtB2_6Parser18parse_if_statement
FN:734,_RNvMNtCslMvNkBGonrW_10xdl_parser6parserNtB2_6Parser19parse_array_indices
FN:209,_RNvMNtCslMvNkBGonrW_10xdl_parser6parserNtB2_6Parser19parse_for_statement
FN:632,_RNvMNtCslMvNkBGonrW_10xdl_parser6parserNtB2_6Parser20parse_multiplication
FN:282,_RNvMNtCslMvNkBGonrW_10xdl_parser6parserNtB2_6Parser20parse_procedure_call
FN:378,_RNvMNtCslMvNkBGonrW_10xdl_parser6parserNtB2_6Parser21parse_while_statement
FN:411,_RNvMNtCslMvNkBGonrW_10xdl_parser6parserNtB2_6Parser22parse_repeat_statement
FN:428,_RNvMNtCslMvNkBGonrW_10xdl_parser6parserNtB2_6Parser22parse_return_statement
FN:322,_RNvMNtCslMvNkBGonrW_10xdl_parser6parserNtB2_6Parser23parse_foreach_statement
FN:73,_RNvMNtCslMvNkBGonrW_10xdl_parser6parserNtB2_6Parser24parse_block_or_statement
FN:479,_RNvMNtCslMvNkBGonrW_10xdl_parser6parserNtB2_6Parser25parse_function_definition
FN:444,_RNvMNtCslMvNkBGonrW_10xdl_parser6parserNtB2_6Parser26parse_procedure_definition
FN:14,_RNvMNtCslMvNkBGonrW_10xdl_parser6parserNtB2_6Parser3new
FN:19,_RNvMNtCslMvNkBGonrW_10xdl_parser6parserNtB2_6Parser4peek
FN:35,_RNvMNtCslMvNkBGonrW_10xdl_parser6parserNtB2_6Parser5check
FN:24,_RNvMNtCslMvNkBGonrW_10xdl_parser6parserNtB2_6Parser7advance
FN:40,_RNvMNtCslMvNkBGonrW_10xdl_parser6parserNtB2_6Parser7consume
FN:54,_RNvMNtCslMvNkBGonrW_10xdl_parser6parserNtB2_6Parser9is_at_end
FN:888,_RNvNtCslMvNkBGonrW_10xdl_parser6parser13parse_program
FN:893,_RNvNtCslMvNkBGonrW_10xdl_parser6parser16parse_expression
FN:88,_RNCNvMNtCslMvNkBGonrW_10xdl_parser6parserNtB4_6Parser24parse_block_or_statement0B6_
FNDA:0,_RNCNvMNtCslwE2O2taVR6_10xdl_parser6parserNtB4_6Parser24parse_block_or_statement0B6_
FNDA:0,_RNvMNtCslwE2O2taVR6_10xdl_parser6parserNtB2_6Parser11parse_power
FNDA:0,_RNvMNtCslwE2O2taVR6_10xdl_parser6parserNtB2_6Parser11parse_unary
FNDA:0,_RNvMNtCslwE2O2taVR6_10xdl_parser6parserNtB2_6Parser13parse_postfix
FNDA:0,_RNvMNtCslwE2O2taVR6_10xdl_parser6parserNtB2_6Parser13parse_primary
FNDA:0,_RNvMNtCslwE2O2taVR6_10xdl_parser6parserNtB2_6Parser13parse_program
FNDA:0,_RNvMNtCslwE2O2taVR6_10xdl_parser6parserNtB2_6Parser14parse_addition
FNDA:0,_RNvMNtCslwE2O2taVR6_10xdl_parser6parserNtB2_6Parser14parse_equality
FNDA:0,_RNvMNtCslwE2O2taVR6_10xdl_parser6parserNtB2_6Parser15parse_statement
FNDA:0,_RNvMNtCslwE2O2taVR6_10xdl_parser6parserNtB2_6Parser16parse_comparison
FNDA:0,_RNvMNtCslwE2O2taVR6_10xdl_parser6parserNtB2_6Parser16parse_expression
FNDA:0,_RNvMNtCslwE2O2taVR6_10xdl_parser6parserNtB2_6Parser16parse_logical_or
FNDA:0,_RNvMNtCslwE2O2taVR6_10xdl_parser6parserNtB2_6Parser17parse_logical_and
FNDA:0,_RNvMNtCslwE2O2taVR6_10xdl_parser6parserNtB2_6Parser18parse_if_statement
FNDA:0,_RNvMNtCslwE2O2taVR6_10xdl_parser6parserNtB2_6Parser19parse_array_indices
FNDA:0,_RNvMNtCslwE2O2taVR6_10xdl_parser6parserNtB2_6Parser19parse_for_statement
FNDA:0,_RNvMNtCslwE2O2taVR6_10xdl_parser6parserNtB2_6Parser20parse_multiplication
FNDA:0,_RNvMNtCslwE2O2taVR6_10xdl_parser6parserNtB2_6Parser20parse_procedure_call
FNDA:0,_RNvMNtCslwE2O2taVR6_10xdl_parser6parserNtB2_6Parser21parse_while_statement
FNDA:0,_RNvMNtCslwE2O2taVR6_10xdl_parser6parserNtB2_6Parser22parse_repeat_statement
FNDA:0,_RNvMNtCslwE2O2taVR6_10xdl_parser6parserNtB2_6Parser22parse_return_statement
FNDA:0,_RNvMNtCslwE2O2taVR6_10xdl_parser6parserNtB2_6Parser23parse_foreach_statement
FNDA:0,_RNvMNtCslwE2O2taVR6_10xdl_parser6parserNtB2_6Parser24parse_block_or_statement
FNDA:0,_RNvMNtCslwE2O2taVR6_10xdl_parser6parserNtB2_6Parser25parse_function_definition
FNDA:0,_RNvMNtCslwE2O2taVR6_10xdl_parser6parserNtB2_6Parser26parse_procedure_definition
FNDA:0,_RNvMNtCslwE2O2taVR6_10xdl_parser6parserNtB2_6Parser3new
FNDA:0,_RNvMNtCslwE2O2taVR6_10xdl_parser6parserNtB2_6Parser4peek
FNDA:0,_RNvMNtCslwE2O2taVR6_10xdl_parser6parserNtB2_6Parser5check
FNDA:0,_RNvMNtCslwE2O2taVR6_10xdl_parser6parserNtB2_6Parser7advance
FNDA:0,_RNvMNtCslwE2O2taVR6_10xdl_parser6parserNtB2_6Parser7consume
FNDA:0,_RNvMNtCslwE2O2taVR6_10xdl_parser6parserNtB2_6Parser9is_at_end
FNDA:0,_RNvNtCslwE2O2taVR6_10xdl_parser6parser13parse_program
FNDA:0,_RNvNtCslwE2O2taVR6_10xdl_parser6parser16parse_expression
FNDA:1,_RNvNtNtCslMvNkBGonrW_10xdl_parser6parser5testss_19test_parse_for_loop
FNDA:1,_RNvNtNtCslMvNkBGonrW_10xdl_parser6parser5testss_23test_parse_if_statement
FNDA:1,_RNvNtNtCslMvNkBGonrW_10xdl_parser6parser5testss_24test_parse_function_call
FNDA:1,_RNvNtNtCslMvNkBGonrW_10xdl_parser6parser5testss_28test_parse_simple_assignment
FNDA:1,_RNvNtNtCslMvNkBGonrW_10xdl_parser6parser5testss_32test_parse_arithmetic_expression
FNDA:20,_RNvMNtCslMvNkBGonrW_10xdl_parser6parserNtB2_6Parser11parse_power
FNDA:20,_RNvMNtCslMvNkBGonrW_10xdl_parser6parserNtB2_6Parser11parse_unary
FNDA:20,_RNvMNtCslMvNkBGonrW_10xdl_parser6parserNtB2_6Parser13parse_postfix
FNDA:20,_RNvMNtCslMvNkBGonrW_10xdl_parser6parserNtB2_6Parser13parse_primary
FNDA:4,_RNvMNtCslMvNkBGonrW_10xdl_parser6parserNtB2_6Parser13parse_program
FNDA:16,_RNvMNtCslMvNkBGonrW_10xdl_parser6parserNtB2_6Parser14parse_addition
FNDA:15,_RNvMNtCslMvNkBGonrW_10xdl_parser6parserNtB2_6Parser14parse_equality
FNDA:6,_RNvMNtCslMvNkBGonrW_10xdl_parser6parserNtB2_6Parser15parse_statement
FNDA:16,_RNvMNtCslMvNkBGonrW_10xdl_parser6parserNtB2_6Parser16parse_comparison
FNDA:15,_RNvMNtCslMvNkBGonrW_10xdl_parser6parserNtB2_6Parser16parse_expression
FNDA:15,_RNvMNtCslMvNkBGonrW_10xdl_parser6parserNtB2_6Parser16parse_logical_or
FNDA:15,_RNvMNtCslMvNkBGonrW_10xdl_parser6parserNtB2_6Parser17parse_logical_and
FNDA:1,_RNvMNtCslMvNkBGonrW_10xdl_parser6parserNtB2_6Parser18parse_if_statement
FNDA:0,_RNvMNtCslMvNkBGonrW_10xdl_parser6parserNtB2_6Parser19parse_array_indices
FNDA:1,_RNvMNtCslMvNkBGonrW_10xdl_parser6parserNtB2_6Parser19parse_for_statement
FNDA:18,_RNvMNtCslMvNkBGonrW_10xdl_parser6parserNtB2_6Parser20parse_multiplication
FNDA:0,_RNvMNtCslMvNkBGonrW_10xdl_parser6parserNtB2_6Parser20parse_procedure_call
FNDA:0,_RNvMNtCslMvNkBGonrW_10xdl_parser6parserNtB2_6Parser21parse_while_statement
FNDA:0,_RNvMNtCslMvNkBGonrW_10xdl_parser6parserNtB2_6Parser22parse_repeat_statement
FNDA:0,_RNvMNtCslMvNkBGonrW_10xdl_parser6parserNtB2_6Parser22parse_return_statement
FNDA:0,_RNvMNtCslMvNkBGonrW_10xdl_parser6parserNtB2_6Parser23parse_foreach_statement
FNDA:1,_RNvMNtCslMvNkBGonrW_10xdl_parser6parserNtB2_6Parser24parse_block_or_statement
FNDA:0,_RNvMNtCslMvNkBGonrW_10xdl_parser6parserNtB2_6Parser25parse_function_definition
FNDA:0,_RNvMNtCslMvNkBGonrW_10xdl_parser6parserNtB2_6Parser26parse_procedure_definition
FNDA:7,_RNvMNtCslMvNkBGonrW_10xdl_parser6parserNtB2_6Parser3new
FNDA:222,_RNvMNtCslMvNkBGonrW_10xdl_parser6parserNtB2_6Parser4peek
FNDA:101,_RNvMNtCslMvNkBGonrW_10xdl_parser6parserNtB2_6Parser5check
FNDA:43,_RNvMNtCslMvNkBGonrW_10xdl_parser6parserNtB2_6Parser7advance
FNDA:6,_RNvMNtCslMvNkBGonrW_10xdl_parser6parserNtB2_6Parser7consume
FNDA:14,_RNvMNtCslMvNkBGonrW_10xdl_parser6parserNtB2_6Parser9is_at_end
FNDA:4,_RNvNtCslMvNkBGonrW_10xdl_parser6parser13parse_program
FNDA:3,_RNvNtCslMvNkBGonrW_10xdl_parser6parser16parse_expression
FNDA:2,_RNCNvMNtCslMvNkBGonrW_10xdl_parser6parserNtB4_6Parser24parse_block_or_statement0B6_
FNF:38
FNH:30
DA:14,7
DA:15,7
DA:16,7
DA:19,222
DA:20,222
DA:21,222
DA:24,43
DA:25,43
DA:26,43
DA:27,43
DA:28,43
DA:30,0
DA:32,43
DA:35,101
DA:36,101
DA:37,101
DA:40,6
DA:41,6
DA:42,6
DA:43,6
DA:45,0
DA:46,0
DA:47,0
DA:48,0
DA:49,0
DA:51,6
DA:54,14
DA:55,14
DA:56,14
DA:59,4
DA:60,4
DA:62,8
DA:63,4
DA:66,4
DA:67,4
DA:68,4
DA:69,4
DA:70,4
DA:73,1
DA:75,1
DA:76,0
DA:77,0
DA:78,0
DA:79,0
DA:81,0
DA:82,0
DA:86,1
DA:87,2
DA:88,2
DA:89,2
DA:90,2
DA:91,2
DA:92,1
DA:93,1
DA:94,1
DA:96,1
DA:98,1
DA:101,6
DA:102,6
DA:103,1
DA:104,1
DA:105,0
DA:106,0
DA:107,0
DA:108,0
DA:110,0
DA:111,0
DA:112,0
DA:113,0
DA:116,0
DA:117,0
DA:118,0
DA:119,0
DA:121,0
DA:122,0
DA:125,4
DA:126,4
DA:127,4
DA:128,4
DA:131,4
DA:132,4
DA:133,4
DA:135,0
DA:136,4
DA:139,4
DA:140,0
DA:142,4
DA:145,4
DA:146,4
DA:147,4
DA:148,4
DA:149,4
DA:150,4
DA:151,4
DA:152,4
DA:154,0
DA:155,0
DA:156,0
DA:157,0
DA:161,6
DA:164,1
DA:165,1
DA:166,1
DA:167,1
DA:170,1
DA:173,1
DA:174,0
DA:177,1
DA:180,1
DA:181,0
DA:182,0
DA:184,0
DA:185,0
DA:187,0
DA:189,0
DA:191,1
DA:196,1
DA:197,1
DA:198,1
DA:200,1
DA:201,1
DA:202,1
DA:203,1
DA:204,1
DA:205,1
DA:206,1
DA:209,1
DA:210,1
DA:213,1
DA:214,1
DA:216,0
DA:217,0
DA:218,0
DA:219,0
DA:220,0
DA:223,1
DA:224,1
DA:225,1
DA:226,1
DA:228,1
DA:229,0
DA:230,0
DA:232,1
DA:236,1
DA:237,0
DA:238,1
DA:241,1
DA:250,1
DA:252,0
DA:254,0
DA:255,0
DA:256,0
DA:257,0
DA:261,1
DA:264,1
DA:265,1
DA:266,1
DA:268,1
DA:271,1
DA:272,1
DA:273,1
DA:274,1
DA:275,1
DA:276,1
DA:277,1
DA:278,1
DA:279,1
DA:282,0
DA:283,0
DA:284,0
DA:287,0
DA:288,0
DA:291,0
DA:292,0
DA:293,0
DA:295,0
DA:297,0
DA:298,0
DA:299,0
DA:300,0
DA:301,0
DA:302,0
DA:303,0
DA:304,0
DA:305,0
DA:306,0
DA:307,0
DA:310,0
DA:313,0
DA:314,0
DA:315,0
DA:316,0
DA:317,0
DA:318,0
DA:319,0
DA:322,0
DA:323,0
DA:326,0
DA:327,0
DA:329,0
DA:330,0
DA:331,0
DA:332,0
DA:333,0
DA:336,0
DA:337,0
DA:340,0
DA:341,0
DA:342,0
DA:343,0
DA:345,0
DA:346,0
DA:347,0
DA:348,0
DA:349,0
DA:352,0
DA:356,0
DA:357,0
DA:358,0
DA:361,0
DA:363,0
DA:364,0
DA:365,0
DA:366,0
DA:368,0
DA:369,0
DA:370,0
DA:371,0
DA:372,0
DA:373,0
DA:374,0
DA:375,0
DA:378,0
DA:379,0
DA:380,0
DA:383,0
DA:384,0
DA:385,0
DA:388,0
DA:391,0
DA:392,0
DA:394,0
DA:395,0
DA:396,0
DA:397,0
DA:400,0
DA:403,0
DA:404,0
DA:405,0
DA:406,0
DA:407,0
DA:408,0
DA:411,0
DA:412,0
DA:415,0
DA:417,0
DA:418,0
DA:420,0
DA:421,0
DA:422,0
DA:423,0
DA:424,0
DA:425,0
DA:428,0
DA:429,0
DA:431,0
DA:432,0
DA:434,0
DA:437,0
DA:438,0
DA:439,0
DA:440,0
DA:441,0
DA:444,0
DA:445,0
DA:447,0
DA:448,0
DA:450,0
DA:451,0
DA:452,0
DA:453,0
DA:454,0
DA:458,0
DA:459,0
DA:462,0
DA:463,0
DA:464,0
DA:467,0
DA:469,0
DA:470,0
DA:471,0
DA:472,0
DA:473,0
DA:474,0
DA:475,0
DA:476,0
DA:479,0
DA:480,0
DA:482,0
DA:483,0
DA:485,0
DA:486,0
DA:487,0
DA:488,0
DA:489,0
DA:493,0
DA:494,0
DA:497,0
DA:498,0
DA:499,0
DA:502,0
DA:503,0
DA:504,0
DA:505,0
DA:507,0
DA:508,0
DA:509,0
DA:510,0
DA:511,0
DA:512,0
DA:513,0
DA:514,0
DA:517,15
DA:518,15
DA:519,15
DA:522,15
DA:523,15
DA:525,15
DA:526,0
DA:527,0
DA:528,0
DA:529,0
DA:530,0
DA:531,0
DA:532,0
DA:533,0
DA:536,15
DA:537,15
DA:540,15
DA:541,15
DA:543,15
DA:544,0
DA:545,0
DA:546,0
DA:547,0
DA:548,0
DA:549,0
DA:550,0
DA:551,0
DA:554,15
DA:555,15
DA:558,15
DA:559,15
DA:562,16
DA:563,1
DA:564,0
DA:565,15
DA:568,1
DA:569,1
DA:570,1
DA:571,1
DA:572,1
DA:573,1
DA:574,1
DA:575,1
DA:578,15
DA:579,15
DA:582,16
DA:583,16
DA:586,16
DA:587,0
DA:588,0
DA:589,0
DA:590,0
DA:591,16
DA:594,0
DA:595,0
DA:596,0
DA:597,0
DA:598,0
DA:599,0
DA:600,0
DA:601,0
DA:604,16
DA:605,16
DA:608,16
DA:609,16
DA:612,18
DA:613,2
DA:614,0
DA:615,16
DA:618,2
DA:619,2
DA:620,2
DA:621,2
DA:622,2
DA:623,2
DA:624,2
DA:625,2
DA:628,16
DA:629,16
DA:632,18
DA:633,18
DA:636,20
DA:637,2
DA:638,0
DA:639,0
DA:640,0
DA:641,18
DA:644,2
DA:645,2
DA:646,2
DA:647,2
DA:648,2
DA:649,2
DA:650,2
DA:651,2
DA:654,18
DA:655,18
DA:658,20
DA:659,20
DA:661,20
DA:662,0
DA:663,0
DA:664,0
DA:665,0
DA:666,0
DA:667,0
DA:668,0
DA:669,0
DA:670,20
DA:672,20
DA:673,20
DA:676,20
DA:677,20
DA:679,0
DA:680,0
DA:681,0
DA:682,0
DA:683,0
DA:684,0
DA:685,0
DA:688,0
DA:689,0
DA:690,0
DA:691,0
DA:692,0
DA:693,0
DA:694,0
DA:697,0
DA:698,0
DA:699,0
DA:700,0
DA:701,0
DA:702,0
DA:703,0
DA:705,20
DA:707,20
DA:710,20
DA:711,20
DA:715,20
DA:716,0
DA:717,0
DA:718,0
DA:720,0
DA:721,0
DA:722,0
DA:723,0
DA:724,0
DA:726,20
DA:730,20
DA:731,20
DA:734,0
DA:735,0
DA:739,0
DA:740,0
DA:741,0
DA:742,0
DA:744,0
DA:747,0
DA:748,0
DA:749,0
DA:750,0
DA:751,0
DA:754,0
DA:757,0
DA:758,0
DA:760,0
DA:761,0
DA:763,0
DA:767,0
DA:768,0
DA:769,0
DA:771,0
DA:774,0
DA:775,0
DA:776,0
DA:777,0
DA:778,0
DA:779,0
DA:780,0
DA:781,0
DA:782,0
DA:786,0
DA:787,0
DA:788,0
DA:789,0
DA:793,0
DA:794,0
DA:797,20
DA:798,20
DA:799,12
DA:800,12
DA:801,12
DA:802,12
DA:803,0
DA:804,0
DA:805,0
DA:806,0
DA:807,0
DA:808,0
DA:809,0
DA:810,0
DA:811,8
DA:812,8
DA:814,8
DA:815,1
DA:816,1
DA:818,1
DA:820,1
DA:821,1
DA:822,0
DA:823,0
DA:824,1
DA:827,0
DA:829,1
DA:831,1
DA:832,1
DA:833,1
DA:834,1
DA:835,1
DA:836,1
DA:838,7
DA:839,7
DA:840,7
DA:841,7
DA:844,0
DA:845,0
DA:846,0
DA:847,0
DA:848,0
DA:849,0
DA:852,0
DA:853,0
DA:854,0
DA:858,0
DA:860,0
DA:862,0
DA:863,0
DA:864,0
DA:865,0
DA:866,0
DA:869,0
DA:871,0
DA:873,0
DA:874,0
DA:875,0
DA:876,0
DA:878,0
DA:879,0
DA:880,0
DA:881,0
DA:882,0
DA:884,20
DA:888,4
DA:889,4
DA:890,4
DA:891,4
DA:893,3
DA:894,3
DA:895,3
DA:896,3
DA:904,1
DA:905,1
DA:906,1
DA:907,1
DA:909,1
DA:910,1
DA:911,1
DA:912,1
DA:913,1
DA:914,1
DA:921,0
DA:923,1
DA:926,1
DA:927,1
DA:928,1
DA:929,1
DA:931,1
DA:934,1
DA:935,1
DA:938,1
DA:939,1
DA:945,1
DA:949,1
DA:950,0
DA:953,0
DA:955,1
DA:958,1
DA:959,1
DA:960,1
DA:961,1
DA:963,1
DA:964,1
DA:965,1
DA:966,1
DA:967,1
DA:969,0
DA:971,1
DA:974,1
DA:975,1
DA:976,1
DA:977,1
DA:979,1
DA:980,1
DA:982,1
DA:983,1
DA:984,1
DA:987,1
DA:988,1
DA:994,1
DA:995,1
DA:997,0
DA:999,1
DA:1002,1
DA:1003,1
DA:1004,1
DA:1005,1
DA:1007,1
DA:1008,1
DA:1010,1
DA:1011,1
DA:1012,1
DA:1013,1
DA:1014,1
DA:1017,1
DA:1018,1
DA:1019,1
DA:1025,1
DA:1026,1
DA:1032,1
DA:1033,1
DA:1035,0
DA:1037,1
BRF:0
BRH:0
LF:655
LH:297
end_of_record
SF:/Users/ravindraboddipalli/sources/xdl/xdl-runtime/src/gc.rs
FN:8,_RNvMNtCs8PbSBa2PN5L_11xdl_runtime2gcNtB2_16GarbageCollector3new
FN:14,_RNvMNtCs8PbSBa2PN5L_11xdl_runtime2gcNtB2_16GarbageCollector7collect
FN:20,_RNvXs_NtCs8PbSBa2PN5L_11xdl_runtime2gcNtB4_16GarbageCollectorNtNtCs2CqrNpCrSUr_4core7default7Default7default
FNDA:0,_RNvMNtCs8PbSBa2PN5L_11xdl_runtime2gcNtB2_16GarbageCollector3new
FNDA:0,_RNvMNtCs8PbSBa2PN5L_11xdl_runtime2gcNtB2_16GarbageCollector7collect
FNDA:0,_RNvXs_NtCs8PbSBa2PN5L_11xdl_runtime2gcNtB4_16GarbageCollectorNtNtCs2CqrNpCrSUr_4core7default7Default7default
FNF:3
FNH:0
DA:8,0
DA:9,0
DA:10,0
DA:11,0
DA:12,0
DA:14,0
DA:16,0
DA:20,0
DA:21,0
DA:22,0
BRF:0
BRH:0
LF:10
LH:0
end_of_record
SF:/Users/ravindraboddipalli/sources/xdl/xdl-runtime/src/lib.rs
FN:11,_RNvMCs8PbSBa2PN5L_11xdl_runtimeNtB2_13RuntimeSystem3new
FN:19,_RNvXs_Cs8PbSBa2PN5L_11xdl_runtimeNtB4_13RuntimeSystemNtNtCs2CqrNpCrSUr_4core7default7Default7default
FNDA:0,_RNvMCs8PbSBa2PN5L_11xdl_runtimeNtB2_13RuntimeSystem3new
FNDA:0,_RNvXs_Cs8PbSBa2PN5L_11xdl_runtimeNtB4_13RuntimeSystemNtNtCs2CqrNpCrSUr_4core7default7Default7default
FNF:2
FNH:0
DA:11,0
DA:12,0
DA:13,0
DA:14,0
DA:15,0
DA:19,0
DA:20,0
DA:21,0
BRF:0
BRH:0
LF:8
LH:0
end_of_record
SF:/Users/ravindraboddipalli/sources/xdl/xdl-runtime/src/memory.rs
FN:8,_RNvMNtCs8PbSBa2PN5L_11xdl_runtime6memoryNtB2_13MemoryManager3new
FN:16,_RNvXs_NtCs8PbSBa2PN5L_11xdl_runtime6memoryNtB4_13MemoryManagerNtNtCs2CqrNpCrSUr_4core7default7Default7default
FNDA:0,_RNvMNtCs8PbSBa2PN5L_11xdl_runtime6memoryNtB2_13MemoryManager3new
FNDA:0,_RNvXs_NtCs8PbSBa2PN5L_11xdl_runtime6memoryNtB4_13MemoryManagerNtNtCs2CqrNpCrSUr_4core7default7Default7default
FNF:2
FNH:0
DA:8,0
DA:9,0
DA:10,0
DA:11,0
DA:12,0
DA:16,0
DA:17,0
DA:18,0
BRF:0
BRH:0
LF:8
LH:0
end_of_record
SF:/Users/ravindraboddipalli/sources/xdl/xdl-stdlib/src/array.rs
FN:8,_RNvMNtCs7X22eMfvUxK_10xdl_stdlib5arrayNtB2_14ArrayFunctions3new
FN:165,_RNvNtCs7X22eMfvUxK_10xdl_stdlib5array10n_elements
FN:333,_RNvNtCs7X22eMfvUxK_10xdl_stdlib5array10total_func
FN:188,_RNvNtCs7X22eMfvUxK_10xdl_stdlib5array10where_func
FN:827,_RNvNtCs7X22eMfvUxK_10xdl_stdlib5array11reform_func
FN:394,_RNvNtCs7X22eMfvUxK_10xdl_stdlib5array11smooth_func
FN:354,_RNvNtCs7X22eMfvUxK_10xdl_stdlib5array12reverse_func
FN:1001,_RNvNtCs7X22eMfvUxK_10xdl_stdlib5array12transpose_2d
FN:891,_RNvNtCs7X22eMfvUxK_10xdl_stdlib5array14transpose_func
FN:20,_RNvNtCs7X22eMfvUxK_10xdl_stdlib5array17extract_dimension
FN:490,_RNvNtCs7X22eMfvUxK_10xdl_stdlib5array19moving_average_func
FN:63,_RNvNtCs7X22eMfvUxK_10xdl_stdlib5array20calculate_total_size
FN:784,_RNvNtCs7X22eMfvUxK_10xdl_stdlib5array23cumulative_average_func
FN:76,_RNvNtCs7X22eMfvUxK_10xdl_stdlib5array6bytarr
FN:135,_RNvNtCs7X22eMfvUxK_10xdl_stdlib5array6dblarr
FN:121,_RNvNtCs7X22eMfvUxK_10xdl_stdlib5array6fltarr
FN:93,_RNvNtCs7X22eMfvUxK_10xdl_stdlib5array6intarr
FN:107,_RNvNtCs7X22eMfvUxK_10xdl_stdlib5array6lonarr
FN:150,_RNvNtCs7X22eMfvUxK_10xdl_stdlib5array6strarr
FN:725,_RNvNtCs7X22eMfvUxK_10xdl_stdlib5array8ema_func
FN:287,_RNvNtCs7X22eMfvUxK_10xdl_stdlib5array8max_func
FN:931,_RNvNtCs7X22eMfvUxK_10xdl_stdlib5array8meshgrid
FN:266,_RNvNtCs7X22eMfvUxK_10xdl_stdlib5array8min_func
FN:655,_RNvNtCs7X22eMfvUxK_10xdl_stdlib5array8wma_func
FN:308,_RNvNtCs7X22eMfvUxK_10xdl_stdlib5array9mean_func
FN:373,_RNvNtCs7X22eMfvUxK_10xdl_stdlib5array9sort_func
FN:14,_RNvXs_NtCs7X22eMfvUxK_10xdl_stdlib5arrayNtB4_14ArrayFunctionsNtNtCs2CqrNpCrSUr_4core7default7Default7default
FN:69,_RNCNvNtCs7X22eMfvUxK_10xdl_stdlib5array20calculate_total_size0B5_
FN:300,_RNCNvNtCs7X22eMfvUxK_10xdl_stdlib5array8max_func0B5_
FN:279,_RNCNvNtCs7X22eMfvUxK_10xdl_stdlib5array8min_func0B5_
FN:384,_RNCNvNtCs7X22eMfvUxK_10xdl_stdlib5array9sort_func0B5_
FN:69,_RNCNvNtCsgiIQ3x9G6Hx_10xdl_stdlib5array20calculate_total_size0B5_
FN:300,_RNCNvNtCsgiIQ3x9G6Hx_10xdl_stdlib5array8max_func0B5_
FN:279,_RNCNvNtCsgiIQ3x9G6Hx_10xdl_stdlib5array8min_func0B5_
FN:384,_RNCNvNtCsgiIQ3x9G6Hx_10xdl_stdlib5array9sort_func0B5_
FN:8,_RNvMNtCsgiIQ3x9G6Hx_10xdl_stdlib5arrayNtB2_14ArrayFunctions3new
FN:165,_RNvNtCsgiIQ3x9G6Hx_10xdl_stdlib5array10n_elements
FN:333,_RNvNtCsgiIQ3x9G6Hx_10xdl_stdlib5array10total_func
FN:188,_RNvNtCsgiIQ3x9G6Hx_10xdl_stdlib5array10where_func
FN:827,_RNvNtCsgiIQ3x9G6Hx_10xdl_stdlib5array11reform_func
FN:394,_RNvNtCsgiIQ3x9G6Hx_10xdl_stdlib5array11smooth_func
FN:354,_RNvNtCsgiIQ3x9G6Hx_10xdl_stdlib5array12reverse_func
FN:1001,_RNvNtCsgiIQ3x9G6Hx_10xdl_stdlib5array12transpose_2d
FN:891,_RNvNtCsgiIQ3x9G6Hx_10xdl_stdlib5array14transpose_func
FN:20,_RNvNtCsgiIQ3x9G6Hx_10xdl_stdlib5array17extract_dimension
FN:490,_RNvNtCsgiIQ3x9G6Hx_10xdl_stdlib5array19moving_average_func
FN:63,_RNvNtCsgiIQ3x9G6Hx_10xdl_stdlib5array20calculate_total_size
FN:784,_RNvNtCsgiIQ3x9G6Hx_10xdl_stdlib5array23cumulative_average_func
FN:76,_RNvNtCsgiIQ3x9G6Hx_10xdl_stdlib5array6bytarr
FN:135,_RNvNtCsgiIQ3x9G6Hx_10xdl_stdlib5array6dblarr
FN:121,_RNvNtCsgiIQ3x9G6Hx_10xdl_stdlib5array6fltarr
FN:93,_RNvNtCsgiIQ3x9G6Hx_10xdl_stdlib5array6intarr
FN:107,_RNvNtCsgiIQ3x9G6Hx_10xdl_stdlib5array6lonarr
FN:150,_RNvNtCsgiIQ3x9G6Hx_10xdl_stdlib5array6strarr
FN:725,_RNvNtCsgiIQ3x9G6Hx_10xdl_stdlib5array8ema_func
FN:287,_RNvNtCsgiIQ3x9G6Hx_10xdl_stdlib5array8max_func
FN:931,_RNvNtCsgiIQ3x9G6Hx_10xdl_stdlib5array8meshgrid
FN:266,_RNvNtCsgiIQ3x9G6Hx_10xdl_stdlib5array8min_func
FN:655,_RNvNtCsgiIQ3x9G6Hx_10xdl_stdlib5array8wma_func
FN:308,_RNvNtCsgiIQ3x9G6Hx_10xdl_stdlib5array9mean_func
FN:373,_RNvNtCsgiIQ3x9G6Hx_10xdl_stdlib5array9sort_func
FN:14,_RNvXs_NtCsgiIQ3x9G6Hx_10xdl_stdlib5arrayNtB4_14ArrayFunctionsNtNtCs2CqrNpCrSUr_4core7default7Default7default
FNDA:0,_RNvMNtCs7X22eMfvUxK_10xdl_stdlib5arrayNtB2_14ArrayFunctions3new
FNDA:0,_RNvNtCs7X22eMfvUxK_10xdl_stdlib5array10n_elements
FNDA:0,_RNvNtCs7X22eMfvUxK_10xdl_stdlib5array10total_func
FNDA:0,_RNvNtCs7X22eMfvUxK_10xdl_stdlib5array10where_func
FNDA:0,_RNvNtCs7X22eMfvUxK_10xdl_stdlib5array11reform_func
FNDA:0,_RNvNtCs7X22eMfvUxK_10xdl_stdlib5array11smooth_func
FNDA:0,_RNvNtCs7X22eMfvUxK_10xdl_stdlib5array12reverse_func
FNDA:0,_RNvNtCs7X22eMfvUxK_10xdl_stdlib5array12transpose_2d
FNDA:0,_RNvNtCs7X22eMfvUxK_10xdl_stdlib5array14transpose_func
FNDA:0,_RNvNtCs7X22eMfvUxK_10xdl_stdlib5array17extract_dimension
FNDA:0,_RNvNtCs7X22eMfvUxK_10xdl_stdlib5array19moving_average_func
FNDA:0,_RNvNtCs7X22eMfvUxK_10xdl_stdlib5array20calculate_total_size
FNDA:0,_RNvNtCs7X22eMfvUxK_10xdl_stdlib5array23cumulative_average_func
FNDA:0,_RNvNtCs7X22eMfvUxK_10xdl_stdlib5array6bytarr
FNDA:0,_RNvNtCs7X22eMfvUxK_10xdl_stdlib5array6dblarr
FNDA:0,_RNvNtCs7X22eMfvUxK_10xdl_stdlib5array6fltarr
FNDA:0,_RNvNtCs7X22eMfvUxK_10xdl_stdlib5array6intarr
FNDA:0,_RNvNtCs7X22eMfvUxK_10xdl_stdlib5array6lonarr
FNDA:0,_RNvNtCs7X22eMfvUxK_10xdl_stdlib5array6strarr
FNDA:0,_RNvNtCs7X22eMfvUxK_10xdl_stdlib5array8ema_func
FNDA:0,_RNvNtCs7X22eMfvUxK_10xdl_stdlib5array8max_func
FNDA:0,_RNvNtCs7X22eMfvUxK_10xdl_stdlib5array8meshgrid
FNDA:0,_RNvNtCs7X22eMfvUxK_10xdl_stdlib5array8min_func
FNDA:0,_RNvNtCs7X22eMfvUxK_10xdl_stdlib5array8wma_func
FNDA:0,_RNvNtCs7X22eMfvUxK_10xdl_stdlib5array9mean_func
FNDA:0,_RNvNtCs7X22eMfvUxK_10xdl_stdlib5array9sort_func
FNDA:0,_RNvXs_NtCs7X22eMfvUxK_10xdl_stdlib5arrayNtB4_14ArrayFunctionsNtNtCs2CqrNpCrSUr_4core7default7Default7default
FNDA:0,_RNCNvNtCs7X22eMfvUxK_10xdl_stdlib5array20calculate_total_size0B5_
FNDA:0,_RNCNvNtCs7X22eMfvUxK_10xdl_stdlib5array8max_func0B5_
FNDA:0,_RNCNvNtCs7X22eMfvUxK_10xdl_stdlib5array8min_func0B5_
FNDA:0,_RNCNvNtCs7X22eMfvUxK_10xdl_stdlib5array9sort_func0B5_
FNDA:0,_RNCNvNtCsgiIQ3x9G6Hx_10xdl_stdlib5array20calculate_total_size0B5_
FNDA:0,_RNCNvNtCsgiIQ3x9G6Hx_10xdl_stdlib5array8max_func0B5_
FNDA:0,_RNCNvNtCsgiIQ3x9G6Hx_10xdl_stdlib5array8min_func0B5_
FNDA:0,_RNCNvNtCsgiIQ3x9G6Hx_10xdl_stdlib5array9sort_func0B5_
FNDA:0,_RNvMNtCsgiIQ3x9G6Hx_10xdl_stdlib5arrayNtB2_14ArrayFunctions3new
FNDA:0,_RNvNtCsgiIQ3x9G6Hx_10xdl_stdlib5array10n_elements
FNDA:0,_RNvNtCsgiIQ3x9G6Hx_10xdl_stdlib5array10total_func
FNDA:0,_RNvNtCsgiIQ3x9G6Hx_10xdl_stdlib5array10where_func
FNDA:0,_RNvNtCsgiIQ3x9G6Hx_10xdl_stdlib5array11reform_func
FNDA:0,_RNvNtCsgiIQ3x9G6Hx_10xdl_stdlib5array11smooth_func
FNDA:0,_RNvNtCsgiIQ3x9G6Hx_10xdl_stdlib5array12reverse_func
FNDA:0,_RNvNtCsgiIQ3x9G6Hx_10xdl_stdlib5array12transpose_2d
FNDA:0,_RNvNtCsgiIQ3x9G6Hx_10xdl_stdlib5array14transpose_func
FNDA:0,_RNvNtCsgiIQ3x9G6Hx_10xdl_stdlib5array17extract_dimension
FNDA:0,_RNvNtCsgiIQ3x9G6Hx_10xdl_stdlib5array19moving_average_func
FNDA:0,_RNvNtCsgiIQ3x9G6Hx_10xdl_stdlib5array20calculate_total_size
FNDA:0,_RNvNtCsgiIQ3x9G6Hx_10xdl_stdlib5array23cumulative_average_func
FNDA:0,_RNvNtCsgiIQ3x9G6Hx_10xdl_stdlib5array6bytarr
FNDA:0,_RNvNtCsgiIQ3x9G6Hx_10xdl_stdlib5array6dblarr
FNDA:0,_RNvNtCsgiIQ3x9G6Hx_10xdl_stdlib5array6fltarr
FNDA:0,_RNvNtCsgiIQ3x9G6Hx_10xdl_stdlib5array6intarr
FNDA:0,_RNvNtCsgiIQ3x9G6Hx_10xdl_stdlib5array6lonarr
FNDA:0,_RNvNtCsgiIQ3x9G6Hx_10xdl_stdlib5array6strarr
FNDA:0,_RNvNtCsgiIQ3x9G6Hx_10xdl_stdlib5array8ema_func
FNDA:0,_RNvNtCsgiIQ3x9G6Hx_10xdl_stdlib5array8max_func
FNDA:0,_RNvNtCsgiIQ3x9G6Hx_10xdl_stdlib5array8meshgrid
FNDA:0,_RNvNtCsgiIQ3x9G6Hx_10xdl_stdlib5array8min_func
FNDA:0,_RNvNtCsgiIQ3x9G6Hx_10xdl_stdlib5array8wma_func
FNDA:0,_RNvNtCsgiIQ3x9G6Hx_10xdl_stdlib5array9mean_func
FNDA:0,_RNvNtCsgiIQ3x9G6Hx_10xdl_stdlib5array9sort_func
FNDA:0,_RNvXs_NtCsgiIQ3x9G6Hx_10xdl_stdlib5arrayNtB4_14ArrayFunctionsNtNtCs2CqrNpCrSUr_4core7default7Default7default
FNF:31
FNH:0
DA:8,0
DA:9,0
DA:10,0
DA:14,0
DA:15,0
DA:16,0
DA:20,0
DA:21,0
DA:22,0
DA:23,0
DA:24,0
DA:25,0
DA:26,0
DA:27,0
DA:28,0
DA:30,0
DA:31,0
DA:32,0
DA:33,0
DA:34,0
DA:35,0
DA:36,0
DA:38,0
DA:39,0
DA:40,0
DA:41,0
DA:42,0
DA:43,0
DA:44,0
DA:45,0
DA:47,0
DA:48,0
DA:49,0
DA:50,0
DA:51,0
DA:52,0
DA:53,0
DA:55,0
DA:56,0
DA:57,0
DA:58,0
DA:60,0
DA:63,0
DA:64,0
DA:65,0
DA:66,0
DA:67,0
DA:68,0
DA:69,0
DA:71,0
DA:72,0
DA:76,0
DA:77,0
DA:78,0
DA:79,0
DA:80,0
DA:81,0
DA:83,0
DA:87,0
DA:88,0
DA:89,0
DA:93,0
DA:94,0
DA:95,0
DA:96,0
DA:97,0
DA:98,0
DA:100,0
DA:101,0
DA:102,0
DA:103,0
DA:107,0
DA:108,0
DA:109,0
DA:110,0
DA:111,0
DA:112,0
DA:114,0
DA:115,0
DA:116,0
DA:117,0
DA:121,0
DA:122,0
DA:123,0
DA:124,0
DA:125,0
DA:126,0
DA:128,0
DA:129,0
DA:130,0
DA:131,0
DA:135,0
DA:136,0
DA:137,0
DA:138,0
DA:139,0
DA:140,0
DA:142,0
DA:143,0
DA:144,0
DA:145,0
DA:150,0
DA:151,0
DA:152,0
DA:153,0
DA:154,0
DA:155,0
DA:157,0
DA:160,0
DA:161,0
DA:162,0
DA:165,0
DA:166,0
DA:167,0
DA:168,0
DA:169,0
DA:170,0
DA:171,0
DA:173,0
DA:174,0
DA:175,0
DA:176,0
DA:178,0
DA:188,0
DA:189,0
DA:190,0
DA:191,0
DA:192,0
DA:193,0
DA:194,0
DA:197,0
DA:198,0
DA:199,0
DA:201,0
DA:202,0
DA:204,0
DA:207,0
DA:208,0
DA:209,0
DA:211,0
DA:214,0
DA:215,0
DA:216,0
DA:218,0
DA:221,0
DA:222,0
DA:223,0
DA:225,0
DA:228,0
DA:229,0
DA:230,0
DA:232,0
DA:236,0
DA:237,0
DA:238,0
DA:239,0
DA:244,0
DA:245,0
DA:247,0
DA:248,0
DA:249,0
DA:253,0
DA:255,0
DA:256,0
DA:258,0
DA:261,0
DA:263,0
DA:266,0
DA:267,0
DA:268,0
DA:269,0
DA:270,0
DA:271,0
DA:272,0
DA:274,0
DA:275,0
DA:276,0
DA:277,0
DA:278,0
DA:279,0
DA:280,0
DA:282,0
DA:284,0
DA:287,0
DA:288,0
DA:289,0
DA:290,0
DA:291,0
DA:292,0
DA:293,0
DA:295,0
DA:296,0
DA:297,0
DA:298,0
DA:299,0
DA:300,0
DA:301,0
DA:303,0
DA:305,0
DA:308,0
DA:309,0
DA:310,0
DA:311,0
DA:312,0
DA:313,0
DA:314,0
DA:316,0
DA:317,0
DA:318,0
DA:319,0
DA:320,0
DA:321,0
DA:322,0
DA:323,0
DA:325,0
DA:326,0
DA:327,0
DA:330,0
DA:333,0
DA:334,0
DA:335,0
DA:336,0
DA:337,0
DA:338,0
DA:339,0
DA:341,0
DA:342,0
DA:343,0
DA:344,0
DA:346,0
DA:347,0
DA:348,0
DA:351,0
DA:354,0
DA:355,0
DA:356,0
DA:357,0
DA:358,0
DA:359,0
DA:360,0
DA:362,0
DA:363,0
DA:364,0
DA:365,0
DA:366,0
DA:368,0
DA:370,0
DA:373,0
DA:374,0
DA:375,0
DA:376,0
DA:377,0
DA:378,0
DA:379,0
DA:381,0
DA:382,0
DA:383,0
DA:384,0
DA:385,0
DA:387,0
DA:389,0
DA:394,0
DA:395,0
DA:396,0
DA:397,0
DA:398,0
DA:399,0
DA:400,0
DA:402,0
DA:403,0
DA:405,0
DA:406,0
DA:407,0
DA:408,0
DA:412,0
DA:413,0
DA:414,0
DA:417,0
DA:418,0
DA:419,0
DA:420,0
DA:421,0
DA:422,0
DA:424,0
DA:425,0
DA:426,0
DA:427,0
DA:431,0
DA:434,0
DA:435,0
DA:436,0
DA:437,0
DA:438,0
DA:440,0
DA:441,0
DA:442,0
DA:443,0
DA:444,0
DA:445,0
DA:446,0
DA:448,0
DA:449,0
DA:450,0
DA:453,0
DA:454,0
DA:455,0
DA:457,0
DA:458,0
DA:459,0
DA:462,0
DA:463,0
DA:464,0
DA:465,0
DA:466,0
DA:468,0
DA:471,0
DA:472,0
DA:473,0
DA:474,0
DA:477,0
DA:478,0
DA:480,0
DA:484,0
DA:485,0
DA:490,0
DA:491,0
DA:492,0
DA:493,0
DA:494,0
DA:495,0
DA:496,0
DA:498,0
DA:499,0
DA:501,0
DA:502,0
DA:503,0
DA:504,0
DA:508,0
DA:509,0
DA:510,0
DA:512,0
DA:513,0
DA:514,0
DA:515,0
DA:516,0
DA:518,0
DA:519,0
DA:520,0
DA:521,0
DA:525,0
DA:526,0
DA:527,0
DA:528,0
DA:529,0
DA:532,0
DA:533,0
DA:534,0
DA:535,0
DA:536,0
DA:539,0
DA:542,0
DA:544,0
DA:547,0
DA:548,0
DA:549,0
DA:550,0
DA:551,0
DA:553,0
DA:554,0
DA:555,0
DA:556,0
DA:557,0
DA:558,0
DA:561,0
DA:565,0
DA:566,0
DA:568,0
DA:569,0
DA:570,0
DA:571,0
DA:572,0
DA:573,0
DA:574,0
DA:575,0
DA:578,0
DA:582,0
DA:583,0
DA:585,0
DA:586,0
DA:587,0
DA:589,0
DA:590,0
DA:591,0
DA:593,0
DA:594,0
DA:595,0
DA:596,0
DA:597,0
DA:598,0
DA:599,0
DA:601,0
DA:604,0
DA:607,0
DA:608,0
DA:609,0
DA:610,0
DA:613,0
DA:614,0
DA:616,0
DA:620,0
DA:624,0
DA:625,0
DA:626,0
DA:628,0
DA:629,0
DA:630,0
DA:631,0
DA:632,0
DA:634,0
DA:635,0
DA:636,0
DA:637,0
DA:638,0
DA:640,0
DA:643,0
DA:645,0
DA:646,0
DA:647,0
DA:648,0
DA:650,0
DA:655,0
DA:656,0
DA:657,0
DA:658,0
DA:659,0
DA:660,0
DA:661,0
DA:663,0
DA:664,0
DA:666,0
DA:667,0
DA:668,0
DA:669,0
DA:673,0
DA:674,0
DA:675,0
DA:677,0
DA:678,0
DA:679,0
DA:680,0
DA:681,0
DA:683,0
DA:684,0
DA:685,0
DA:686,0
DA:690,0
DA:691,0
DA:692,0
DA:693,0
DA:694,0
DA:696,0
DA:697,0
DA:698,0
DA:699,0
DA:700,0
DA:701,0
DA:702,0
DA:704,0
DA:705,0
DA:708,0
DA:710,0
DA:711,0
DA:712,0
DA:713,0
DA:714,0
DA:715,0
DA:716,0
DA:719,0
DA:720,0
DA:725,0
DA:726,0
DA:727,0
DA:728,0
DA:729,0
DA:730,0
DA:731,0
DA:733,0
DA:734,0
DA:736,0
DA:737,0
DA:738,0
DA:739,0
DA:743,0
DA:744,0
DA:745,0
DA:747,0
DA:748,0
DA:749,0
DA:750,0
DA:751,0
DA:753,0
DA:754,0
DA:755,0
DA:756,0
DA:760,0
DA:761,0
DA:762,0
DA:763,0
DA:764,0
DA:765,0
DA:767,0
DA:768,0
DA:771,0
DA:774,0
DA:775,0
DA:776,0
DA:778,0
DA:779,0
DA:784,0
DA:785,0
DA:786,0
DA:787,0
DA:788,0
DA:789,0
DA:790,0
DA:792,0
DA:793,0
DA:795,0
DA:796,0
DA:797,0
DA:798,0
DA:802,0
DA:803,0
DA:804,0
DA:806,0
DA:807,0
DA:808,0
DA:810,0
DA:811,0
DA:812,0
DA:813,0
DA:815,0
DA:816,0
DA:827,0
DA:828,0
DA:829,0
DA:830,0
DA:831,0
DA:832,0
DA:833,0
DA:836,0
DA:837,0
DA:839,0
DA:840,0
DA:841,0
DA:842,0
DA:847,0
DA:848,0
DA:849,0
DA:850,0
DA:854,0
DA:857,0
DA:858,0
DA:859,0
DA:860,0
DA:861,0
DA:862,0
DA:863,0
DA:867,0
DA:869,0
DA:872,0
DA:873,0
DA:874,0
DA:875,0
DA:877,0
DA:891,0
DA:892,0
DA:893,0
DA:894,0
DA:895,0
DA:896,0
DA:899,0
DA:900,0
DA:902,0
DA:903,0
DA:904,0
DA:905,0
DA:917,0
DA:918,0
DA:919,0
DA:920,0
DA:921,0
DA:922,0
DA:931,0
DA:932,0
DA:933,0
DA:934,0
DA:935,0
DA:936,0
DA:937,0
DA:940,0
DA:941,0
DA:943,0
DA:944,0
DA:945,0
DA:946,0
DA:950,0
DA:951,0
DA:953,0
DA:954,0
DA:955,0
DA:956,0
DA:960,0
DA:961,0
DA:965,0
DA:966,0
DA:967,0
DA:968,0
DA:969,0
DA:974,0
DA:975,0
DA:976,0
DA:977,0
DA:978,0
DA:984,0
DA:985,0
DA:986,0
DA:987,0
DA:989,0
DA:990,0
DA:991,0
DA:992,0
DA:995,0
DA:996,0
DA:1001,0
DA:1002,0
DA:1003,0
DA:1004,0
DA:1005,0
DA:1006,0
DA:1007,0
DA:1008,0
DA:1009,0
DA:1011,0
DA:1015,0
DA:1016,0
DA:1017,0
DA:1018,0
DA:1021,0
DA:1022,0
BRF:0
BRH:0
LF:654
LH:0
end_of_record
SF:/Users/ravindraboddipalli/sources/xdl/xdl-stdlib/src/complex.rs
FN:97,_RNvNtCs7X22eMfvUxK_10xdl_stdlib7complex11complex_abs
FN:120,_RNvNtCs7X22eMfvUxK_10xdl_stdlib7complex12complex_atan
FN:63,_RNvNtCs7X22eMfvUxK_10xdl_stdlib7complex14imaginary_part
FN:80,_RNvNtCs7X22eMfvUxK_10xdl_stdlib7complex4conj
FN:8,_RNvNtCs7X22eMfvUxK_10xdl_stdlib7complex7complex
FN:46,_RNvNtCs7X22eMfvUxK_10xdl_stdlib7complex9real_part
FN:142,_RNvNtNtCsgiIQ3x9G6Hx_10xdl_stdlib7complex5testss_14test_real_part
FN:154,_RNvNtNtCsgiIQ3x9G6Hx_10xdl_stdlib7complex5testss_19test_imaginary_part
FN:129,_RNvNtNtCsgiIQ3x9G6Hx_10xdl_stdlib7complex5testss_21test_complex_creation
FN:97,_RNvNtCsgiIQ3x9G6Hx_10xdl_stdlib7complex11complex_abs
FN:120,_RNvNtCsgiIQ3x9G6Hx_10xdl_stdlib7complex12complex_atan
FN:80,_RNvNtCsgiIQ3x9G6Hx_10xdl_stdlib7complex4conj
FN:63,_RNvNtCsgiIQ3x9G6Hx_10xdl_stdlib7complex14imaginary_part
FN:8,_RNvNtCsgiIQ3x9G6Hx_10xdl_stdlib7complex7complex
FN:46,_RNvNtCsgiIQ3x9G6Hx_10xdl_stdlib7complex9real_part
FNDA:0,_RNvNtCs7X22eMfvUxK_10xdl_stdlib7complex11complex_abs
FNDA:0,_RNvNtCs7X22eMfvUxK_10xdl_stdlib7complex12complex_atan
FNDA:0,_RNvNtCs7X22eMfvUxK_10xdl_stdlib7complex14imaginary_part
FNDA:0,_RNvNtCs7X22eMfvUxK_10xdl_stdlib7complex4conj
FNDA:0,_RNvNtCs7X22eMfvUxK_10xdl_stdlib7complex7complex
FNDA:0,_RNvNtCs7X22eMfvUxK_10xdl_stdlib7complex9real_part
FNDA:1,_RNvNtNtCsgiIQ3x9G6Hx_10xdl_stdlib7complex5testss_14test_real_part
FNDA:1,_RNvNtNtCsgiIQ3x9G6Hx_10xdl_stdlib7complex5testss_19test_imaginary_part
FNDA:1,_RNvNtNtCsgiIQ3x9G6Hx_10xdl_stdlib7complex5testss_21test_complex_creation
FNDA:0,_RNvNtCsgiIQ3x9G6Hx_10xdl_stdlib7complex11complex_abs
FNDA:0,_RNvNtCsgiIQ3x9G6Hx_10xdl_stdlib7complex12complex_atan
FNDA:0,_RNvNtCsgiIQ3x9G6Hx_10xdl_stdlib7complex4conj
FNDA:1,_RNvNtCsgiIQ3x9G6Hx_10xdl_stdlib7complex14imaginary_part
FNDA:1,_RNvNtCsgiIQ3x9G6Hx_10xdl_stdlib7complex7complex
FNDA:1,_RNvNtCsgiIQ3x9G6Hx_10xdl_stdlib7complex9real_part
FNF:9
FNH:6
DA:8,1
DA:9,1
DA:10,0
DA:11,0
DA:12,0
DA:13,0
DA:14,1
DA:16,1
DA:17,1
DA:18,0
DA:19,0
DA:20,0
DA:22,0
DA:23,0
DA:24,0
DA:25,0
DA:29,1
DA:30,1
DA:31,0
DA:32,0
DA:33,0
DA:35,0
DA:36,0
DA:37,0
DA:38,0
DA:42,1
DA:43,1
DA:46,1
DA:47,1
DA:48,0
DA:49,0
DA:50,0
DA:51,0
DA:52,1
DA:54,1
DA:55,0
DA:56,1
DA:58,0
DA:60,1
DA:63,1
DA:64,1
DA:65,0
DA:66,0
DA:67,0
DA:68,0
DA:69,1
DA:71,1
DA:72,0
DA:73,1
DA:75,0
DA:77,1
DA:80,0
DA:81,0
DA:82,0
DA:83,0
DA:84,0
DA:85,0
DA:86,0
DA:88,0
DA:89,0
DA:90,0
DA:92,0
DA:94,0
DA:97,0
DA:98,0
DA:99,0
DA:100,0
DA:101,0
DA:102,0
DA:103,0
DA:105,0
DA:106,0
DA:107,0
DA:108,0
DA:109,0
DA:110,0
DA:111,0
DA:112,0
DA:113,0
DA:114,0
DA:115,0
DA:117,0
DA:120,0
DA:121,0
DA:122,0
DA:129,1
DA:130,1
DA:131,1
DA:133,1
DA:134,1
DA:135,1
DA:137,0
DA:139,1
DA:142,1
DA:143,1
DA:144,1
DA:146,1
DA:147,1
DA:149,0
DA:151,1
DA:154,1
DA:155,1
DA:156,1
DA:158,1
DA:159,1
DA:161,0
DA:163,1
BRF:0
BRH:0
LF:107
LH:40
end_of_record
SF:/Users/ravindraboddipalli/sources/xdl/xdl-stdlib/src/graphics/colormap.rs
FN:244,_RNCNvMNtNtCs7X22eMfvUxK_10xdl_stdlib8graphics8colormapNtB4_8ColorMap14generate_table0B8_
FN:208,_RNvMNtNtCs7X22eMfvUxK_10xdl_stdlib8graphics8colormapNtB2_8ColorMap10custom_map
FN:124,_RNvMNtNtCs7X22eMfvUxK_10xdl_stdlib8graphics8colormapNtB2_8ColorMap11rainbow_map
FN:152,_RNvMNtNtCs7X22eMfvUxK_10xdl_stdlib8graphics8colormapNtB2_8ColorMap11terrain_map
FN:118,_RNvMNtNtCs7X22eMfvUxK_10xdl_stdlib8graphics8colormapNtB2_8ColorMap12colorous_map
FN:136,_RNvMNtNtCs7X22eMfvUxK_10xdl_stdlib8graphics8colormapNtB2_8ColorMap12discrete_map
FN:242,_RNvMNtNtCs7X22eMfvUxK_10xdl_stdlib8graphics8colormapNtB2_8ColorMap14generate_table
FN:191,_RNvMNtNtCs7X22eMfvUxK_10xdl_stdlib8graphics8colormapNtB2_8ColorMap14topography_map
FN:232,_RNvMNtNtCs7X22eMfvUxK_10xdl_stdlib8graphics8colormapNtB2_8ColorMap17interpolate_color
FN:84,_RNvMNtNtCs7X22eMfvUxK_10xdl_stdlib8graphics8colormapNtB2_8ColorMap3map
FN:60,_RNvMNtNtCs7X22eMfvUxK_10xdl_stdlib8graphics8colormapNtB2_8ColorMap3new
FN:69,_RNvMNtNtCs7X22eMfvUxK_10xdl_stdlib8graphics8colormapNtB2_8ColorMap6custom
FN:144,_RNvMNtNtCs7X22eMfvUxK_10xdl_stdlib8graphics8colormapNtB2_8ColorMap7jet_map
FN:202,_RNvMNtNtCs7X22eMfvUxK_10xdl_stdlib8graphics8colormapNtB2_8ColorMap8grey_map
FN:78,_RNvMNtNtCs7X22eMfvUxK_10xdl_stdlib8graphics8colormapNtB2_8ColorMap8reversed
FN:184,_RNvMNtNtCs7X22eMfvUxK_10xdl_stdlib8graphics8colormapNtB2_8ColorMap9ocean_map
FN:277,_RNvNtNtCs7X22eMfvUxK_10xdl_stdlib8graphics8colormap5ocean
FN:269,_RNvNtNtCs7X22eMfvUxK_10xdl_stdlib8graphics8colormap5turbo
FN:261,_RNvNtNtCs7X22eMfvUxK_10xdl_stdlib8graphics8colormap6plasma
FN:265,_RNvNtNtCs7X22eMfvUxK_10xdl_stdlib8graphics8colormap7inferno
FN:273,_RNvNtNtCs7X22eMfvUxK_10xdl_stdlib8graphics8colormap7terrain
FN:257,_RNvNtNtCs7X22eMfvUxK_10xdl_stdlib8graphics8colormap7viridis
FN:315,_RNvNtNtNtCsgiIQ3x9G6Hx_10xdl_stdlib8graphics8colormap5testss_16test_terrain_map
FN:286,_RNvNtNtNtCsgiIQ3x9G6Hx_10xdl_stdlib8graphics8colormap5testss_18test_viridis_range
FN:297,_RNvNtNtNtCsgiIQ3x9G6Hx_10xdl_stdlib8graphics8colormap5testss_20test_custom_colormap
FN:208,_RNvMNtNtCsgiIQ3x9G6Hx_10xdl_stdlib8graphics8colormapNtB2_8ColorMap10custom_map
FN:124,_RNvMNtNtCsgiIQ3x9G6Hx_10xdl_stdlib8graphics8colormapNtB2_8ColorMap11rainbow_map
FN:152,_RNvMNtNtCsgiIQ3x9G6Hx_10xdl_stdlib8graphics8colormapNtB2_8ColorMap11terrain_map
FN:118,_RNvMNtNtCsgiIQ3x9G6Hx_10xdl_stdlib8graphics8colormapNtB2_8ColorMap12colorous_map
FN:136,_RNvMNtNtCsgiIQ3x9G6Hx_10xdl_stdlib8graphics8colormapNtB2_8ColorMap12discrete_map
FN:191,_RNvMNtNtCsgiIQ3x9G6Hx_10xdl_stdlib8graphics8colormapNtB2_8ColorMap14topography_map
FN:232,_RNvMNtNtCsgiIQ3x9G6Hx_10xdl_stdlib8graphics8colormapNtB2_8ColorMap17interpolate_color
FN:84,_RNvMNtNtCsgiIQ3x9G6Hx_10xdl_stdlib8graphics8colormapNtB2_8ColorMap3map
FN:60,_RNvMNtNtCsgiIQ3x9G6Hx_10xdl_stdlib8graphics8colormapNtB2_8ColorMap3new
FN:69,_RNvMNtNtCsgiIQ3x9G6Hx_10xdl_stdlib8graphics8colormapNtB2_8ColorMap6custom
FN:144,_RNvMNtNtCsgiIQ3x9G6Hx_10xdl_stdlib8graphics8colormapNtB2_8ColorMap7jet_map
FN:202,_RNvMNtNtCsgiIQ3x9G6Hx_10xdl_stdlib8graphics8colormapNtB2_8ColorMap8grey_map
FN:184,_RNvMNtNtCsgiIQ3x9G6Hx_10xdl_stdlib8graphics8colormapNtB2_8ColorMap9ocean_map
FN:273,_RNvNtNtCsgiIQ3x9G6Hx_10xdl_stdlib8graphics8colormap7terrain
FN:257,_RNvNtNtCsgiIQ3x9G6Hx_10xdl_stdlib8graphics8colormap7viridis
FN:244,_RNCNvMNtNtCsgiIQ3x9G6Hx_10xdl_stdlib8graphics8colormapNtB4_8ColorMap14generate_table0B8_
FN:242,_RNvMNtNtCsgiIQ3x9G6Hx_10xdl_stdlib8graphics8colormapNtB2_8ColorMap14generate_table
FN:78,_RNvMNtNtCsgiIQ3x9G6Hx_10xdl_stdlib8graphics8colormapNtB2_8ColorMap8reversed
FN:277,_RNvNtNtCsgiIQ3x9G6Hx_10xdl_stdlib8graphics8colormap5ocean
FN:269,_RNvNtNtCsgiIQ3x9G6Hx_10xdl_stdlib8graphics8colormap5turbo
FN:261,_RNvNtNtCsgiIQ3x9G6Hx_10xdl_stdlib8graphics8colormap6plasma
FN:265,_RNvNtNtCsgiIQ3x9G6Hx_10xdl_stdlib8graphics8colormap7inferno
FNDA:0,_RNCNvMNtNtCs7X22eMfvUxK_10xdl_stdlib8graphics8colormapNtB4_8ColorMap14generate_table0B8_
FNDA:0,_RNvMNtNtCs7X22eMfvUxK_10xdl_stdlib8graphics8colormapNtB2_8ColorMap10custom_map
FNDA:0,_RNvMNtNtCs7X22eMfvUxK_10xdl_stdlib8graphics8colormapNtB2_8ColorMap11rainbow_map
FNDA:0,_RNvMNtNtCs7X22eMfvUxK_10xdl_stdlib8graphics8colormapNtB2_8ColorMap11terrain_map
FNDA:0,_RNvMNtNtCs7X22eMfvUxK_10xdl_stdlib8graphics8colormapNtB2_8ColorMap12colorous_map
FNDA:0,_RNvMNtNtCs7X22eMfvUxK_10xdl_stdlib8graphics8colormapNtB2_8ColorMap12discrete_map
FNDA:0,_RNvMNtNtCs7X22eMfvUxK_10xdl_stdlib8graphics8colormapNtB2_8ColorMap14generate_table
FNDA:0,_RNvMNtNtCs7X22eMfvUxK_10xdl_stdlib8graphics8colormapNtB2_8ColorMap14topography_map
FNDA:0,_RNvMNtNtCs7X22eMfvUxK_10xdl_stdlib8graphics8colormapNtB2_8ColorMap17interpolate_color
FNDA:0,_RNvMNtNtCs7X22eMfvUxK_10xdl_stdlib8graphics8colormapNtB2_8ColorMap3map
FNDA:0,_RNvMNtNtCs7X22eMfvUxK_10xdl_stdlib8graphics8colormapNtB2_8ColorMap3new
FNDA:0,_RNvMNtNtCs7X22eMfvUxK_10xdl_stdlib8graphics8colormapNtB2_8ColorMap6custom
FNDA:0,_RNvMNtNtCs7X22eMfvUxK_10xdl_stdlib8graphics8colormapNtB2_8ColorMap7jet_map
FNDA:0,_RNvMNtNtCs7X22eMfvUxK_10xdl_stdlib8graphics8colormapNtB2_8ColorMap8grey_map
FNDA:0,_RNvMNtNtCs7X22eMfvUxK_10xdl_stdlib8graphics8colormapNtB2_8ColorMap8reversed
FNDA:0,_RNvMNtNtCs7X22eMfvUxK_10xdl_stdlib8graphics8colormapNtB2_8ColorMap9ocean_map
FNDA:0,_RNvNtNtCs7X22eMfvUxK_10xdl_stdlib8graphics8colormap5ocean
FNDA:0,_RNvNtNtCs7X22eMfvUxK_10xdl_stdlib8graphics8colormap5turbo
FNDA:0,_RNvNtNtCs7X22eMfvUxK_10xdl_stdlib8graphics8colormap6plasma
FNDA:0,_RNvNtNtCs7X22eMfvUxK_10xdl_stdlib8graphics8colormap7inferno
FNDA:0,_RNvNtNtCs7X22eMfvUxK_10xdl_stdlib8graphics8colormap7terrain
FNDA:0,_RNvNtNtCs7X22eMfvUxK_10xdl_stdlib8graphics8colormap7viridis
FNDA:1,_RNvNtNtNtCsgiIQ3x9G6Hx_10xdl_stdlib8graphics8colormap5testss_16test_terrain_map
FNDA:1,_RNvNtNtNtCsgiIQ3x9G6Hx_10xdl_stdlib8graphics8colormap5testss_18test_viridis_range
FNDA:1,_RNvNtNtNtCsgiIQ3x9G6Hx_10xdl_stdlib8graphics8colormap5testss_20test_custom_colormap
FNDA:3,_RNvMNtNtCsgiIQ3x9G6Hx_10xdl_stdlib8graphics8colormapNtB2_8ColorMap10custom_map
FNDA:0,_RNvMNtNtCsgiIQ3x9G6Hx_10xdl_stdlib8graphics8colormapNtB2_8ColorMap11rainbow_map
FNDA:3,_RNvMNtNtCsgiIQ3x9G6Hx_10xdl_stdlib8graphics8colormapNtB2_8ColorMap11terrain_map
FNDA:2,_RNvMNtNtCsgiIQ3x9G6Hx_10xdl_stdlib8graphics8colormapNtB2_8ColorMap12colorous_map
FNDA:0,_RNvMNtNtCsgiIQ3x9G6Hx_10xdl_stdlib8graphics8colormapNtB2_8ColorMap12discrete_map
FNDA:0,_RNvMNtNtCsgiIQ3x9G6Hx_10xdl_stdlib8graphics8colormapNtB2_8ColorMap14topography_map
FNDA:5,_RNvMNtNtCsgiIQ3x9G6Hx_10xdl_stdlib8graphics8colormapNtB2_8ColorMap17interpolate_color
FNDA:8,_RNvMNtNtCsgiIQ3x9G6Hx_10xdl_stdlib8graphics8colormapNtB2_8ColorMap3map
FNDA:2,_RNvMNtNtCsgiIQ3x9G6Hx_10xdl_stdlib8graphics8colormapNtB2_8ColorMap3new
FNDA:1,_RNvMNtNtCsgiIQ3x9G6Hx_10xdl_stdlib8graphics8colormapNtB2_8ColorMap6custom
FNDA:0,_RNvMNtNtCsgiIQ3x9G6Hx_10xdl_stdlib8graphics8colormapNtB2_8ColorMap7jet_map
FNDA:0,_RNvMNtNtCsgiIQ3x9G6Hx_10xdl_stdlib8graphics8colormapNtB2_8ColorMap8grey_map
FNDA:0,_RNvMNtNtCsgiIQ3x9G6Hx_10xdl_stdlib8graphics8colormapNtB2_8ColorMap9ocean_map
FNDA:1,_RNvNtNtCsgiIQ3x9G6Hx_10xdl_stdlib8graphics8colormap7terrain
FNDA:1,_RNvNtNtCsgiIQ3x9G6Hx_10xdl_stdlib8graphics8colormap7viridis
FNDA:0,_RNCNvMNtNtCsgiIQ3x9G6Hx_10xdl_stdlib8graphics8colormapNtB4_8ColorMap14generate_table0B8_
FNDA:0,_RNvMNtNtCsgiIQ3x9G6Hx_10xdl_stdlib8graphics8colormapNtB2_8ColorMap14generate_table
FNDA:0,_RNvMNtNtCsgiIQ3x9G6Hx_10xdl_stdlib8graphics8colormapNtB2_8ColorMap8reversed
FNDA:0,_RNvNtNtCsgiIQ3x9G6Hx_10xdl_stdlib8graphics8colormap5ocean
FNDA:0,_RNvNtNtCsgiIQ3x9G6Hx_10xdl_stdlib8graphics8colormap5turbo
FNDA:0,_RNvNtNtCsgiIQ3x9G6Hx_10xdl_stdlib8graphics8colormap6plasma
FNDA:0,_RNvNtNtCsgiIQ3x9G6Hx_10xdl_stdlib8graphics8colormap7inferno
FNF:25
FNH:12
DA:60,2
DA:61,2
DA:62,2
DA:63,2
DA:64,2
DA:65,2
DA:66,2
DA:69,1
DA:70,1
DA:71,1
DA:72,1
DA:73,1
DA:74,1
DA:75,1
DA:78,0
DA:79,0
DA:80,0
DA:81,0
DA:84,8
DA:85,8
DA:86,0
DA:88,8
DA:91,8
DA:92,2
DA:93,0
DA:94,0
DA:95,0
DA:96,0
DA:97,0
DA:98,0
DA:99,0
DA:100,0
DA:101,0
DA:102,0
DA:103,0
DA:104,0
DA:105,0
DA:106,0
DA:107,0
DA:108,0
DA:109,3
DA:110,0
DA:111,0
DA:112,0
DA:113,3
DA:115,8
DA:118,2
DA:119,2
DA:120,2
DA:121,2
DA:124,0
DA:125,0
DA:126,0
DA:127,0
DA:128,0
DA:129,0
DA:130,0
DA:131,0
DA:133,0
DA:136,0
DA:137,0
DA:138,0
DA:139,0
DA:140,0
DA:141,0
DA:144,0
DA:145,0
DA:146,0
DA:147,0
DA:148,0
DA:149,0
DA:152,3
DA:153,3
DA:155,0
DA:156,3
DA:158,1
DA:159,2
DA:161,0
DA:162,0
DA:163,0
DA:164,0
DA:166,2
DA:168,1
DA:169,1
DA:170,1
DA:171,1
DA:175,1
DA:176,1
DA:177,1
DA:178,1
DA:181,3
DA:184,0
DA:185,0
DA:186,0
DA:187,0
DA:188,0
DA:191,0
DA:192,0
DA:194,0
DA:197,0
DA:199,0
DA:202,0
DA:203,0
DA:204,0
DA:205,0
DA:208,3
DA:209,3
DA:210,3
DA:211,0
DA:212,3
DA:213,3
DA:214,0
DA:215,3
DA:217,3
DA:218,3
DA:219,3
DA:221,3
DA:222,1
DA:223,2
DA:225,2
DA:227,0
DA:229,3
DA:232,5
DA:233,5
DA:234,5
DA:235,5
DA:236,5
DA:237,5
DA:239,5
DA:242,0
DA:243,0
DA:244,0
DA:245,0
DA:246,0
DA:248,0
DA:250,0
DA:251,0
DA:252,0
DA:253,0
DA:257,1
DA:258,1
DA:259,1
DA:261,0
DA:262,0
DA:263,0
DA:265,0
DA:266,0
DA:267,0
DA:269,0
DA:270,0
DA:271,0
DA:273,1
DA:274,1
DA:275,1
DA:277,0
DA:278,0
DA:279,0
DA:286,1
DA:287,1
DA:288,1
DA:289,1
DA:292,1
DA:293,1
DA:294,1
DA:297,1
DA:298,1
DA:299,1
DA:300,1
DA:301,1
DA:303,1
DA:305,1
DA:306,1
DA:307,1
DA:309,1
DA:310,1
DA:311,1
DA:312,1
DA:315,1
DA:316,1
DA:317,1
DA:318,1
DA:319,1
DA:322,1
DA:324,1
DA:325,1
BRF:0
BRH:0
LF:186
LH:96
end_of_record
SF:/Users/ravindraboddipalli/sources/xdl/xdl-stdlib/src/graphics/export.rs
FN:200,_RNCNvNtNtCs7X22eMfvUxK_10xdl_stdlib8graphics6export14export_to_html0B7_
FN:207,_RNCNvNtNtCs7X22eMfvUxK_10xdl_stdlib8graphics6export14export_to_htmls_0B7_
FN:217,_RNvNtNtNtCsgiIQ3x9G6Hx_10xdl_stdlib8graphics6export5testss_18test_export_config
FN:229,_RNvNtNtNtCsgiIQ3x9G6Hx_10xdl_stdlib8graphics6export5testss_20test_html_generation
FN:200,_RNCNvNtNtCsgiIQ3x9G6Hx_10xdl_stdlib8graphics6export14export_to_html0B7_
FN:207,_RNCNvNtNtCsgiIQ3x9G6Hx_10xdl_stdlib8graphics6export14export_to_htmls_0B7_
FN:56,_RNvMs_NtNtCsgiIQ3x9G6Hx_10xdl_stdlib8graphics6exportNtB4_12ExportConfig15with_background
FN:189,_RNvNtNtCsgiIQ3x9G6Hx_10xdl_stdlib8graphics6export14export_to_html
FN:38,_RNvMs_NtNtCsgiIQ3x9G6Hx_10xdl_stdlib8graphics6exportNtB4_12ExportConfig3new
FN:51,_RNvMs_NtNtCsgiIQ3x9G6Hx_10xdl_stdlib8graphics6exportNtB4_12ExportConfig8with_dpi
FN:45,_RNvMs_NtNtCsgiIQ3x9G6Hx_10xdl_stdlib8graphics6exportNtB4_12ExportConfig9with_size
FN:76,_RNvNtNtCsgiIQ3x9G6Hx_10xdl_stdlib8graphics6export21generate_html_wrapper
FN:26,_RNvXNtNtCsgiIQ3x9G6Hx_10xdl_stdlib8graphics6exportNtB2_12ExportConfigNtNtCs2CqrNpCrSUr_4core7default7Default7default
FNDA:0,_RNCNvNtNtCs7X22eMfvUxK_10xdl_stdlib8graphics6export14export_to_html0B7_
FNDA:0,_RNCNvNtNtCs7X22eMfvUxK_10xdl_stdlib8graphics6export14export_to_htmls_0B7_
FNDA:1,_RNvNtNtNtCsgiIQ3x9G6Hx_10xdl_stdlib8graphics6export5testss_18test_export_config
FNDA:1,_RNvNtNtNtCsgiIQ3x9G6Hx_10xdl_stdlib8graphics6export5testss_20test_html_generation
FNDA:0,_RNCNvNtNtCsgiIQ3x9G6Hx_10xdl_stdlib8graphics6export14export_to_html0B7_
FNDA:0,_RNCNvNtNtCsgiIQ3x9G6Hx_10xdl_stdlib8graphics6export14export_to_htmls_0B7_
FNDA:0,_RNvMs_NtNtCsgiIQ3x9G6Hx_10xdl_stdlib8graphics6exportNtB4_12ExportConfig15with_background
FNDA:0,_RNvNtNtCsgiIQ3x9G6Hx_10xdl_stdlib8graphics6export14export_to_html
FNDA:1,_RNvMs_NtNtCsgiIQ3x9G6Hx_10xdl_stdlib8graphics6exportNtB4_12ExportConfig3new
FNDA:1,_RNvMs_NtNtCsgiIQ3x9G6Hx_10xdl_stdlib8graphics6exportNtB4_12ExportConfig8with_dpi
FNDA:1,_RNvMs_NtNtCsgiIQ3x9G6Hx_10xdl_stdlib8graphics6exportNtB4_12ExportConfig9with_size
FNDA:1,_RNvNtNtCsgiIQ3x9G6Hx_10xdl_stdlib8graphics6export21generate_html_wrapper
FNDA:1,_RNvXNtNtCsgiIQ3x9G6Hx_10xdl_stdlib8graphics6exportNtB2_12ExportConfigNtNtCs2CqrNpCrSUr_4core7default7Default7default
FNF:11
FNH:7
DA:26,1
DA:27,1
DA:28,1
DA:29,1
DA:30,1
DA:31,1
DA:32,1
DA:33,1
DA:34,1
DA:38,1
DA:39,1
DA:40,1
DA:41,1
DA:42,1
DA:43,1
DA:45,1
DA:46,1
DA:47,1
DA:48,1
DA:49,1
DA:51,1
DA:52,1
DA:53,1
DA:54,1
DA:56,0
DA:57,0
DA:58,0
DA:59,0
DA:76,1
DA:77,1
DA:78,1
DA:79,1
DA:80,1
DA:81,1
DA:82,1
DA:83,1
DA:84,1
DA:85,1
DA:86,1
DA:87,1
DA:88,1
DA:89,1
DA:90,1
DA:91,1
DA:92,1
DA:93,1
DA:94,1
DA:95,1
DA:96,1
DA:97,1
DA:98,1
DA:99,1
DA:100,1
DA:101,1
DA:102,1
DA:103,1
DA:104,1
DA:105,1
DA:106,1
DA:107,1
DA:108,1
DA:109,1
DA:110,1
DA:111,1
DA:112,1
DA:113,1
DA:114,1
DA:115,1
DA:116,1
DA:117,1
DA:118,1
DA:119,1
DA:120,1
DA:121,1
DA:122,1
DA:123,1
DA:124,1
DA:125,1
DA:126,1
DA:127,1
DA:128,1
DA:129,1
DA:130,1
DA:131,1
DA:132,1
DA:133,1
DA:134,1
DA:135,1
DA:136,1
DA:137,1
DA:138,1
DA:139,1
DA:140,1
DA:141,1
DA:142,1
DA:143,1
DA:144,1
DA:145,1
DA:146,1
DA:147,1
DA:148,1
DA:149,1
DA:150,1
DA:151,1
DA:152,1
DA:153,1
DA:154,1
DA:155,1
DA:156,1
DA:157,1
DA:158,1
DA:159,1
DA:160,1
DA:161,1
DA:162,1
DA:163,1
DA:164,1
DA:165,1
DA:166,1
DA:167,1
DA:168,1
DA:169,1
DA:170,1
DA:171,1
DA:172,1
DA:173,1
DA:174,1
DA:175,1
DA:176,1
DA:177,1
DA:178,1
DA:179,1
DA:180,1
DA:186,1
DA:189,0
DA:190,0
DA:191,0
DA:192,0
DA:193,0
DA:194,0
DA:195,0
DA:199,0
DA:200,0
DA:203,0
DA:206,0
DA:207,0
DA:209,0
DA:210,0
DA:217,1
DA:218,1
DA:219,1
DA:220,1
DA:222,1
DA:223,1
DA:224,1
DA:225,1
DA:226,1
DA:229,1
DA:230,1
DA:232,1
DA:233,1
DA:234,1
DA:235,1
BRF:0
BRH:0
LF:165
LH:145
end_of_record
SF:/Users/ravindraboddipalli/sources/xdl/xdl-stdlib/src/graphics/plot2d.rs
FN:126,_RNvNtNtCs7X22eMfvUxK_10xdl_stdlib8graphics6plot2d15__get_line_style
FN:194,_RNvNtNtCs7X22eMfvUxK_10xdl_stdlib8graphics6plot2d14histogram_plot
FN:302,_RNvNtNtCs7X22eMfvUxK_10xdl_stdlib8graphics6plot2d16plot_with_errors
FN:48,_RNvNtNtCs7X22eMfvUxK_10xdl_stdlib8graphics6plot2d7plot_2d
FN:254,_RNvNtNtCs7X22eMfvUxK_10xdl_stdlib8graphics6plot2d8bar_plot
FN:27,_RNvXNtNtCs7X22eMfvUxK_10xdl_stdlib8graphics6plot2dNtB2_12Plot2DConfigNtNtCs2CqrNpCrSUr_4core7default7Default7default
FN:133,_RINvNtNtCs7X22eMfvUxK_10xdl_stdlib8graphics6plot2d12draw_symbolsNtNtCs6JLCEJeqNGJ_15plotters_bitmap6bitmap13BitMapBackendEB6_
FN:201,_RNCNvNtNtCs7X22eMfvUxK_10xdl_stdlib8graphics6plot2d14histogram_plot0B7_
FN:240,_RNCNvNtNtCs7X22eMfvUxK_10xdl_stdlib8graphics6plot2d14histogram_plots0_0B7_
FN:202,_RNCNvNtNtCs7X22eMfvUxK_10xdl_stdlib8graphics6plot2d14histogram_plots_0B7_
FN:327,_RNCNvNtNtCs7X22eMfvUxK_10xdl_stdlib8graphics6plot2d16plot_with_errors0B7_
FN:332,_RNCNvNtNtCs7X22eMfvUxK_10xdl_stdlib8graphics6plot2d16plot_with_errorss0_0B7_
FN:333,_RNCNvNtNtCs7X22eMfvUxK_10xdl_stdlib8graphics6plot2d16plot_with_errorss1_0B7_
FN:335,_RNCNvNtNtCs7X22eMfvUxK_10xdl_stdlib8graphics6plot2d16plot_with_errorss2_0B7_
FN:336,_RNCNvNtNtCs7X22eMfvUxK_10xdl_stdlib8graphics6plot2d16plot_with_errorss3_0B7_
FN:328,_RNCNvNtNtCs7X22eMfvUxK_10xdl_stdlib8graphics6plot2d16plot_with_errorss_0B7_
FN:66,_RNCNvNtNtCs7X22eMfvUxK_10xdl_stdlib8graphics6plot2d7plot_2d0B7_
FN:71,_RNCNvNtNtCs7X22eMfvUxK_10xdl_stdlib8graphics6plot2d7plot_2ds0_0B7_
FN:74,_RNCNvNtNtCs7X22eMfvUxK_10xdl_stdlib8graphics6plot2d7plot_2ds1_0B7_
FN:105,_RNCNvNtNtCs7X22eMfvUxK_10xdl_stdlib8graphics6plot2d7plot_2ds2_0B7_
FN:69,_RNCNvNtNtCs7X22eMfvUxK_10xdl_stdlib8graphics6plot2d7plot_2ds_0B7_
FN:267,_RNCNvNtNtCs7X22eMfvUxK_10xdl_stdlib8graphics6plot2d8bar_plot0B7_
FN:287,_RNCNvNtNtCs7X22eMfvUxK_10xdl_stdlib8graphics6plot2d8bar_plots0_0B7_
FN:268,_RNCNvNtNtCs7X22eMfvUxK_10xdl_stdlib8graphics6plot2d8bar_plots_0B7_
FN:133,_RINvNtNtCsgiIQ3x9G6Hx_10xdl_stdlib8graphics6plot2d12draw_symbolspEB6_
FN:201,_RNCNvNtNtCsgiIQ3x9G6Hx_10xdl_stdlib8graphics6plot2d14histogram_plot0B7_
FN:240,_RNCNvNtNtCsgiIQ3x9G6Hx_10xdl_stdlib8graphics6plot2d14histogram_plots0_0B7_
FN:202,_RNCNvNtNtCsgiIQ3x9G6Hx_10xdl_stdlib8graphics6plot2d14histogram_plots_0B7_
FN:327,_RNCNvNtNtCsgiIQ3x9G6Hx_10xdl_stdlib8graphics6plot2d16plot_with_errors0B7_
FN:332,_RNCNvNtNtCsgiIQ3x9G6Hx_10xdl_stdlib8graphics6plot2d16plot_with_errorss0_0B7_
FN:333,_RNCNvNtNtCsgiIQ3x9G6Hx_10xdl_stdlib8graphics6plot2d16plot_with_errorss1_0B7_
FN:335,_RNCNvNtNtCsgiIQ3x9G6Hx_10xdl_stdlib8graphics6plot2d16plot_with_errorss2_0B7_
FN:336,_RNCNvNtNtCsgiIQ3x9G6Hx_10xdl_stdlib8graphics6plot2d16plot_with_errorss3_0B7_
FN:328,_RNCNvNtNtCsgiIQ3x9G6Hx_10xdl_stdlib8graphics6plot2d16plot_with_errorss_0B7_
FN:66,_RNCNvNtNtCsgiIQ3x9G6Hx_10xdl_stdlib8graphics6plot2d7plot_2d0B7_
FN:71,_RNCNvNtNtCsgiIQ3x9G6Hx_10xdl_stdlib8graphics6plot2d7plot_2ds0_0B7_
FN:74,_RNCNvNtNtCsgiIQ3x9G6Hx_10xdl_stdlib8graphics6plot2d7plot_2ds1_0B7_
FN:105,_RNCNvNtNtCsgiIQ3x9G6Hx_10xdl_stdlib8graphics6plot2d7plot_2ds2_0B7_
FN:69,_RNCNvNtNtCsgiIQ3x9G6Hx_10xdl_stdlib8graphics6plot2d7plot_2ds_0B7_
FN:267,_RNCNvNtNtCsgiIQ3x9G6Hx_10xdl_stdlib8graphics6plot2d8bar_plot0B7_
FN:287,_RNCNvNtNtCsgiIQ3x9G6Hx_10xdl_stdlib8graphics6plot2d8bar_plots0_0B7_
FN:268,_RNCNvNtNtCsgiIQ3x9G6Hx_10xdl_stdlib8graphics6plot2d8bar_plots_0B7_
FN:194,_RNvNtNtCsgiIQ3x9G6Hx_10xdl_stdlib8graphics6plot2d14histogram_plot
FN:126,_RNvNtNtCsgiIQ3x9G6Hx_10xdl_stdlib8graphics6plot2d15__get_line_style
FN:302,_RNvNtNtCsgiIQ3x9G6Hx_10xdl_stdlib8graphics6plot2d16plot_with_errors
FN:48,_RNvNtNtCsgiIQ3x9G6Hx_10xdl_stdlib8graphics6plot2d7plot_2d
FN:254,_RNvNtNtCsgiIQ3x9G6Hx_10xdl_stdlib8graphics6plot2d8bar_plot
FN:27,_RNvXNtNtCsgiIQ3x9G6Hx_10xdl_stdlib8graphics6plot2dNtB2_12Plot2DConfigNtNtCs2CqrNpCrSUr_4core7default7Default7default
FNDA:0,_RNvNtNtCs7X22eMfvUxK_10xdl_stdlib8graphics6plot2d15__get_line_style
FNDA:0,_RNvNtNtCs7X22eMfvUxK_10xdl_stdlib8graphics6plot2d14histogram_plot
FNDA:0,_RNvNtNtCs7X22eMfvUxK_10xdl_stdlib8graphics6plot2d16plot_with_errors
FNDA:0,_RNvNtNtCs7X22eMfvUxK_10xdl_stdlib8graphics6plot2d7plot_2d
FNDA:0,_RNvNtNtCs7X22eMfvUxK_10xdl_stdlib8graphics6plot2d8bar_plot
FNDA:0,_RNvXNtNtCs7X22eMfvUxK_10xdl_stdlib8graphics6plot2dNtB2_12Plot2DConfigNtNtCs2CqrNpCrSUr_4core7default7Default7default
FNDA:0,_RINvNtNtCs7X22eMfvUxK_10xdl_stdlib8graphics6plot2d12draw_symbolsNtNtCs6JLCEJeqNGJ_15plotters_bitmap6bitmap13BitMapBackendEB6_
FNDA:0,_RNCNvNtNtCs7X22eMfvUxK_10xdl_stdlib8graphics6plot2d14histogram_plot0B7_
FNDA:0,_RNCNvNtNtCs7X22eMfvUxK_10xdl_stdlib8graphics6plot2d14histogram_plots0_0B7_
FNDA:0,_RNCNvNtNtCs7X22eMfvUxK_10xdl_stdlib8graphics6plot2d14histogram_plots_0B7_
FNDA:0,_RNCNvNtNtCs7X22eMfvUxK_10xdl_stdlib8graphics6plot2d16plot_with_errors0B7_
FNDA:0,_RNCNvNtNtCs7X22eMfvUxK_10xdl_stdlib8graphics6plot2d16plot_with_errorss0_0B7_
FNDA:0,_RNCNvNtNtCs7X22eMfvUxK_10xdl_stdlib8graphics6plot2d16plot_with_errorss1_0B7_
FNDA:0,_RNCNvNtNtCs7X22eMfvUxK_10xdl_stdlib8graphics6plot2d16plot_with_errorss2_0B7_
FNDA:0,_RNCNvNtNtCs7X22eMfvUxK_10xdl_stdlib8graphics6plot2d16plot_with_errorss3_0B7_
FNDA:0,_RNCNvNtNtCs7X22eMfvUxK_10xdl_stdlib8graphics6plot2d16plot_with_errorss_0B7_
FNDA:0,_RNCNvNtNtCs7X22eMfvUxK_10xdl_stdlib8graphics6plot2d7plot_2d0B7_
FNDA:0,_RNCNvNtNtCs7X22eMfvUxK_10xdl_stdlib8graphics6plot2d7plot_2ds0_0B7_
FNDA:0,_RNCNvNtNtCs7X22eMfvUxK_10xdl_stdlib8graphics6plot2d7plot_2ds1_0B7_
FNDA:0,_RNCNvNtNtCs7X22eMfvUxK_10xdl_stdlib8graphics6plot2d7plot_2ds2_0B7_
FNDA:0,_RNCNvNtNtCs7X22eMfvUxK_10xdl_stdlib8graphics6plot2d7plot_2ds_0B7_
FNDA:0,_RNCNvNtNtCs7X22eMfvUxK_10xdl_stdlib8graphics6plot2d8bar_plot0B7_
FNDA:0,_RNCNvNtNtCs7X22eMfvUxK_10xdl_stdlib8graphics6plot2d8bar_plots0_0B7_
FNDA:0,_RNCNvNtNtCs7X22eMfvUxK_10xdl_stdlib8graphics6plot2d8bar_plots_0B7_
FNDA:0,_RINvNtNtCsgiIQ3x9G6Hx_10xdl_stdlib8graphics6plot2d12draw_symbolspEB6_
FNDA:0,_RNCNvNtNtCsgiIQ3x9G6Hx_10xdl_stdlib8graphics6plot2d14histogram_plot0B7_
FNDA:0,_RNCNvNtNtCsgiIQ3x9G6Hx_10xdl_stdlib8graphics6plot2d14histogram_plots0_0B7_
FNDA:0,_RNCNvNtNtCsgiIQ3x9G6Hx_10xdl_stdlib8graphics6plot2d14histogram_plots_0B7_
FNDA:0,_RNCNvNtNtCsgiIQ3x9G6Hx_10xdl_stdlib8graphics6plot2d16plot_with_errors0B7_
FNDA:0,_RNCNvNtNtCsgiIQ3x9G6Hx_10xdl_stdlib8graphics6plot2d16plot_with_errorss0_0B7_
FNDA:0,_RNCNvNtNtCsgiIQ3x9G6Hx_10xdl_stdlib8graphics6plot2d16plot_with_errorss1_0B7_
FNDA:0,_RNCNvNtNtCsgiIQ3x9G6Hx_10xdl_stdlib8graphics6plot2d16plot_with_errorss2_0B7_
FNDA:0,_RNCNvNtNtCsgiIQ3x9G6Hx_10xdl_stdlib8graphics6plot2d16plot_with_errorss3_0B7_
FNDA:0,_RNCNvNtNtCsgiIQ3x9G6Hx_10xdl_stdlib8graphics6plot2d16plot_with_errorss_0B7_
FNDA:0,_RNCNvNtNtCsgiIQ3x9G6Hx_10xdl_stdlib8graphics6plot2d7plot_2d0B7_
FNDA:0,_RNCNvNtNtCsgiIQ3x9G6Hx_10xdl_stdlib8graphics6plot2d7plot_2ds0_0B7_
FNDA:0,_RNCNvNtNtCsgiIQ3x9G6Hx_10xdl_stdlib8graphics6plot2d7plot_2ds1_0B7_
FNDA:0,_RNCNvNtNtCsgiIQ3x9G6Hx_10xdl_stdlib8graphics6plot2d7plot_2ds2_0B7_
FNDA:0,_RNCNvNtNtCsgiIQ3x9G6Hx_10xdl_stdlib8graphics6plot2d7plot_2ds_0B7_
FNDA:0,_RNCNvNtNtCsgiIQ3x9G6Hx_10xdl_stdlib8graphics6plot2d8bar_plot0B7_
FNDA:0,_RNCNvNtNtCsgiIQ3x9G6Hx_10xdl_stdlib8graphics6plot2d8bar_plots0_0B7_
FNDA:0,_RNCNvNtNtCsgiIQ3x9G6Hx_10xdl_stdlib8graphics6plot2d8bar_plots_0B7_
FNDA:0,_RNvNtNtCsgiIQ3x9G6Hx_10xdl_stdlib8graphics6plot2d14histogram_plot
FNDA:0,_RNvNtNtCsgiIQ3x9G6Hx_10xdl_stdlib8graphics6plot2d15__get_line_style
FNDA:0,_RNvNtNtCsgiIQ3x9G6Hx_10xdl_stdlib8graphics6plot2d16plot_with_errors
FNDA:0,_RNvNtNtCsgiIQ3x9G6Hx_10xdl_stdlib8graphics6plot2d7plot_2d
FNDA:0,_RNvNtNtCsgiIQ3x9G6Hx_10xdl_stdlib8graphics6plot2d8bar_plot
FNDA:0,_RNvXNtNtCsgiIQ3x9G6Hx_10xdl_stdlib8graphics6plot2dNtB2_12Plot2DConfigNtNtCs2CqrNpCrSUr_4core7default7Default7default
FNF:24
FNH:0
DA:27,0
DA:28,0
DA:29,0
DA:30,0
DA:31,0
DA:32,0
DA:33,0
DA:34,0
DA:35,0
DA:36,0
DA:37,0
DA:38,0
DA:39,0
DA:40,0
DA:41,0
DA:42,0
DA:43,0
DA:44,0
DA:48,0
DA:49,0
DA:50,0
DA:51,0
DA:52,0
DA:53,0
DA:55,0
DA:56,0
DA:57,0
DA:58,0
DA:59,0
DA:62,0
DA:63,0
DA:66,0
DA:67,0
DA:68,0
DA:69,0
DA:70,0
DA:71,0
DA:72,0
DA:73,0
DA:74,0
DA:75,0
DA:78,0
DA:79,0
DA:82,0
DA:83,0
DA:84,0
DA:85,0
DA:86,0
DA:87,0
DA:88,0
DA:89,0
DA:90,0
DA:93,0
DA:94,0
DA:95,0
DA:96,0
DA:97,0
DA:100,0
DA:101,0
DA:103,0
DA:104,0
DA:105,0
DA:106,0
DA:107,0
DA:110,0
DA:111,0
DA:112,0
DA:113,0
DA:114,0
DA:115,0
DA:116,0
DA:117,0
DA:118,0
DA:119,0
DA:121,0
DA:122,0
DA:123,0
DA:126,0
DA:127,0
DA:129,0
DA:130,0
DA:133,0
DA:134,0
DA:135,0
DA:136,0
DA:137,0
DA:138,0
DA:139,0
DA:140,0
DA:141,0
DA:142,0
DA:143,0
DA:144,0
DA:146,0
DA:148,0
DA:149,0
DA:152,0
DA:156,0
DA:160,0
DA:164,0
DA:168,0
DA:172,0
DA:173,0
DA:174,0
DA:175,0
DA:176,0
DA:177,0
DA:178,0
DA:182,0
DA:186,0
DA:190,0
DA:191,0
DA:194,0
DA:195,0
DA:196,0
DA:197,0
DA:198,0
DA:199,0
DA:201,0
DA:202,0
DA:203,0
DA:205,0
DA:206,0
DA:207,0
DA:208,0
DA:209,0
DA:210,0
DA:214,0
DA:215,0
DA:216,0
DA:217,0
DA:218,0
DA:221,0
DA:222,0
DA:225,0
DA:226,0
DA:227,0
DA:228,0
DA:229,0
DA:230,0
DA:231,0
DA:232,0
DA:233,0
DA:234,0
DA:236,0
DA:239,0
DA:240,0
DA:241,0
DA:242,0
DA:243,0
DA:244,0
DA:245,0
DA:247,0
DA:249,0
DA:250,0
DA:251,0
DA:254,0
DA:256,0
DA:257,0
DA:258,0
DA:259,0
DA:260,0
DA:263,0
DA:264,0
DA:267,0
DA:268,0
DA:271,0
DA:272,0
DA:273,0
DA:274,0
DA:275,0
DA:276,0
DA:277,0
DA:278,0
DA:279,0
DA:281,0
DA:284,0
DA:285,0
DA:287,0
DA:288,0
DA:289,0
DA:290,0
DA:291,0
DA:292,0
DA:293,0
DA:295,0
DA:297,0
DA:298,0
DA:299,0
DA:302,0
DA:303,0
DA:304,0
DA:305,0
DA:306,0
DA:307,0
DA:308,0
DA:310,0
DA:314,0
DA:315,0
DA:316,0
DA:317,0
DA:318,0
DA:320,0
DA:321,0
DA:324,0
DA:325,0
DA:326,0
DA:327,0
DA:328,0
DA:329,0
DA:330,0
DA:331,0
DA:332,0
DA:333,0
DA:335,0
DA:336,0
DA:338,0
DA:339,0
DA:340,0
DA:341,0
DA:342,0
DA:343,0
DA:344,0
DA:345,0
DA:346,0
DA:348,0
DA:351,0
DA:352,0
DA:354,0
DA:355,0
DA:356,0
DA:357,0
DA:360,0
DA:361,0
DA:362,0
DA:363,0
DA:364,0
DA:365,0
DA:366,0
DA:367,0
DA:368,0
DA:371,0
DA:372,0
DA:374,0
DA:375,0
DA:378,0
DA:379,0
DA:380,0
BRF:0
BRH:0
LF:267
LH:0
end_of_record
SF:/Users/ravindraboddipalli/sources/xdl/xdl-stdlib/src/graphics/plot3d.rs
FN:47,_RNCNCNvNtNtCs7X22eMfvUxK_10xdl_stdlib8graphics6plot3d12contour_plot00B9_
FN:63,_RNCNCNvNtNtCs7X22eMfvUxK_10xdl_stdlib8graphics6plot3d12contour_plots4_00B9_
FN:48,_RNCNCNvNtNtCs7X22eMfvUxK_10xdl_stdlib8graphics6plot3d12contour_plots_00B9_
FN:176,_RNCNCNvNtNtCs7X22eMfvUxK_10xdl_stdlib8graphics6plot3d12surface_plot00B9_
FN:177,_RNCNCNvNtNtCs7X22eMfvUxK_10xdl_stdlib8graphics6plot3d12surface_plots_00B9_
FN:47,_RNCNvNtNtCs7X22eMfvUxK_10xdl_stdlib8graphics6plot3d12contour_plot0B7_
FN:53,_RNCNvNtNtCs7X22eMfvUxK_10xdl_stdlib8graphics6plot3d12contour_plots0_0B7_
FN:54,_RNCNvNtNtCs7X22eMfvUxK_10xdl_stdlib8graphics6plot3d12contour_plots1_0B7_
FN:57,_RNCNvNtNtCs7X22eMfvUxK_10xdl_stdlib8graphics6plot3d12contour_plots2_0B7_
FN:58,_RNCNvNtNtCs7X22eMfvUxK_10xdl_stdlib8graphics6plot3d12contour_plots3_0B7_
FN:61,_RNCNvNtNtCs7X22eMfvUxK_10xdl_stdlib8graphics6plot3d12contour_plots4_0B7_
FN:48,_RNCNvNtNtCs7X22eMfvUxK_10xdl_stdlib8graphics6plot3d12contour_plots_0B7_
FN:176,_RNCNvNtNtCs7X22eMfvUxK_10xdl_stdlib8graphics6plot3d12surface_plot0B7_
FN:182,_RNCNvNtNtCs7X22eMfvUxK_10xdl_stdlib8graphics6plot3d12surface_plots0_0B7_
FN:183,_RNCNvNtNtCs7X22eMfvUxK_10xdl_stdlib8graphics6plot3d12surface_plots1_0B7_
FN:186,_RNCNvNtNtCs7X22eMfvUxK_10xdl_stdlib8graphics6plot3d12surface_plots2_0B7_
FN:187,_RNCNvNtNtCs7X22eMfvUxK_10xdl_stdlib8graphics6plot3d12surface_plots3_0B7_
FN:214,_RNCNvNtNtCs7X22eMfvUxK_10xdl_stdlib8graphics6plot3d12surface_plots4_0B7_
FN:177,_RNCNvNtNtCs7X22eMfvUxK_10xdl_stdlib8graphics6plot3d12surface_plots_0B7_
FN:289,_RNCNvNtNtCs7X22eMfvUxK_10xdl_stdlib8graphics6plot3d7plot_3d0B7_
FN:291,_RNCNvNtNtCs7X22eMfvUxK_10xdl_stdlib8graphics6plot3d7plot_3ds0_0B7_
FN:292,_RNCNvNtNtCs7X22eMfvUxK_10xdl_stdlib8graphics6plot3d7plot_3ds1_0B7_
FN:293,_RNCNvNtNtCs7X22eMfvUxK_10xdl_stdlib8graphics6plot3d7plot_3ds2_0B7_
FN:294,_RNCNvNtNtCs7X22eMfvUxK_10xdl_stdlib8graphics6plot3d7plot_3ds3_0B7_
FN:313,_RNCNvNtNtCs7X22eMfvUxK_10xdl_stdlib8graphics6plot3d7plot_3ds4_0B7_
FN:326,_RNCNvNtNtCs7X22eMfvUxK_10xdl_stdlib8graphics6plot3d7plot_3ds5_0B7_
FN:290,_RNCNvNtNtCs7X22eMfvUxK_10xdl_stdlib8graphics6plot3d7plot_3ds_0B7_
FN:30,_RNvNtNtCs7X22eMfvUxK_10xdl_stdlib8graphics6plot3d12contour_plot
FN:159,_RNvNtNtCs7X22eMfvUxK_10xdl_stdlib8graphics6plot3d12surface_plot
FN:276,_RNvNtNtCs7X22eMfvUxK_10xdl_stdlib8graphics6plot3d7plot_3d
FN:18,_RNvXNtNtCs7X22eMfvUxK_10xdl_stdlib8graphics6plot3dNtB2_13ContourConfigNtNtCs2CqrNpCrSUr_4core7default7Default7default
FN:148,_RNvXs_NtNtCs7X22eMfvUxK_10xdl_stdlib8graphics6plot3dNtB4_13SurfaceConfigNtNtCs2CqrNpCrSUr_4core7default7Default7default
FN:47,_RNCNCNvNtNtCsgiIQ3x9G6Hx_10xdl_stdlib8graphics6plot3d12contour_plot00B9_
FN:63,_RNCNCNvNtNtCsgiIQ3x9G6Hx_10xdl_stdlib8graphics6plot3d12contour_plots4_00B9_
FN:48,_RNCNCNvNtNtCsgiIQ3x9G6Hx_10xdl_stdlib8graphics6plot3d12contour_plots_00B9_
FN:176,_RNCNCNvNtNtCsgiIQ3x9G6Hx_10xdl_stdlib8graphics6plot3d12surface_plot00B9_
FN:177,_RNCNCNvNtNtCsgiIQ3x9G6Hx_10xdl_stdlib8graphics6plot3d12surface_plots_00B9_
FN:47,_RNCNvNtNtCsgiIQ3x9G6Hx_10xdl_stdlib8graphics6plot3d12contour_plot0B7_
FN:53,_RNCNvNtNtCsgiIQ3x9G6Hx_10xdl_stdlib8graphics6plot3d12contour_plots0_0B7_
FN:54,_RNCNvNtNtCsgiIQ3x9G6Hx_10xdl_stdlib8graphics6plot3d12contour_plots1_0B7_
FN:57,_RNCNvNtNtCsgiIQ3x9G6Hx_10xdl_stdlib8graphics6plot3d12contour_plots2_0B7_
FN:58,_RNCNvNtNtCsgiIQ3x9G6Hx_10xdl_stdlib8graphics6plot3d12contour_plots3_0B7_
FN:61,_RNCNvNtNtCsgiIQ3x9G6Hx_10xdl_stdlib8graphics6plot3d12contour_plots4_0B7_
FN:48,_RNCNvNtNtCsgiIQ3x9G6Hx_10xdl_stdlib8graphics6plot3d12contour_plots_0B7_
FN:176,_RNCNvNtNtCsgiIQ3x9G6Hx_10xdl_stdlib8graphics6plot3d12surface_plot0B7_
FN:182,_RNCNvNtNtCsgiIQ3x9G6Hx_10xdl_stdlib8graphics6plot3d12surface_plots0_0B7_
FN:183,_RNCNvNtNtCsgiIQ3x9G6Hx_10xdl_stdlib8graphics6plot3d12surface_plots1_0B7_
FN:186,_RNCNvNtNtCsgiIQ3x9G6Hx_10xdl_stdlib8graphics6plot3d12surface_plots2_0B7_
FN:187,_RNCNvNtNtCsgiIQ3x9G6Hx_10xdl_stdlib8graphics6plot3d12surface_plots3_0B7_
FN:214,_RNCNvNtNtCsgiIQ3x9G6Hx_10xdl_stdlib8graphics6plot3d12surface_plots4_0B7_
FN:177,_RNCNvNtNtCsgiIQ3x9G6Hx_10xdl_stdlib8graphics6plot3d12surface_plots_0B7_
FN:289,_RNCNvNtNtCsgiIQ3x9G6Hx_10xdl_stdlib8graphics6plot3d7plot_3d0B7_
FN:291,_RNCNvNtNtCsgiIQ3x9G6Hx_10xdl_stdlib8graphics6plot3d7plot_3ds0_0B7_
FN:292,_RNCNvNtNtCsgiIQ3x9G6Hx_10xdl_stdlib8graphics6plot3d7plot_3ds1_0B7_
FN:293,_RNCNvNtNtCsgiIQ3x9G6Hx_10xdl_stdlib8graphics6plot3d7plot_3ds2_0B7_
FN:294,_RNCNvNtNtCsgiIQ3x9G6Hx_10xdl_stdlib8graphics6plot3d7plot_3ds3_0B7_
FN:313,_RNCNvNtNtCsgiIQ3x9G6Hx_10xdl_stdlib8graphics6plot3d7plot_3ds4_0B7_
FN:326,_RNCNvNtNtCsgiIQ3x9G6Hx_10xdl_stdlib8graphics6plot3d7plot_3ds5_0B7_
FN:290,_RNCNvNtNtCsgiIQ3x9G6Hx_10xdl_stdlib8graphics6plot3d7plot_3ds_0B7_
FN:30,_RNvNtNtCsgiIQ3x9G6Hx_10xdl_stdlib8graphics6plot3d12contour_plot
FN:159,_RNvNtNtCsgiIQ3x9G6Hx_10xdl_stdlib8graphics6plot3d12surface_plot
FN:276,_RNvNtNtCsgiIQ3x9G6Hx_10xdl_stdlib8graphics6plot3d7plot_3d
FN:18,_RNvXNtNtCsgiIQ3x9G6Hx_10xdl_stdlib8graphics6plot3dNtB2_13ContourConfigNtNtCs2CqrNpCrSUr_4core7default7Default7default
FN:148,_RNvXs_NtNtCsgiIQ3x9G6Hx_10xdl_stdlib8graphics6plot3dNtB4_13SurfaceConfigNtNtCs2CqrNpCrSUr_4core7default7Default7default
FNDA:0,_RNCNCNvNtNtCs7X22eMfvUxK_10xdl_stdlib8graphics6plot3d12contour_plot00B9_
FNDA:0,_RNCNCNvNtNtCs7X22eMfvUxK_10xdl_stdlib8graphics6plot3d12contour_plots4_00B9_
FNDA:0,_RNCNCNvNtNtCs7X22eMfvUxK_10xdl_stdlib8graphics6plot3d12contour_plots_00B9_
FNDA:0,_RNCNCNvNtNtCs7X22eMfvUxK_10xdl_stdlib8graphics6plot3d12surface_plot00B9_
FNDA:0,_RNCNCNvNtNtCs7X22eMfvUxK_10xdl_stdlib8graphics6plot3d12surface_plots_00B9_
FNDA:0,_RNCNvNtNtCs7X22eMfvUxK_10xdl_stdlib8graphics6plot3d12contour_plot0B7_
FNDA:0,_RNCNvNtNtCs7X22eMfvUxK_10xdl_stdlib8graphics6plot3d12contour_plots0_0B7_
FNDA:0,_RNCNvNtNtCs7X22eMfvUxK_10xdl_stdlib8graphics6plot3d12contour_plots1_0B7_
FNDA:0,_RNCNvNtNtCs7X22eMfvUxK_10xdl_stdlib8graphics6plot3d12contour_plots2_0B7_
FNDA:0,_RNCNvNtNtCs7X22eMfvUxK_10xdl_stdlib8graphics6plot3d12contour_plots3_0B7_
FNDA:0,_RNCNvNtNtCs7X22eMfvUxK_10xdl_stdlib8graphics6plot3d12contour_plots4_0B7_
FNDA:0,_RNCNvNtNtCs7X22eMfvUxK_10xdl_stdlib8graphics6plot3d12contour_plots_0B7_
FNDA:0,_RNCNvNtNtCs7X22eMfvUxK_10xdl_stdlib8graphics6plot3d12surface_plot0B7_
FNDA:0,_RNCNvNtNtCs7X22eMfvUxK_10xdl_stdlib8graphics6plot3d12surface_plots0_0B7_
FNDA:0,_RNCNvNtNtCs7X22eMfvUxK_10xdl_stdlib8graphics6plot3d12surface_plots1_0B7_
FNDA:0,_RNCNvNtNtCs7X22eMfvUxK_10xdl_stdlib8graphics6plot3d12surface_plots2_0B7_
FNDA:0,_RNCNvNtNtCs7X22eMfvUxK_10xdl_stdlib8graphics6plot3d12surface_plots3_0B7_
FNDA:0,_RNCNvNtNtCs7X22eMfvUxK_10xdl_stdlib8graphics6plot3d12surface_plots4_0B7_
FNDA:0,_RNCNvNtNtCs7X22eMfvUxK_10xdl_stdlib8graphics6plot3d12surface_plots_0B7_
FNDA:0,_RNCNvNtNtCs7X22eMfvUxK_10xdl_stdlib8graphics6plot3d7plot_3d0B7_
FNDA:0,_RNCNvNtNtCs7X22eMfvUxK_10xdl_stdlib8graphics6plot3d7plot_3ds0_0B7_
FNDA:0,_RNCNvNtNtCs7X22eMfvUxK_10xdl_stdlib8graphics6plot3d7plot_3ds1_0B7_
FNDA:0,_RNCNvNtNtCs7X22eMfvUxK_10xdl_stdlib8graphics6plot3d7plot_3ds2_0B7_
FNDA:0,_RNCNvNtNtCs7X22eMfvUxK_10xdl_stdlib8graphics6plot3d7plot_3ds3_0B7_
FNDA:0,_RNCNvNtNtCs7X22eMfvUxK_10xdl_stdlib8graphics6plot3d7plot_3ds4_0B7_
FNDA:0,_RNCNvNtNtCs7X22eMfvUxK_10xdl_stdlib8graphics6plot3d7plot_3ds5_0B7_
FNDA:0,_RNCNvNtNtCs7X22eMfvUxK_10xdl_stdlib8graphics6plot3d7plot_3ds_0B7_
FNDA:0,_RNvNtNtCs7X22eMfvUxK_10xdl_stdlib8graphics6plot3d12contour_plot
FNDA:0,_RNvNtNtCs7X22eMfvUxK_10xdl_stdlib8graphics6plot3d12surface_plot
FNDA:0,_RNvNtNtCs7X22eMfvUxK_10xdl_stdlib8graphics6plot3d7plot_3d
FNDA:0,_RNvXNtNtCs7X22eMfvUxK_10xdl_stdlib8graphics6plot3dNtB2_13ContourConfigNtNtCs2CqrNpCrSUr_4core7default7Default7default
FNDA:0,_RNvXs_NtNtCs7X22eMfvUxK_10xdl_stdlib8graphics6plot3dNtB4_13SurfaceConfigNtNtCs2CqrNpCrSUr_4core7default7Default7default
FNDA:0,_RNCNCNvNtNtCsgiIQ3x9G6Hx_10xdl_stdlib8graphics6plot3d12contour_plot00B9_
FNDA:0,_RNCNCNvNtNtCsgiIQ3x9G6Hx_10xdl_stdlib8graphics6plot3d12contour_plots4_00B9_
FNDA:0,_RNCNCNvNtNtCsgiIQ3x9G6Hx_10xdl_stdlib8graphics6plot3d12contour_plots_00B9_
FNDA:0,_RNCNCNvNtNtCsgiIQ3x9G6Hx_10xdl_stdlib8graphics6plot3d12surface_plot00B9_
FNDA:0,_RNCNCNvNtNtCsgiIQ3x9G6Hx_10xdl_stdlib8graphics6plot3d12surface_plots_00B9_
FNDA:0,_RNCNvNtNtCsgiIQ3x9G6Hx_10xdl_stdlib8graphics6plot3d12contour_plot0B7_
FNDA:0,_RNCNvNtNtCsgiIQ3x9G6Hx_10xdl_stdlib8graphics6plot3d12contour_plots0_0B7_
FNDA:0,_RNCNvNtNtCsgiIQ3x9G6Hx_10xdl_stdlib8graphics6plot3d12contour_plots1_0B7_
FNDA:0,_RNCNvNtNtCsgiIQ3x9G6Hx_10xdl_stdlib8graphics6plot3d12contour_plots2_0B7_
FNDA:0,_RNCNvNtNtCsgiIQ3x9G6Hx_10xdl_stdlib8graphics6plot3d12contour_plots3_0B7_
FNDA:0,_RNCNvNtNtCsgiIQ3x9G6Hx_10xdl_stdlib8graphics6plot3d12contour_plots4_0B7_
FNDA:0,_RNCNvNtNtCsgiIQ3x9G6Hx_10xdl_stdlib8graphics6plot3d12contour_plots_0B7_
FNDA:0,_RNCNvNtNtCsgiIQ3x9G6Hx_10xdl_stdlib8graphics6plot3d12surface_plot0B7_
FNDA:0,_RNCNvNtNtCsgiIQ3x9G6Hx_10xdl_stdlib8graphics6plot3d12surface_plots0_0B7_
FNDA:0,_RNCNvNtNtCsgiIQ3x9G6Hx_10xdl_stdlib8graphics6plot3d12surface_plots1_0B7_
FNDA:0,_RNCNvNtNtCsgiIQ3x9G6Hx_10xdl_stdlib8graphics6plot3d12surface_plots2_0B7_
FNDA:0,_RNCNvNtNtCsgiIQ3x9G6Hx_10xdl_stdlib8graphics6plot3d12surface_plots3_0B7_
FNDA:0,_RNCNvNtNtCsgiIQ3x9G6Hx_10xdl_stdlib8graphics6plot3d12surface_plots4_0B7_
FNDA:0,_RNCNvNtNtCsgiIQ3x9G6Hx_10xdl_stdlib8graphics6plot3d12surface_plots_0B7_
FNDA:0,_RNCNvNtNtCsgiIQ3x9G6Hx_10xdl_stdlib8graphics6plot3d7plot_3d0B7_
FNDA:0,_RNCNvNtNtCsgiIQ3x9G6Hx_10xdl_stdlib8graphics6plot3d7plot_3ds0_0B7_
FNDA:0,_RNCNvNtNtCsgiIQ3x9G6Hx_10xdl_stdlib8graphics6plot3d7plot_3ds1_0B7_
FNDA:0,_RNCNvNtNtCsgiIQ3x9G6Hx_10xdl_stdlib8graphics6plot3d7plot_3ds2_0B7_
FNDA:0,_RNCNvNtNtCsgiIQ3x9G6Hx_10xdl_stdlib8graphics6plot3d7plot_3ds3_0B7_
FNDA:0,_RNCNvNtNtCsgiIQ3x9G6Hx_10xdl_stdlib8graphics6plot3d7plot_3ds4_0B7_
FNDA:0,_RNCNvNtNtCsgiIQ3x9G6Hx_10xdl_stdlib8graphics6plot3d7plot_3ds5_0B7_
FNDA:0,_RNCNvNtNtCsgiIQ3x9G6Hx_10xdl_stdlib8graphics6plot3d7plot_3ds_0B7_
FNDA:0,_RNvNtNtCsgiIQ3x9G6Hx_10xdl_stdlib8graphics6plot3d12contour_plot
FNDA:0,_RNvNtNtCsgiIQ3x9G6Hx_10xdl_stdlib8graphics6plot3d12surface_plot
FNDA:0,_RNvNtNtCsgiIQ3x9G6Hx_10xdl_stdlib8graphics6plot3d7plot_3d
FNDA:0,_RNvXNtNtCsgiIQ3x9G6Hx_10xdl_stdlib8graphics6plot3dNtB2_13ContourConfigNtNtCs2CqrNpCrSUr_4core7default7Default7default
FNDA:0,_RNvXs_NtNtCsgiIQ3x9G6Hx_10xdl_stdlib8graphics6plot3dNtB4_13SurfaceConfigNtNtCs2CqrNpCrSUr_4core7default7Default7default
FNF:32
FNH:0
DA:18,0
DA:19,0
DA:20,0
DA:21,0
DA:22,0
DA:23,0
DA:24,0
DA:25,0
DA:26,0
DA:30,0
DA:31,0
DA:32,0
DA:33,0
DA:34,0
DA:35,0
DA:36,0
DA:37,0
DA:38,0
DA:40,0
DA:41,0
DA:42,0
DA:43,0
DA:44,0
DA:47,0
DA:48,0
DA:51,0
DA:52,0
DA:53,0
DA:54,0
DA:55,0
DA:56,0
DA:57,0
DA:58,0
DA:61,0
DA:62,0
DA:63,0
DA:64,0
DA:65,0
DA:68,0
DA:69,0
DA:70,0
DA:71,0
DA:72,0
DA:75,0
DA:76,0
DA:78,0
DA:79,0
DA:80,0
DA:81,0
DA:83,0
DA:84,0
DA:85,0
DA:86,0
DA:87,0
DA:88,0
DA:89,0
DA:90,0
DA:91,0
DA:93,0
DA:96,0
DA:98,0
DA:99,0
DA:100,0
DA:101,0
DA:102,0
DA:104,0
DA:105,0
DA:106,0
DA:107,0
DA:109,0
DA:110,0
DA:111,0
DA:112,0
DA:113,0
DA:118,0
DA:119,0
DA:121,0
DA:122,0
DA:123,0
DA:124,0
DA:125,0
DA:127,0
DA:128,0
DA:129,0
DA:135,0
DA:136,0
DA:137,0
DA:148,0
DA:149,0
DA:150,0
DA:151,0
DA:152,0
DA:153,0
DA:154,0
DA:155,0
DA:159,0
DA:160,0
DA:161,0
DA:162,0
DA:163,0
DA:164,0
DA:165,0
DA:166,0
DA:167,0
DA:169,0
DA:170,0
DA:171,0
DA:172,0
DA:173,0
DA:176,0
DA:177,0
DA:180,0
DA:181,0
DA:182,0
DA:183,0
DA:184,0
DA:185,0
DA:186,0
DA:187,0
DA:190,0
DA:191,0
DA:192,0
DA:193,0
DA:194,0
DA:197,0
DA:198,0
DA:201,0
DA:202,0
DA:203,0
DA:204,0
DA:206,0
DA:207,0
DA:208,0
DA:209,0
DA:210,0
DA:211,0
DA:212,0
DA:214,0
DA:215,0
DA:216,0
DA:217,0
DA:218,0
DA:220,0
DA:223,0
DA:224,0
DA:225,0
DA:226,0
DA:227,0
DA:228,0
DA:231,0
DA:232,0
DA:233,0
DA:236,0
DA:237,0
DA:238,0
DA:239,0
DA:240,0
DA:241,0
DA:243,0
DA:244,0
DA:246,0
DA:247,0
DA:248,0
DA:249,0
DA:250,0
DA:252,0
DA:253,0
DA:256,0
DA:257,0
DA:258,0
DA:259,0
DA:260,0
DA:261,0
DA:262,0
DA:263,0
DA:266,0
DA:267,0
DA:271,0
DA:272,0
DA:273,0
DA:276,0
DA:277,0
DA:278,0
DA:279,0
DA:280,0
DA:281,0
DA:282,0
DA:283,0
DA:284,0
DA:285,0
DA:286,0
DA:287,0
DA:289,0
DA:290,0
DA:291,0
DA:292,0
DA:293,0
DA:294,0
DA:296,0
DA:297,0
DA:298,0
DA:299,0
DA:300,0
DA:302,0
DA:303,0
DA:305,0
DA:306,0
DA:307,0
DA:308,0
DA:309,0
DA:310,0
DA:311,0
DA:313,0
DA:314,0
DA:315,0
DA:316,0
DA:317,0
DA:319,0
DA:322,0
DA:323,0
DA:324,0
DA:325,0
DA:326,0
DA:327,0
DA:329,0
DA:331,0
DA:332,0
DA:333,0
BRF:0
BRH:0
LF:255
LH:0
end_of_record
SF:/Users/ravindraboddipalli/sources/xdl/xdl-stdlib/src/graphics/sciviz.rs
FN:58,_RNCNvMNtNtCs7X22eMfvUxK_10xdl_stdlib8graphics6scivizNtB4_13VectorField3D13get_magnitude0B8_
FN:360,_RNCNvMs0_NtNtCs7X22eMfvUxK_10xdl_stdlib8graphics6scivizNtB7_13ScalarField3D14get_normalized0Bb_
FN:91,_RNCNvMs_NtNtCs7X22eMfvUxK_10xdl_stdlib8graphics6scivizNtB6_13VectorField2D13get_magnitude0Ba_
FN:47,_RNvMNtNtCs7X22eMfvUxK_10xdl_stdlib8graphics6scivizNtB2_13VectorField3D10get_vector
FN:56,_RNvMNtNtCs7X22eMfvUxK_10xdl_stdlib8graphics6scivizNtB2_13VectorField3D13get_magnitude
FN:20,_RNvMNtNtCs7X22eMfvUxK_10xdl_stdlib8graphics6scivizNtB2_13VectorField3D3new
FN:359,_RNvMs0_NtNtCs7X22eMfvUxK_10xdl_stdlib8graphics6scivizNtB5_13ScalarField3D14get_normalized
FN:324,_RNvMs0_NtNtCs7X22eMfvUxK_10xdl_stdlib8graphics6scivizNtB5_13ScalarField3D3new
FN:351,_RNvMs0_NtNtCs7X22eMfvUxK_10xdl_stdlib8graphics6scivizNtB5_13ScalarField3D9get_value
FN:82,_RNvMs_NtNtCs7X22eMfvUxK_10xdl_stdlib8graphics6scivizNtB4_13VectorField2D10get_vector
FN:90,_RNvMs_NtNtCs7X22eMfvUxK_10xdl_stdlib8graphics6scivizNtB4_13VectorField2D13get_magnitude
FN:70,_RNvMs_NtNtCs7X22eMfvUxK_10xdl_stdlib8graphics6scivizNtB4_13VectorField2D3new
FN:96,_RNvNtNtCs7X22eMfvUxK_10xdl_stdlib8graphics6sciviz13render_quiver
FN:371,_RNvNtNtCs7X22eMfvUxK_10xdl_stdlib8graphics6sciviz17render_volume_mip
FN:234,_RNvNtNtCs7X22eMfvUxK_10xdl_stdlib8graphics6sciviz18interpolate_vector
FN:270,_RNvNtNtCs7X22eMfvUxK_10xdl_stdlib8graphics6sciviz18render_streamlines
FN:184,_RNvNtNtCs7X22eMfvUxK_10xdl_stdlib8graphics6sciviz20integrate_streamline
FN:450,_RNvNtNtCs7X22eMfvUxK_10xdl_stdlib8graphics6sciviz23render_isosurface_slice
FN:525,_RNvNtNtNtCsgiIQ3x9G6Hx_10xdl_stdlib8graphics6sciviz5testss_20test_scalar_field_3d
FN:512,_RNvNtNtNtCsgiIQ3x9G6Hx_10xdl_stdlib8graphics6sciviz5testss_20test_vector_field_2d
FN:58,_RNCNvMNtNtCsgiIQ3x9G6Hx_10xdl_stdlib8graphics6scivizNtB4_13VectorField3D13get_magnitude0B8_
FN:360,_RNCNvMs0_NtNtCsgiIQ3x9G6Hx_10xdl_stdlib8graphics6scivizNtB7_13ScalarField3D14get_normalized0Bb_
FN:91,_RNCNvMs_NtNtCsgiIQ3x9G6Hx_10xdl_stdlib8graphics6scivizNtB6_13VectorField2D13get_magnitude0Ba_
FN:47,_RNvMNtNtCsgiIQ3x9G6Hx_10xdl_stdlib8graphics6scivizNtB2_13VectorField3D10get_vector
FN:56,_RNvMNtNtCsgiIQ3x9G6Hx_10xdl_stdlib8graphics6scivizNtB2_13VectorField3D13get_magnitude
FN:20,_RNvMNtNtCsgiIQ3x9G6Hx_10xdl_stdlib8graphics6scivizNtB2_13VectorField3D3new
FN:359,_RNvMs0_NtNtCsgiIQ3x9G6Hx_10xdl_stdlib8graphics6scivizNtB5_13ScalarField3D14get_normalized
FN:351,_RNvMs0_NtNtCsgiIQ3x9G6Hx_10xdl_stdlib8graphics6scivizNtB5_13ScalarField3D9get_value
FN:90,_RNvMs_NtNtCsgiIQ3x9G6Hx_10xdl_stdlib8graphics6scivizNtB4_13VectorField2D13get_magnitude
FN:96,_RNvNtNtCsgiIQ3x9G6Hx_10xdl_stdlib8graphics6sciviz13render_quiver
FN:371,_RNvNtNtCsgiIQ3x9G6Hx_10xdl_stdlib8graphics6sciviz17render_volume_mip
FN:234,_RNvNtNtCsgiIQ3x9G6Hx_10xdl_stdlib8graphics6sciviz18interpolate_vector
FN:270,_RNvNtNtCsgiIQ3x9G6Hx_10xdl_stdlib8graphics6sciviz18render_streamlines
FN:184,_RNvNtNtCsgiIQ3x9G6Hx_10xdl_stdlib8graphics6sciviz20integrate_streamline
FN:450,_RNvNtNtCsgiIQ3x9G6Hx_10xdl_stdlib8graphics6sciviz23render_isosurface_slice
FN:324,_RNvMs0_NtNtCsgiIQ3x9G6Hx_10xdl_stdlib8graphics6scivizNtB5_13ScalarField3D3new
FN:82,_RNvMs_NtNtCsgiIQ3x9G6Hx_10xdl_stdlib8graphics6scivizNtB4_13VectorField2D10get_vector
FN:70,_RNvMs_NtNtCsgiIQ3x9G6Hx_10xdl_stdlib8graphics6scivizNtB4_13VectorField2D3new
FNDA:0,_RNCNvMNtNtCs7X22eMfvUxK_10xdl_stdlib8graphics6scivizNtB4_13VectorField3D13get_magnitude0B8_
FNDA:0,_RNCNvMs0_NtNtCs7X22eMfvUxK_10xdl_stdlib8graphics6scivizNtB7_13ScalarField3D14get_normalized0Bb_
FNDA:0,_RNCNvMs_NtNtCs7X22eMfvUxK_10xdl_stdlib8graphics6scivizNtB6_13VectorField2D13get_magnitude0Ba_
FNDA:0,_RNvMNtNtCs7X22eMfvUxK_10xdl_stdlib8graphics6scivizNtB2_13VectorField3D10get_vector
FNDA:0,_RNvMNtNtCs7X22eMfvUxK_10xdl_stdlib8graphics6scivizNtB2_13VectorField3D13get_magnitude
FNDA:0,_RNvMNtNtCs7X22eMfvUxK_10xdl_stdlib8graphics6scivizNtB2_13VectorField3D3new
FNDA:0,_RNvMs0_NtNtCs7X22eMfvUxK_10xdl_stdlib8graphics6scivizNtB5_13ScalarField3D14get_normalized
FNDA:0,_RNvMs0_NtNtCs7X22eMfvUxK_10xdl_stdlib8graphics6scivizNtB5_13ScalarField3D3new
FNDA:0,_RNvMs0_NtNtCs7X22eMfvUxK_10xdl_stdlib8graphics6scivizNtB5_13ScalarField3D9get_value
FNDA:0,_RNvMs_NtNtCs7X22eMfvUxK_10xdl_stdlib8graphics6scivizNtB4_13VectorField2D10get_vector
FNDA:0,_RNvMs_NtNtCs7X22eMfvUxK_10xdl_stdlib8graphics6scivizNtB4_13VectorField2D13get_magnitude
FNDA:0,_RNvMs_NtNtCs7X22eMfvUxK_10xdl_stdlib8graphics6scivizNtB4_13VectorField2D3new
FNDA:0,_RNvNtNtCs7X22eMfvUxK_10xdl_stdlib8graphics6sciviz13render_quiver
FNDA:0,_RNvNtNtCs7X22eMfvUxK_10xdl_stdlib8graphics6sciviz17render_volume_mip
FNDA:0,_RNvNtNtCs7X22eMfvUxK_10xdl_stdlib8graphics6sciviz18interpolate_vector
FNDA:0,_RNvNtNtCs7X22eMfvUxK_10xdl_stdlib8graphics6sciviz18render_streamlines
FNDA:0,_RNvNtNtCs7X22eMfvUxK_10xdl_stdlib8graphics6sciviz20integrate_streamline
FNDA:0,_RNvNtNtCs7X22eMfvUxK_10xdl_stdlib8graphics6sciviz23render_isosurface_slice
FNDA:1,_RNvNtNtNtCsgiIQ3x9G6Hx_10xdl_stdlib8graphics6sciviz5testss_20test_scalar_field_3d
FNDA:1,_RNvNtNtNtCsgiIQ3x9G6Hx_10xdl_stdlib8graphics6sciviz5testss_20test_vector_field_2d
FNDA:0,_RNCNvMNtNtCsgiIQ3x9G6Hx_10xdl_stdlib8graphics6scivizNtB4_13VectorField3D13get_magnitude0B8_
FNDA:0,_RNCNvMs0_NtNtCsgiIQ3x9G6Hx_10xdl_stdlib8graphics6scivizNtB7_13ScalarField3D14get_normalized0Bb_
FNDA:0,_RNCNvMs_NtNtCsgiIQ3x9G6Hx_10xdl_stdlib8graphics6scivizNtB6_13VectorField2D13get_magnitude0Ba_
FNDA:0,_RNvMNtNtCsgiIQ3x9G6Hx_10xdl_stdlib8graphics6scivizNtB2_13VectorField3D10get_vector
FNDA:0,_RNvMNtNtCsgiIQ3x9G6Hx_10xdl_stdlib8graphics6scivizNtB2_13VectorField3D13get_magnitude
FNDA:0,_RNvMNtNtCsgiIQ3x9G6Hx_10xdl_stdlib8graphics6scivizNtB2_13VectorField3D3new
FNDA:0,_RNvMs0_NtNtCsgiIQ3x9G6Hx_10xdl_stdlib8graphics6scivizNtB5_13ScalarField3D14get_normalized
FNDA:0,_RNvMs0_NtNtCsgiIQ3x9G6Hx_10xdl_stdlib8graphics6scivizNtB5_13ScalarField3D9get_value
FNDA:0,_RNvMs_NtNtCsgiIQ3x9G6Hx_10xdl_stdlib8graphics6scivizNtB4_13VectorField2D13get_magnitude
FNDA:0,_RNvNtNtCsgiIQ3x9G6Hx_10xdl_stdlib8graphics6sciviz13render_quiver
FNDA:0,_RNvNtNtCsgiIQ3x9G6Hx_10xdl_stdlib8graphics6sciviz17render_volume_mip
FNDA:0,_RNvNtNtCsgiIQ3x9G6Hx_10xdl_stdlib8graphics6sciviz18interpolate_vector
FNDA:0,_RNvNtNtCsgiIQ3x9G6Hx_10xdl_stdlib8graphics6sciviz18render_streamlines
FNDA:0,_RNvNtNtCsgiIQ3x9G6Hx_10xdl_stdlib8graphics6sciviz20integrate_streamline
FNDA:0,_RNvNtNtCsgiIQ3x9G6Hx_10xdl_stdlib8graphics6sciviz23render_isosurface_slice
FNDA:1,_RNvMs0_NtNtCsgiIQ3x9G6Hx_10xdl_stdlib8graphics6scivizNtB5_13ScalarField3D3new
FNDA:1,_RNvMs_NtNtCsgiIQ3x9G6Hx_10xdl_stdlib8graphics6scivizNtB4_13VectorField2D10get_vector
FNDA:1,_RNvMs_NtNtCsgiIQ3x9G6Hx_10xdl_stdlib8graphics6scivizNtB4_13VectorField2D3new
FNF:20
FNH:5
DA:20,0
DA:21,0
DA:22,0
DA:23,0
DA:24,0
DA:25,0
DA:28,0
DA:29,0
DA:30,0
DA:31,0
DA:32,0
DA:33,0
DA:34,0
DA:35,0
DA:36,0
DA:37,0
DA:38,0
DA:39,0
DA:43,0
DA:44,0
DA:47,0
DA:48,0
DA:49,0
DA:51,0
DA:53,0
DA:56,0
DA:57,0
DA:58,0
DA:59,0
DA:70,1
DA:71,1
DA:73,1
DA:74,0
DA:75,0
DA:76,0
DA:77,1
DA:79,1
DA:80,1
DA:82,1
DA:83,1
DA:84,1
DA:86,0
DA:88,1
DA:90,0
DA:91,0
DA:92,0
DA:96,0
DA:97,0
DA:98,0
DA:99,0
DA:100,0
DA:101,0
DA:102,0
DA:103,0
DA:104,0
DA:105,0
DA:106,0
DA:107,0
DA:109,0
DA:110,0
DA:112,0
DA:113,0
DA:114,0
DA:115,0
DA:116,0
DA:117,0
DA:119,0
DA:122,0
DA:123,0
DA:124,0
DA:125,0
DA:126,0
DA:127,0
DA:132,0
DA:133,0
DA:134,0
DA:135,0
DA:136,0
DA:137,0
DA:138,0
DA:139,0
DA:140,0
DA:143,0
DA:144,0
DA:145,0
DA:146,0
DA:148,0
DA:152,0
DA:153,0
DA:154,0
DA:155,0
DA:158,0
DA:159,0
DA:160,0
DA:161,0
DA:162,0
DA:163,0
DA:164,0
DA:166,0
DA:167,0
DA:168,0
DA:169,0
DA:170,0
DA:171,0
DA:172,0
DA:173,0
DA:174,0
DA:175,0
DA:179,0
DA:180,0
DA:181,0
DA:184,0
DA:185,0
DA:186,0
DA:187,0
DA:188,0
DA:189,0
DA:190,0
DA:191,0
DA:192,0
DA:193,0
DA:195,0
DA:197,0
DA:198,0
DA:199,0
DA:200,0
DA:201,0
DA:202,0
DA:203,0
DA:204,0
DA:205,0
DA:206,0
DA:207,0
DA:208,0
DA:210,0
DA:211,0
DA:213,0
DA:214,0
DA:217,0
DA:218,0
DA:219,0
DA:222,0
DA:223,0
DA:224,0
DA:225,0
DA:227,0
DA:230,0
DA:231,0
DA:234,0
DA:235,0
DA:236,0
DA:238,0
DA:239,0
DA:240,0
DA:242,0
DA:243,0
DA:246,0
DA:247,0
DA:248,0
DA:249,0
DA:251,0
DA:252,0
DA:253,0
DA:254,0
DA:256,0
DA:257,0
DA:258,0
DA:259,0
DA:261,0
DA:262,0
DA:263,0
DA:264,0
DA:266,0
DA:267,0
DA:270,0
DA:271,0
DA:272,0
DA:273,0
DA:274,0
DA:275,0
DA:276,0
DA:277,0
DA:278,0
DA:279,0
DA:280,0
DA:281,0
DA:282,0
DA:284,0
DA:285,0
DA:287,0
DA:288,0
DA:289,0
DA:290,0
DA:292,0
DA:295,0
DA:296,0
DA:298,0
DA:299,0
DA:300,0
DA:301,0
DA:302,0
DA:304,0
DA:307,0
DA:308,0
DA:311,0
DA:312,0
DA:313,0
DA:324,1
DA:325,1
DA:326,0
DA:327,1
DA:329,1
DA:331,1
DA:332,1
DA:334,3
DA:335,6
DA:336,12
DA:337,8
DA:338,8
DA:339,8
DA:343,1
DA:344,1
DA:345,1
DA:346,1
DA:347,1
DA:348,1
DA:349,1
DA:351,0
DA:352,0
DA:353,0
DA:355,0
DA:357,0
DA:359,0
DA:360,0
DA:361,0
DA:362,0
DA:364,0
DA:366,0
DA:367,0
DA:371,0
DA:372,0
DA:373,0
DA:374,0
DA:375,0
DA:376,0
DA:377,0
DA:378,0
DA:379,0
DA:380,0
DA:381,0
DA:383,0
DA:384,0
DA:386,0
DA:387,0
DA:388,0
DA:389,0
DA:392,0
DA:393,0
DA:394,0
DA:395,0
DA:398,0
DA:399,0
DA:400,0
DA:402,0
DA:405,0
DA:406,0
DA:407,0
DA:408,0
DA:413,0
DA:414,0
DA:415,0
DA:416,0
DA:421,0
DA:422,0
DA:423,0
DA:424,0
DA:429,0
DA:430,0
DA:432,0
DA:435,0
DA:436,0
DA:438,0
DA:439,0
DA:440,0
DA:441,0
DA:445,0
DA:446,0
DA:447,0
DA:450,0
DA:451,0
DA:452,0
DA:453,0
DA:454,0
DA:455,0
DA:456,0
DA:457,0
DA:458,0
DA:459,0
DA:460,0
DA:461,0
DA:463,0
DA:464,0
DA:466,0
DA:467,0
DA:468,0
DA:469,0
DA:472,0
DA:473,0
DA:474,0
DA:475,0
DA:476,0
DA:477,0
DA:478,0
DA:480,0
DA:483,0
DA:484,0
DA:485,0
DA:486,0
DA:487,0
DA:488,0
DA:491,0
DA:492,0
DA:493,0
DA:494,0
DA:496,0
DA:497,0
DA:498,0
DA:499,0
DA:503,0
DA:504,0
DA:505,0
DA:512,1
DA:513,1
DA:514,1
DA:516,1
DA:517,1
DA:519,1
DA:520,1
DA:521,1
DA:522,1
DA:525,1
DA:526,1
DA:527,1
DA:528,1
DA:531,1
DA:532,1
DA:533,1
DA:534,1
DA:535,1
BRF:0
BRH:0
LF:352
LH:47
end_of_record
SF:/Users/ravindraboddipalli/sources/xdl/xdl-stdlib/src/graphics/state.rs
FN:73,_RNvMs0_NtNtCs7X22eMfvUxK_10xdl_stdlib8graphics5stateNtB5_5Color10from_index
FN:69,_RNvMs0_NtNtCs7X22eMfvUxK_10xdl_stdlib8graphics5stateNtB5_5Color3new
FN:77,_RNvMs0_NtNtCs7X22eMfvUxK_10xdl_stdlib8graphics5stateNtB5_5Color6to_rgb
FN:164,_RNvMs1_NtNtCs7X22eMfvUxK_10xdl_stdlib8graphics5stateNtB5_10ColorTable10blue_white
FN:111,_RNvMs1_NtNtCs7X22eMfvUxK_10xdl_stdlib8graphics5stateNtB5_10ColorTable10load_table
FN:180,_RNvMs1_NtNtCs7X22eMfvUxK_10xdl_stdlib8graphics5stateNtB5_10ColorTable15grn_red_blu_wht
FN:91,_RNvMs1_NtNtCs7X22eMfvUxK_10xdl_stdlib8graphics5stateNtB5_10ColorTable3new
FN:123,_RNvMs1_NtNtCs7X22eMfvUxK_10xdl_stdlib8graphics5stateNtB5_10ColorTable7rainbow
FN:149,_RNvMs1_NtNtCs7X22eMfvUxK_10xdl_stdlib8graphics5stateNtB5_10ColorTable8blue_red
FN:202,_RNvMs1_NtNtCs7X22eMfvUxK_10xdl_stdlib8graphics5stateNtB5_10ColorTable9get_color
FN:96,_RNvMs1_NtNtCs7X22eMfvUxK_10xdl_stdlib8graphics5stateNtB5_10ColorTable9grayscale
FN:227,_RNvMs3_NtNtCs7X22eMfvUxK_10xdl_stdlib8graphics5stateNtB5_10WindowInfo3new
FN:326,_RNvMs4_NtNtCs7X22eMfvUxK_10xdl_stdlib8graphics5stateNtB5_13GraphicsState12reset_ranges
FN:295,_RNvMs4_NtNtCs7X22eMfvUxK_10xdl_stdlib8graphics5stateNtB5_13GraphicsState13create_window
FN:311,_RNvMs4_NtNtCs7X22eMfvUxK_10xdl_stdlib8graphics5stateNtB5_13GraphicsState13delete_window
FN:322,_RNvMs4_NtNtCs7X22eMfvUxK_10xdl_stdlib8graphics5stateNtB5_13GraphicsState16load_color_table
FN:318,_RNvMs4_NtNtCs7X22eMfvUxK_10xdl_stdlib8graphics5stateNtB5_13GraphicsState18get_current_window
FN:302,_RNvMs4_NtNtCs7X22eMfvUxK_10xdl_stdlib8graphics5stateNtB5_13GraphicsState18set_current_window
FN:273,_RNvMs4_NtNtCs7X22eMfvUxK_10xdl_stdlib8graphics5stateNtB5_13GraphicsState3new
FN:25,_RNvXNtNtCs7X22eMfvUxK_10xdl_stdlib8graphics5stateNtB2_9PlotStyleNtNtCs2CqrNpCrSUr_4core7default7Default7default
FN:209,_RNvXs2_NtNtCs7X22eMfvUxK_10xdl_stdlib8graphics5stateNtB5_10ColorTableNtNtCs2CqrNpCrSUr_4core7default7Default7default
FN:334,_RNvXs5_NtNtCs7X22eMfvUxK_10xdl_stdlib8graphics5stateNtB5_13GraphicsStateNtNtCs2CqrNpCrSUr_4core7default7Default7default
FN:48,_RNvXs_NtNtCs7X22eMfvUxK_10xdl_stdlib8graphics5stateNtB4_9LineStyleINtNtCs2CqrNpCrSUr_4core7convert4FromlE4from
FN:73,_RNvMs0_NtNtCsgiIQ3x9G6Hx_10xdl_stdlib8graphics5stateNtB5_5Color10from_index
FN:77,_RNvMs0_NtNtCsgiIQ3x9G6Hx_10xdl_stdlib8graphics5stateNtB5_5Color6to_rgb
FN:164,_RNvMs1_NtNtCsgiIQ3x9G6Hx_10xdl_stdlib8graphics5stateNtB5_10ColorTable10blue_white
FN:111,_RNvMs1_NtNtCsgiIQ3x9G6Hx_10xdl_stdlib8graphics5stateNtB5_10ColorTable10load_table
FN:180,_RNvMs1_NtNtCsgiIQ3x9G6Hx_10xdl_stdlib8graphics5stateNtB5_10ColorTable15grn_red_blu_wht
FN:91,_RNvMs1_NtNtCsgiIQ3x9G6Hx_10xdl_stdlib8graphics5stateNtB5_10ColorTable3new
FN:123,_RNvMs1_NtNtCsgiIQ3x9G6Hx_10xdl_stdlib8graphics5stateNtB5_10ColorTable7rainbow
FN:149,_RNvMs1_NtNtCsgiIQ3x9G6Hx_10xdl_stdlib8graphics5stateNtB5_10ColorTable8blue_red
FN:202,_RNvMs1_NtNtCsgiIQ3x9G6Hx_10xdl_stdlib8graphics5stateNtB5_10ColorTable9get_color
FN:96,_RNvMs1_NtNtCsgiIQ3x9G6Hx_10xdl_stdlib8graphics5stateNtB5_10ColorTable9grayscale
FN:227,_RNvMs3_NtNtCsgiIQ3x9G6Hx_10xdl_stdlib8graphics5stateNtB5_10WindowInfo3new
FN:326,_RNvMs4_NtNtCsgiIQ3x9G6Hx_10xdl_stdlib8graphics5stateNtB5_13GraphicsState12reset_ranges
FN:295,_RNvMs4_NtNtCsgiIQ3x9G6Hx_10xdl_stdlib8graphics5stateNtB5_13GraphicsState13create_window
FN:311,_RNvMs4_NtNtCsgiIQ3x9G6Hx_10xdl_stdlib8graphics5stateNtB5_13GraphicsState13delete_window
FN:322,_RNvMs4_NtNtCsgiIQ3x9G6Hx_10xdl_stdlib8graphics5stateNtB5_13GraphicsState16load_color_table
FN:318,_RNvMs4_NtNtCsgiIQ3x9G6Hx_10xdl_stdlib8graphics5stateNtB5_13GraphicsState18get_current_window
FN:302,_RNvMs4_NtNtCsgiIQ3x9G6Hx_10xdl_stdlib8graphics5stateNtB5_13GraphicsState18set_current_window
FN:273,_RNvMs4_NtNtCsgiIQ3x9G6Hx_10xdl_stdlib8graphics5stateNtB5_13GraphicsState3new
FN:25,_RNvXNtNtCsgiIQ3x9G6Hx_10xdl_stdlib8graphics5stateNtB2_9PlotStyleNtNtCs2CqrNpCrSUr_4core7default7Default7default
FN:209,_RNvXs2_NtNtCsgiIQ3x9G6Hx_10xdl_stdlib8graphics5stateNtB5_10ColorTableNtNtCs2CqrNpCrSUr_4core7default7Default7default
FN:334,_RNvXs5_NtNtCsgiIQ3x9G6Hx_10xdl_stdlib8graphics5stateNtB5_13GraphicsStateNtNtCs2CqrNpCrSUr_4core7default7Default7default
FN:48,_RNvXs_NtNtCsgiIQ3x9G6Hx_10xdl_stdlib8graphics5stateNtB4_9LineStyleINtNtCs2CqrNpCrSUr_4core7convert4FromlE4from
FN:69,_RNvMs0_NtNtCsgiIQ3x9G6Hx_10xdl_stdlib8graphics5stateNtB5_5Color3new
FNDA:0,_RNvMs0_NtNtCs7X22eMfvUxK_10xdl_stdlib8graphics5stateNtB5_5Color10from_index
FNDA:0,_RNvMs0_NtNtCs7X22eMfvUxK_10xdl_stdlib8graphics5stateNtB5_5Color3new
FNDA:0,_RNvMs0_NtNtCs7X22eMfvUxK_10xdl_stdlib8graphics5stateNtB5_5Color6to_rgb
FNDA:0,_RNvMs1_NtNtCs7X22eMfvUxK_10xdl_stdlib8graphics5stateNtB5_10ColorTable10blue_white
FNDA:0,_RNvMs1_NtNtCs7X22eMfvUxK_10xdl_stdlib8graphics5stateNtB5_10ColorTable10load_table
FNDA:0,_RNvMs1_NtNtCs7X22eMfvUxK_10xdl_stdlib8graphics5stateNtB5_10ColorTable15grn_red_blu_wht
FNDA:0,_RNvMs1_NtNtCs7X22eMfvUxK_10xdl_stdlib8graphics5stateNtB5_10ColorTable3new
FNDA:0,_RNvMs1_NtNtCs7X22eMfvUxK_10xdl_stdlib8graphics5stateNtB5_10ColorTable7rainbow
FNDA:0,_RNvMs1_NtNtCs7X22eMfvUxK_10xdl_stdlib8graphics5stateNtB5_10ColorTable8blue_red
FNDA:0,_RNvMs1_NtNtCs7X22eMfvUxK_10xdl_stdlib8graphics5stateNtB5_10ColorTable9get_color
FNDA:0,_RNvMs1_NtNtCs7X22eMfvUxK_10xdl_stdlib8graphics5stateNtB5_10ColorTable9grayscale
FNDA:0,_RNvMs3_NtNtCs7X22eMfvUxK_10xdl_stdlib8graphics5stateNtB5_10WindowInfo3new
FNDA:0,_RNvMs4_NtNtCs7X22eMfvUxK_10xdl_stdlib8graphics5stateNtB5_13GraphicsState12reset_ranges
FNDA:0,_RNvMs4_NtNtCs7X22eMfvUxK_10xdl_stdlib8graphics5stateNtB5_13GraphicsState13create_window
FNDA:0,_RNvMs4_NtNtCs7X22eMfvUxK_10xdl_stdlib8graphics5stateNtB5_13GraphicsState13delete_window
FNDA:0,_RNvMs4_NtNtCs7X22eMfvUxK_10xdl_stdlib8graphics5stateNtB5_13GraphicsState16load_color_table
FNDA:0,_RNvMs4_NtNtCs7X22eMfvUxK_10xdl_stdlib8graphics5stateNtB5_13GraphicsState18get_current_window
FNDA:0,_RNvMs4_NtNtCs7X22eMfvUxK_10xdl_stdlib8graphics5stateNtB5_13GraphicsState18set_current_window
FNDA:0,_RNvMs4_NtNtCs7X22eMfvUxK_10xdl_stdlib8graphics5stateNtB5_13GraphicsState3new
FNDA:0,_RNvXNtNtCs7X22eMfvUxK_10xdl_stdlib8graphics5stateNtB2_9PlotStyleNtNtCs2CqrNpCrSUr_4core7default7Default7default
FNDA:0,_RNvXs2_NtNtCs7X22eMfvUxK_10xdl_stdlib8graphics5stateNtB5_10ColorTableNtNtCs2CqrNpCrSUr_4core7default7Default7default
FNDA:0,_RNvXs5_NtNtCs7X22eMfvUxK_10xdl_stdlib8graphics5stateNtB5_13GraphicsStateNtNtCs2CqrNpCrSUr_4core7default7Default7default
FNDA:0,_RNvXs_NtNtCs7X22eMfvUxK_10xdl_stdlib8graphics5stateNtB4_9LineStyleINtNtCs2CqrNpCrSUr_4core7convert4FromlE4from
FNDA:0,_RNvMs0_NtNtCsgiIQ3x9G6Hx_10xdl_stdlib8graphics5stateNtB5_5Color10from_index
FNDA:0,_RNvMs0_NtNtCsgiIQ3x9G6Hx_10xdl_stdlib8graphics5stateNtB5_5Color6to_rgb
FNDA:0,_RNvMs1_NtNtCsgiIQ3x9G6Hx_10xdl_stdlib8graphics5stateNtB5_10ColorTable10blue_white
FNDA:0,_RNvMs1_NtNtCsgiIQ3x9G6Hx_10xdl_stdlib8graphics5stateNtB5_10ColorTable10load_table
FNDA:0,_RNvMs1_NtNtCsgiIQ3x9G6Hx_10xdl_stdlib8graphics5stateNtB5_10ColorTable15grn_red_blu_wht
FNDA:0,_RNvMs1_NtNtCsgiIQ3x9G6Hx_10xdl_stdlib8graphics5stateNtB5_10ColorTable3new
FNDA:0,_RNvMs1_NtNtCsgiIQ3x9G6Hx_10xdl_stdlib8graphics5stateNtB5_10ColorTable7rainbow
FNDA:0,_RNvMs1_NtNtCsgiIQ3x9G6Hx_10xdl_stdlib8graphics5stateNtB5_10ColorTable8blue_red
FNDA:0,_RNvMs1_NtNtCsgiIQ3x9G6Hx_10xdl_stdlib8graphics5stateNtB5_10ColorTable9get_color
FNDA:0,_RNvMs1_NtNtCsgiIQ3x9G6Hx_10xdl_stdlib8graphics5stateNtB5_10ColorTable9grayscale
FNDA:0,_RNvMs3_NtNtCsgiIQ3x9G6Hx_10xdl_stdlib8graphics5stateNtB5_10WindowInfo3new
FNDA:0,_RNvMs4_NtNtCsgiIQ3x9G6Hx_10xdl_stdlib8graphics5stateNtB5_13GraphicsState12reset_ranges
FNDA:0,_RNvMs4_NtNtCsgiIQ3x9G6Hx_10xdl_stdlib8graphics5stateNtB5_13GraphicsState13create_window
FNDA:0,_RNvMs4_NtNtCsgiIQ3x9G6Hx_10xdl_stdlib8graphics5stateNtB5_13GraphicsState13delete_window
FNDA:0,_RNvMs4_NtNtCsgiIQ3x9G6Hx_10xdl_stdlib8graphics5stateNtB5_13GraphicsState16load_color_table
FNDA:0,_RNvMs4_NtNtCsgiIQ3x9G6Hx_10xdl_stdlib8graphics5stateNtB5_13GraphicsState18get_current_window
FNDA:0,_RNvMs4_NtNtCsgiIQ3x9G6Hx_10xdl_stdlib8graphics5stateNtB5_13GraphicsState18set_current_window
FNDA:0,_RNvMs4_NtNtCsgiIQ3x9G6Hx_10xdl_stdlib8graphics5stateNtB5_13GraphicsState3new
FNDA:0,_RNvXNtNtCsgiIQ3x9G6Hx_10xdl_stdlib8graphics5stateNtB2_9PlotStyleNtNtCs2CqrNpCrSUr_4core7default7Default7default
FNDA:0,_RNvXs2_NtNtCsgiIQ3x9G6Hx_10xdl_stdlib8graphics5stateNtB5_10ColorTableNtNtCs2CqrNpCrSUr_4core7default7Default7default
FNDA:0,_RNvXs5_NtNtCsgiIQ3x9G6Hx_10xdl_stdlib8graphics5stateNtB5_13GraphicsStateNtNtCs2CqrNpCrSUr_4core7default7Default7default
FNDA:0,_RNvXs_NtNtCsgiIQ3x9G6Hx_10xdl_stdlib8graphics5stateNtB4_9LineStyleINtNtCs2CqrNpCrSUr_4core7convert4FromlE4from
FNDA:19,_RNvMs0_NtNtCsgiIQ3x9G6Hx_10xdl_stdlib8graphics5stateNtB5_5Color3new
FNF:23
FNH:1
DA:25,0
DA:26,0
DA:27,0
DA:28,0
DA:29,0
DA:30,0
DA:31,0
DA:32,0
DA:33,0
DA:48,0
DA:49,0
DA:50,0
DA:51,0
DA:52,0
DA:53,0
DA:54,0
DA:55,0
DA:57,0
DA:69,19
DA:70,19
DA:71,19
DA:73,0
DA:74,0
DA:75,0
DA:77,0
DA:78,0
DA:79,0
DA:91,0
DA:92,0
DA:93,0
DA:96,0
DA:97,0
DA:98,0
DA:99,0
DA:101,0
DA:102,0
DA:103,0
DA:104,0
DA:105,0
DA:107,0
DA:108,0
DA:111,0
DA:112,0
DA:113,0
DA:114,0
DA:115,0
DA:116,0
DA:117,0
DA:118,0
DA:120,0
DA:123,0
DA:124,0
DA:125,0
DA:126,0
DA:128,0
DA:129,0
DA:130,0
DA:131,0
DA:132,0
DA:133,0
DA:134,0
DA:135,0
DA:136,0
DA:137,0
DA:138,0
DA:139,0
DA:140,0
DA:141,0
DA:142,0
DA:145,0
DA:146,0
DA:149,0
DA:150,0
DA:151,0
DA:152,0
DA:154,0
DA:155,0
DA:156,0
DA:157,0
DA:158,0
DA:160,0
DA:161,0
DA:164,0
DA:165,0
DA:166,0
DA:167,0
DA:169,0
DA:170,0
DA:171,0
DA:172,0
DA:173,0
DA:174,0
DA:176,0
DA:177,0
DA:180,0
DA:181,0
DA:182,0
DA:183,0
DA:185,0
DA:186,0
DA:187,0
DA:188,0
DA:189,0
DA:190,0
DA:191,0
DA:192,0
DA:193,0
DA:194,0
DA:195,0
DA:196,0
DA:199,0
DA:200,0
DA:202,0
DA:203,0
DA:204,0
DA:205,0
DA:209,0
DA:210,0
DA:211,0
DA:227,0
DA:228,0
DA:229,0
DA:230,0
DA:231,0
DA:232,0
DA:233,0
DA:234,0
DA:235,0
DA:236,0
DA:237,0
DA:273,0
DA:274,0
DA:275,0
DA:277,0
DA:278,0
DA:279,0
DA:280,0
DA:281,0
DA:282,0
DA:283,0
DA:284,0
DA:285,0
DA:286,0
DA:287,0
DA:288,0
DA:289,0
DA:290,0
DA:291,0
DA:292,0
DA:293,0
DA:295,0
DA:296,0
DA:297,0
DA:298,0
DA:299,0
DA:300,0
DA:302,0
DA:303,0
DA:304,0
DA:305,0
DA:307,0
DA:309,0
DA:311,0
DA:312,0
DA:313,0
DA:314,0
DA:315,0
DA:316,0
DA:318,0
DA:319,0
DA:320,0
DA:322,0
DA:323,0
DA:324,0
DA:326,0
DA:327,0
DA:328,0
DA:329,0
DA:330,0
DA:334,0
DA:335,0
DA:336,0
BRF:0
BRH:0
LF:182
LH:3
end_of_record
SF:/Users/ravindraboddipalli/sources/xdl/xdl-stdlib/src/graphics/terrain.rs
FN:69,_RNCNvMNtNtCs7X22eMfvUxK_10xdl_stdlib8graphics7terrainNtB4_21DigitalElevationModel14get_normalized0B8_
FN:354,_RNCNvNtNtCs7X22eMfvUxK_10xdl_stdlib8graphics7terrain17render_terrain_3d0B7_
FN:59,_RNvMNtNtCs7X22eMfvUxK_10xdl_stdlib8graphics7terrainNtB2_21DigitalElevationModel13get_elevation
FN:68,_RNvMNtNtCs7X22eMfvUxK_10xdl_stdlib8graphics7terrainNtB2_21DigitalElevationModel14get_normalized
FN:79,_RNvMNtNtCs7X22eMfvUxK_10xdl_stdlib8graphics7terrainNtB2_21DigitalElevationModel15calculate_slope
FN:97,_RNvMNtNtCs7X22eMfvUxK_10xdl_stdlib8graphics7terrainNtB2_21DigitalElevationModel16calculate_aspect
FN:116,_RNvMNtNtCs7X22eMfvUxK_10xdl_stdlib8graphics7terrainNtB2_21DigitalElevationModel18generate_hillshade
FN:23,_RNvMNtNtCs7X22eMfvUxK_10xdl_stdlib8graphics7terrainNtB2_21DigitalElevationModel3new
FN:184,_RNvNtNtCs7X22eMfvUxK_10xdl_stdlib8graphics7terrain16render_hillshade
FN:274,_RNvNtNtCs7X22eMfvUxK_10xdl_stdlib8graphics7terrain17generate_contours
FN:328,_RNvNtNtCs7X22eMfvUxK_10xdl_stdlib8graphics7terrain17render_terrain_3d
FN:141,_RNvNtNtCs7X22eMfvUxK_10xdl_stdlib8graphics7terrain20render_elevation_map
FN:224,_RNvNtNtCs7X22eMfvUxK_10xdl_stdlib8graphics7terrain20render_shaded_relief
FN:417,_RNvNtNtNtCsgiIQ3x9G6Hx_10xdl_stdlib8graphics7terrain5testss_17test_dem_creation
FN:432,_RNvNtNtNtCsgiIQ3x9G6Hx_10xdl_stdlib8graphics7terrain5testss_25test_hillshade_generation
FN:69,_RNCNvMNtNtCsgiIQ3x9G6Hx_10xdl_stdlib8graphics7terrainNtB4_21DigitalElevationModel14get_normalized0B8_
FN:354,_RNCNvNtNtCsgiIQ3x9G6Hx_10xdl_stdlib8graphics7terrain17render_terrain_3d0B7_
FN:59,_RNvMNtNtCsgiIQ3x9G6Hx_10xdl_stdlib8graphics7terrainNtB2_21DigitalElevationModel13get_elevation
FN:68,_RNvMNtNtCsgiIQ3x9G6Hx_10xdl_stdlib8graphics7terrainNtB2_21DigitalElevationModel14get_normalized
FN:184,_RNvNtNtCsgiIQ3x9G6Hx_10xdl_stdlib8graphics7terrain16render_hillshade
FN:274,_RNvNtNtCsgiIQ3x9G6Hx_10xdl_stdlib8graphics7terrain17generate_contours
FN:328,_RNvNtNtCsgiIQ3x9G6Hx_10xdl_stdlib8graphics7terrain17render_terrain_3d
FN:141,_RNvNtNtCsgiIQ3x9G6Hx_10xdl_stdlib8graphics7terrain20render_elevation_map
FN:224,_RNvNtNtCsgiIQ3x9G6Hx_10xdl_stdlib8graphics7terrain20render_shaded_relief
FN:79,_RNvMNtNtCsgiIQ3x9G6Hx_10xdl_stdlib8graphics7terrainNtB2_21DigitalElevationModel15calculate_slope
FN:97,_RNvMNtNtCsgiIQ3x9G6Hx_10xdl_stdlib8graphics7terrainNtB2_21DigitalElevationModel16calculate_aspect
FN:116,_RNvMNtNtCsgiIQ3x9G6Hx_10xdl_stdlib8graphics7terrainNtB2_21DigitalElevationModel18generate_hillshade
FN:23,_RNvMNtNtCsgiIQ3x9G6Hx_10xdl_stdlib8graphics7terrainNtB2_21DigitalElevationModel3new
FNDA:0,_RNCNvMNtNtCs7X22eMfvUxK_10xdl_stdlib8graphics7terrainNtB4_21DigitalElevationModel14get_normalized0B8_
FNDA:0,_RNCNvNtNtCs7X22eMfvUxK_10xdl_stdlib8graphics7terrain17render_terrain_3d0B7_
FNDA:0,_RNvMNtNtCs7X22eMfvUxK_10xdl_stdlib8graphics7terrainNtB2_21DigitalElevationModel13get_elevation
FNDA:0,_RNvMNtNtCs7X22eMfvUxK_10xdl_stdlib8graphics7terrainNtB2_21DigitalElevationModel14get_normalized
FNDA:0,_RNvMNtNtCs7X22eMfvUxK_10xdl_stdlib8graphics7terrainNtB2_21DigitalElevationModel15calculate_slope
FNDA:0,_RNvMNtNtCs7X22eMfvUxK_10xdl_stdlib8graphics7terrainNtB2_21DigitalElevationModel16calculate_aspect
FNDA:0,_RNvMNtNtCs7X22eMfvUxK_10xdl_stdlib8graphics7terrainNtB2_21DigitalElevationModel18generate_hillshade
FNDA:0,_RNvMNtNtCs7X22eMfvUxK_10xdl_stdlib8graphics7terrainNtB2_21DigitalElevationModel3new
FNDA:0,_RNvNtNtCs7X22eMfvUxK_10xdl_stdlib8graphics7terrain16render_hillshade
FNDA:0,_RNvNtNtCs7X22eMfvUxK_10xdl_stdlib8graphics7terrain17generate_contours
FNDA:0,_RNvNtNtCs7X22eMfvUxK_10xdl_stdlib8graphics7terrain17render_terrain_3d
FNDA:0,_RNvNtNtCs7X22eMfvUxK_10xdl_stdlib8graphics7terrain20render_elevation_map
FNDA:0,_RNvNtNtCs7X22eMfvUxK_10xdl_stdlib8graphics7terrain20render_shaded_relief
FNDA:1,_RNvNtNtNtCsgiIQ3x9G6Hx_10xdl_stdlib8graphics7terrain5testss_17test_dem_creation
FNDA:1,_RNvNtNtNtCsgiIQ3x9G6Hx_10xdl_stdlib8graphics7terrain5testss_25test_hillshade_generation
FNDA:0,_RNCNvMNtNtCsgiIQ3x9G6Hx_10xdl_stdlib8graphics7terrainNtB4_21DigitalElevationModel14get_normalized0B8_
FNDA:0,_RNCNvNtNtCsgiIQ3x9G6Hx_10xdl_stdlib8graphics7terrain17render_terrain_3d0B7_
FNDA:0,_RNvMNtNtCsgiIQ3x9G6Hx_10xdl_stdlib8graphics7terrainNtB2_21DigitalElevationModel13get_elevation
FNDA:0,_RNvMNtNtCsgiIQ3x9G6Hx_10xdl_stdlib8graphics7terrainNtB2_21DigitalElevationModel14get_normalized
FNDA:0,_RNvNtNtCsgiIQ3x9G6Hx_10xdl_stdlib8graphics7terrain16render_hillshade
FNDA:0,_RNvNtNtCsgiIQ3x9G6Hx_10xdl_stdlib8graphics7terrain17generate_contours
FNDA:0,_RNvNtNtCsgiIQ3x9G6Hx_10xdl_stdlib8graphics7terrain17render_terrain_3d
FNDA:0,_RNvNtNtCsgiIQ3x9G6Hx_10xdl_stdlib8graphics7terrain20render_elevation_map
FNDA:0,_RNvNtNtCsgiIQ3x9G6Hx_10xdl_stdlib8graphics7terrain20render_shaded_relief
FNDA:9,_RNvMNtNtCsgiIQ3x9G6Hx_10xdl_stdlib8graphics7terrainNtB2_21DigitalElevationModel15calculate_slope
FNDA:9,_RNvMNtNtCsgiIQ3x9G6Hx_10xdl_stdlib8graphics7terrainNtB2_21DigitalElevationModel16calculate_aspect
FNDA:1,_RNvMNtNtCsgiIQ3x9G6Hx_10xdl_stdlib8graphics7terrainNtB2_21DigitalElevationModel18generate_hillshade
FNDA:2,_RNvMNtNtCsgiIQ3x9G6Hx_10xdl_stdlib8graphics7terrainNtB2_21DigitalElevationModel3new
FNF:15
FNH:6
DA:23,2
DA:24,2
DA:25,0
DA:26,0
DA:27,0
DA:28,2
DA:30,2
DA:31,2
DA:33,2
DA:34,2
DA:36,8
DA:37,6
DA:38,0
DA:39,0
DA:40,0
DA:41,6
DA:42,24
DA:43,18
DA:44,18
DA:45,18
DA:48,2
DA:49,2
DA:50,2
DA:51,2
DA:52,2
DA:53,2
DA:54,2
DA:55,2
DA:56,2
DA:59,0
DA:60,0
DA:61,0
DA:63,0
DA:65,0
DA:68,0
DA:69,0
DA:70,0
DA:71,0
DA:73,0
DA:75,0
DA:76,0
DA:79,9
DA:80,9
DA:81,8
DA:82,1
DA:84,1
DA:85,1
DA:86,1
DA:87,1
DA:88,1
DA:90,1
DA:91,1
DA:93,1
DA:94,9
DA:97,9
DA:98,9
DA:99,8
DA:100,1
DA:102,1
DA:103,1
DA:104,1
DA:105,1
DA:107,1
DA:108,1
DA:110,1
DA:111,9
DA:116,1
DA:117,1
DA:118,1
DA:120,1
DA:122,3
DA:123,9
DA:124,9
DA:125,9
DA:126,9
DA:127,9
DA:128,9
DA:129,9
DA:130,9
DA:131,9
DA:132,9
DA:133,9
DA:136,1
DA:137,1
DA:141,0
DA:142,0
DA:143,0
DA:144,0
DA:145,0
DA:146,0
DA:147,0
DA:148,0
DA:149,0
DA:150,0
DA:152,0
DA:153,0
DA:155,0
DA:156,0
DA:157,0
DA:158,0
DA:159,0
DA:160,0
DA:162,0
DA:165,0
DA:166,0
DA:167,0
DA:168,0
DA:169,0
DA:171,0
DA:172,0
DA:173,0
DA:174,0
DA:175,0
DA:179,0
DA:180,0
DA:181,0
DA:184,0
DA:185,0
DA:186,0
DA:187,0
DA:188,0
DA:189,0
DA:190,0
DA:192,0
DA:193,0
DA:194,0
DA:195,0
DA:196,0
DA:198,0
DA:199,0
DA:201,0
DA:202,0
DA:203,0
DA:204,0
DA:207,0
DA:208,0
DA:209,0
DA:210,0
DA:212,0
DA:213,0
DA:214,0
DA:215,0
DA:219,0
DA:220,0
DA:221,0
DA:224,0
DA:225,0
DA:226,0
DA:227,0
DA:228,0
DA:229,0
DA:230,0
DA:231,0
DA:232,0
DA:234,0
DA:235,0
DA:236,0
DA:237,0
DA:238,0
DA:240,0
DA:241,0
DA:243,0
DA:244,0
DA:245,0
DA:246,0
DA:249,0
DA:250,0
DA:251,0
DA:252,0
DA:255,0
DA:256,0
DA:257,0
DA:259,0
DA:261,0
DA:262,0
DA:263,0
DA:264,0
DA:265,0
DA:269,0
DA:270,0
DA:271,0
DA:274,0
DA:275,0
DA:276,0
DA:277,0
DA:278,0
DA:279,0
DA:280,0
DA:281,0
DA:282,0
DA:283,0
DA:285,0
DA:286,0
DA:288,0
DA:289,0
DA:290,0
DA:291,0
DA:293,0
DA:296,0
DA:297,0
DA:298,0
DA:300,0
DA:301,0
DA:302,0
DA:303,0
DA:305,0
DA:307,0
DA:308,0
DA:310,0
DA:312,0
DA:313,0
DA:315,0
DA:316,0
DA:317,0
DA:318,0
DA:323,0
DA:324,0
DA:325,0
DA:328,0
DA:329,0
DA:330,0
DA:331,0
DA:332,0
DA:333,0
DA:334,0
DA:335,0
DA:336,0
DA:337,0
DA:338,0
DA:339,0
DA:340,0
DA:342,0
DA:343,0
DA:345,0
DA:346,0
DA:347,0
DA:349,0
DA:350,0
DA:351,0
DA:352,0
DA:354,0
DA:355,0
DA:356,0
DA:357,0
DA:358,0
DA:360,0
DA:363,0
DA:364,0
DA:365,0
DA:366,0
DA:367,0
DA:368,0
DA:369,0
DA:371,0
DA:372,0
DA:373,0
DA:374,0
DA:377,0
DA:378,0
DA:379,0
DA:381,0
DA:383,0
DA:384,0
DA:387,0
DA:388,0
DA:389,0
DA:390,0
DA:391,0
DA:393,0
DA:394,0
DA:396,0
DA:397,0
DA:398,0
DA:399,0
DA:400,0
DA:402,0
DA:403,0
DA:404,0
DA:408,0
DA:409,0
DA:410,0
DA:417,1
DA:418,1
DA:419,1
DA:420,1
DA:421,1
DA:424,1
DA:425,1
DA:426,1
DA:427,1
DA:428,1
DA:429,1
DA:432,1
DA:433,1
DA:434,1
DA:435,1
DA:436,1
DA:439,1
DA:440,1
DA:442,1
DA:443,1
DA:444,1
BRF:0
BRH:0
LF:304
LH:87
end_of_record
SF:/Users/ravindraboddipalli/sources/xdl/xdl-stdlib/src/graphics_procs.rs
FN:318,_RINvNtCs7X22eMfvUxK_10xdl_stdlib14graphics_procs26register_gui_plot_callbackpEB4_
FN:328,_RINvNtCs7X22eMfvUxK_10xdl_stdlib14graphics_procs27register_gui_image_callbackpEB4_
FN:471,_RNCNvNtCs7X22eMfvUxK_10xdl_stdlib14graphics_procs10shade_surf0B5_
FN:472,_RNCNvNtCs7X22eMfvUxK_10xdl_stdlib14graphics_procs10shade_surfs_0B5_
FN:55,_RNCNvNtCs7X22eMfvUxK_10xdl_stdlib14graphics_procs18plot_with_keywords0B5_
FN:73,_RNCNvNtCs7X22eMfvUxK_10xdl_stdlib14graphics_procs18plot_with_keywordss0_0B5_
FN:78,_RNCNvNtCs7X22eMfvUxK_10xdl_stdlib14graphics_procs18plot_with_keywordss1_0B5_
FN:92,_RNCNvNtCs7X22eMfvUxK_10xdl_stdlib14graphics_procs18plot_with_keywordss2_0B5_
FN:93,_RNCNvNtCs7X22eMfvUxK_10xdl_stdlib14graphics_procs18plot_with_keywordss3_0B5_
FN:94,_RNCNvNtCs7X22eMfvUxK_10xdl_stdlib14graphics_procs18plot_with_keywordss4_0B5_
FN:68,_RNCNvNtCs7X22eMfvUxK_10xdl_stdlib14graphics_procs18plot_with_keywordss_0B5_
FN:145,_RNCNvNtCs7X22eMfvUxK_10xdl_stdlib14graphics_procs7contour0B5_
FN:146,_RNCNvNtCs7X22eMfvUxK_10xdl_stdlib14graphics_procs7contours_0B5_
FN:192,_RNCNvNtCs7X22eMfvUxK_10xdl_stdlib14graphics_procs7surface0B5_
FN:193,_RNCNvNtCs7X22eMfvUxK_10xdl_stdlib14graphics_procs7surfaces_0B5_
FN:20,_RNvMNtCs7X22eMfvUxK_10xdl_stdlib14graphics_procsNtB2_17GraphicsFunctions3new
FN:852,_RNvNtCs7X22eMfvUxK_10xdl_stdlib14graphics_procs10dem_render
FN:619,_RNvNtCs7X22eMfvUxK_10xdl_stdlib14graphics_procs10isocontour
FN:630,_RNvNtCs7X22eMfvUxK_10xdl_stdlib14graphics_procs10isosurface
FN:452,_RNvNtCs7X22eMfvUxK_10xdl_stdlib14graphics_procs10shade_surf
FN:932,_RNvNtCs7X22eMfvUxK_10xdl_stdlib14graphics_procs11quiver_proc
FN:608,_RNvNtCs7X22eMfvUxK_10xdl_stdlib14graphics_procs13image_display
FN:891,_RNvNtCs7X22eMfvUxK_10xdl_stdlib14graphics_procs14hillshade_proc
FN:647,_RNvNtCs7X22eMfvUxK_10xdl_stdlib14graphics_procs14map_continents
FN:502,_RNvNtCs7X22eMfvUxK_10xdl_stdlib14graphics_procs14shade_surf_irr
FN:770,_RNvNtCs7X22eMfvUxK_10xdl_stdlib14graphics_procs15render_colormap
FN:259,_RNvNtCs7X22eMfvUxK_10xdl_stdlib14graphics_procs16extract_2d_array
FN:37,_RNvNtCs7X22eMfvUxK_10xdl_stdlib14graphics_procs18plot_with_keywords
FN:240,_RNvNtCs7X22eMfvUxK_10xdl_stdlib14graphics_procs21extract_numeric_array
FN:525,_RNvNtCs7X22eMfvUxK_10xdl_stdlib14graphics_procs2tv
FN:519,_RNvNtCs7X22eMfvUxK_10xdl_stdlib14graphics_procs3t3d
FN:743,_RNvNtCs7X22eMfvUxK_10xdl_stdlib14graphics_procs3vel
FN:386,_RNvNtCs7X22eMfvUxK_10xdl_stdlib14graphics_procs4axis
FN:32,_RNvNtCs7X22eMfvUxK_10xdl_stdlib14graphics_procs4plot
FN:227,_RNvNtCs7X22eMfvUxK_10xdl_stdlib14graphics_procs4wset
FN:441,_RNvNtCs7X22eMfvUxK_10xdl_stdlib14graphics_procs5arrow
FN:569,_RNvNtCs7X22eMfvUxK_10xdl_stdlib14graphics_procs5empty
FN:234,_RNvNtCs7X22eMfvUxK_10xdl_stdlib14graphics_procs5erase
FN:120,_RNvNtCs7X22eMfvUxK_10xdl_stdlib14graphics_procs5oplot
FN:408,_RNvNtCs7X22eMfvUxK_10xdl_stdlib14graphics_procs5plots
FN:513,_RNvNtCs7X22eMfvUxK_10xdl_stdlib14graphics_procs5show3
FN:732,_RNvNtCs7X22eMfvUxK_10xdl_stdlib14graphics_procs5surfr
FN:575,_RNvNtCs7X22eMfvUxK_10xdl_stdlib14graphics_procs5tvcrs
FN:373,_RNvNtCs7X22eMfvUxK_10xdl_stdlib14graphics_procs5tvscl
FN:547,_RNvNtCs7X22eMfvUxK_10xdl_stdlib14graphics_procs5wshow
FN:558,_RNvNtCs7X22eMfvUxK_10xdl_stdlib14graphics_procs6cursor
FN:338,_RNvNtCs7X22eMfvUxK_10xdl_stdlib14graphics_procs6device
FN:349,_RNvNtCs7X22eMfvUxK_10xdl_stdlib14graphics_procs6loadct
FN:681,_RNvNtCs7X22eMfvUxK_10xdl_stdlib14graphics_procs6plot3d
FN:726,_RNvNtCs7X22eMfvUxK_10xdl_stdlib14graphics_procs6scale3
FN:220,_RNvNtCs7X22eMfvUxK_10xdl_stdlib14graphics_procs6window
FN:397,_RNvNtCs7X22eMfvUxK_10xdl_stdlib14graphics_procs6xyouts
FN:126,_RNvNtCs7X22eMfvUxK_10xdl_stdlib14graphics_procs7contour
FN:670,_RNvNtCs7X22eMfvUxK_10xdl_stdlib14graphics_procs7errplot
FN:641,_RNvNtCs7X22eMfvUxK_10xdl_stdlib14graphics_procs7map_set
FN:659,_RNvNtCs7X22eMfvUxK_10xdl_stdlib14graphics_procs7ploterr
FN:173,_RNvNtCs7X22eMfvUxK_10xdl_stdlib14graphics_procs7surface
FN:430,_RNvNtCs7X22eMfvUxK_10xdl_stdlib14graphics_procs7usersym
FN:536,_RNvNtCs7X22eMfvUxK_10xdl_stdlib14graphics_procs7wdelete
FN:586,_RNvNtCs7X22eMfvUxK_10xdl_stdlib14graphics_procs8bar_plot
FN:653,_RNvNtCs7X22eMfvUxK_10xdl_stdlib14graphics_procs8map_grid
FN:419,_RNvNtCs7X22eMfvUxK_10xdl_stdlib14graphics_procs8polyfill
FN:754,_RNvNtCs7X22eMfvUxK_10xdl_stdlib14graphics_procs8velovect
FN:597,_RNvNtCs7X22eMfvUxK_10xdl_stdlib14graphics_procs9histogram
FN:26,_RNvXs_NtCs7X22eMfvUxK_10xdl_stdlib14graphics_procsNtB4_17GraphicsFunctionsNtNtCs2CqrNpCrSUr_4core7default7Default7default
FN:318,_RINvNtCsgiIQ3x9G6Hx_10xdl_stdlib14graphics_procs26register_gui_plot_callbackpEB4_
FN:328,_RINvNtCsgiIQ3x9G6Hx_10xdl_stdlib14graphics_procs27register_gui_image_callbackpEB4_
FN:471,_RNCNvNtCsgiIQ3x9G6Hx_10xdl_stdlib14graphics_procs10shade_surf0B5_
FN:472,_RNCNvNtCsgiIQ3x9G6Hx_10xdl_stdlib14graphics_procs10shade_surfs_0B5_
FN:55,_RNCNvNtCsgiIQ3x9G6Hx_10xdl_stdlib14graphics_procs18plot_with_keywords0B5_
FN:73,_RNCNvNtCsgiIQ3x9G6Hx_10xdl_stdlib14graphics_procs18plot_with_keywordss0_0B5_
FN:78,_RNCNvNtCsgiIQ3x9G6Hx_10xdl_stdlib14graphics_procs18plot_with_keywordss1_0B5_
FN:92,_RNCNvNtCsgiIQ3x9G6Hx_10xdl_stdlib14graphics_procs18plot_with_keywordss2_0B5_
FN:93,_RNCNvNtCsgiIQ3x9G6Hx_10xdl_stdlib14graphics_procs18plot_with_keywordss3_0B5_
FN:94,_RNCNvNtCsgiIQ3x9G6Hx_10xdl_stdlib14graphics_procs18plot_with_keywordss4_0B5_
FN:68,_RNCNvNtCsgiIQ3x9G6Hx_10xdl_stdlib14graphics_procs18plot_with_keywordss_0B5_
FN:145,_RNCNvNtCsgiIQ3x9G6Hx_10xdl_stdlib14graphics_procs7contour0B5_
FN:146,_RNCNvNtCsgiIQ3x9G6Hx_10xdl_stdlib14graphics_procs7contours_0B5_
FN:192,_RNCNvNtCsgiIQ3x9G6Hx_10xdl_stdlib14graphics_procs7surface0B5_
FN:193,_RNCNvNtCsgiIQ3x9G6Hx_10xdl_stdlib14graphics_procs7surfaces_0B5_
FN:20,_RNvMNtCsgiIQ3x9G6Hx_10xdl_stdlib14graphics_procsNtB2_17GraphicsFunctions3new
FN:852,_RNvNtCsgiIQ3x9G6Hx_10xdl_stdlib14graphics_procs10dem_render
FN:619,_RNvNtCsgiIQ3x9G6Hx_10xdl_stdlib14graphics_procs10isocontour
FN:630,_RNvNtCsgiIQ3x9G6Hx_10xdl_stdlib14graphics_procs10isosurface
FN:452,_RNvNtCsgiIQ3x9G6Hx_10xdl_stdlib14graphics_procs10shade_surf
FN:932,_RNvNtCsgiIQ3x9G6Hx_10xdl_stdlib14graphics_procs11quiver_proc
FN:608,_RNvNtCsgiIQ3x9G6Hx_10xdl_stdlib14graphics_procs13image_display
FN:891,_RNvNtCsgiIQ3x9G6Hx_10xdl_stdlib14graphics_procs14hillshade_proc
FN:647,_RNvNtCsgiIQ3x9G6Hx_10xdl_stdlib14graphics_procs14map_continents
FN:502,_RNvNtCsgiIQ3x9G6Hx_10xdl_stdlib14graphics_procs14shade_surf_irr
FN:770,_RNvNtCsgiIQ3x9G6Hx_10xdl_stdlib14graphics_procs15render_colormap
FN:259,_RNvNtCsgiIQ3x9G6Hx_10xdl_stdlib14graphics_procs16extract_2d_array
FN:37,_RNvNtCsgiIQ3x9G6Hx_10xdl_stdlib14graphics_procs18plot_with_keywords
FN:240,_RNvNtCsgiIQ3x9G6Hx_10xdl_stdlib14graphics_procs21extract_numeric_array
FN:525,_RNvNtCsgiIQ3x9G6Hx_10xdl_stdlib14graphics_procs2tv
FN:519,_RNvNtCsgiIQ3x9G6Hx_10xdl_stdlib14graphics_procs3t3d
FN:743,_RNvNtCsgiIQ3x9G6Hx_10xdl_stdlib14graphics_procs3vel
FN:386,_RNvNtCsgiIQ3x9G6Hx_10xdl_stdlib14graphics_procs4axis
FN:32,_RNvNtCsgiIQ3x9G6Hx_10xdl_stdlib14graphics_procs4plot
FN:227,_RNvNtCsgiIQ3x9G6Hx_10xdl_stdlib14graphics_procs4wset
FN:441,_RNvNtCsgiIQ3x9G6Hx_10xdl_stdlib14graphics_procs5arrow
FN:569,_RNvNtCsgiIQ3x9G6Hx_10xdl_stdlib14graphics_procs5empty
FN:234,_RNvNtCsgiIQ3x9G6Hx_10xdl_stdlib14graphics_procs5erase
FN:120,_RNvNtCsgiIQ3x9G6Hx_10xdl_stdlib14graphics_procs5oplot
FN:408,_RNvNtCsgiIQ3x9G6Hx_10xdl_stdlib14graphics_procs5plots
FN:513,_RNvNtCsgiIQ3x9G6Hx_10xdl_stdlib14graphics_procs5show3
FN:732,_RNvNtCsgiIQ3x9G6Hx_10xdl_stdlib14graphics_procs5surfr
FN:575,_RNvNtCsgiIQ3x9G6Hx_10xdl_stdlib14graphics_procs5tvcrs
FN:373,_RNvNtCsgiIQ3x9G6Hx_10xdl_stdlib14graphics_procs5tvscl
FN:547,_RNvNtCsgiIQ3x9G6Hx_10xdl_stdlib14graphics_procs5wshow
FN:558,_RNvNtCsgiIQ3x9G6Hx_10xdl_stdlib14graphics_procs6cursor
FN:338,_RNvNtCsgiIQ3x9G6Hx_10xdl_stdlib14graphics_procs6device
FN:349,_RNvNtCsgiIQ3x9G6Hx_10xdl_stdlib14graphics_procs6loadct
FN:681,_RNvNtCsgiIQ3x9G6Hx_10xdl_stdlib14graphics_procs6plot3d
FN:726,_RNvNtCsgiIQ3x9G6Hx_10xdl_stdlib14graphics_procs6scale3
FN:220,_RNvNtCsgiIQ3x9G6Hx_10xdl_stdlib14graphics_procs6window
FN:397,_RNvNtCsgiIQ3x9G6Hx_10xdl_stdlib14graphics_procs6xyouts
FN:126,_RNvNtCsgiIQ3x9G6Hx_10xdl_stdlib14graphics_procs7contour
FN:670,_RNvNtCsgiIQ3x9G6Hx_10xdl_stdlib14graphics_procs7errplot
FN:641,_RNvNtCsgiIQ3x9G6Hx_10xdl_stdlib14graphics_procs7map_set
FN:659,_RNvNtCsgiIQ3x9G6Hx_10xdl_stdlib14graphics_procs7ploterr
FN:173,_RNvNtCsgiIQ3x9G6Hx_10xdl_stdlib14graphics_procs7surface
FN:430,_RNvNtCsgiIQ3x9G6Hx_10xdl_stdlib14graphics_procs7usersym
FN:536,_RNvNtCsgiIQ3x9G6Hx_10xdl_stdlib14graphics_procs7wdelete
FN:586,_RNvNtCsgiIQ3x9G6Hx_10xdl_stdlib14graphics_procs8bar_plot
FN:653,_RNvNtCsgiIQ3x9G6Hx_10xdl_stdlib14graphics_procs8map_grid
FN:419,_RNvNtCsgiIQ3x9G6Hx_10xdl_stdlib14graphics_procs8polyfill
FN:754,_RNvNtCsgiIQ3x9G6Hx_10xdl_stdlib14graphics_procs8velovect
FN:597,_RNvNtCsgiIQ3x9G6Hx_10xdl_stdlib14graphics_procs9histogram
FN:26,_RNvXs_NtCsgiIQ3x9G6Hx_10xdl_stdlib14graphics_procsNtB4_17GraphicsFunctionsNtNtCs2CqrNpCrSUr_4core7default7Default7default
FNDA:0,_RINvNtCs7X22eMfvUxK_10xdl_stdlib14graphics_procs26register_gui_plot_callbackpEB4_
FNDA:0,_RINvNtCs7X22eMfvUxK_10xdl_stdlib14graphics_procs27register_gui_image_callbackpEB4_
FNDA:0,_RNCNvNtCs7X22eMfvUxK_10xdl_stdlib14graphics_procs10shade_surf0B5_
FNDA:0,_RNCNvNtCs7X22eMfvUxK_10xdl_stdlib14graphics_procs10shade_surfs_0B5_
FNDA:0,_RNCNvNtCs7X22eMfvUxK_10xdl_stdlib14graphics_procs18plot_with_keywords0B5_
FNDA:0,_RNCNvNtCs7X22eMfvUxK_10xdl_stdlib14graphics_procs18plot_with_keywordss0_0B5_
FNDA:0,_RNCNvNtCs7X22eMfvUxK_10xdl_stdlib14graphics_procs18plot_with_keywordss1_0B5_
FNDA:0,_RNCNvNtCs7X22eMfvUxK_10xdl_stdlib14graphics_procs18plot_with_keywordss2_0B5_
FNDA:0,_RNCNvNtCs7X22eMfvUxK_10xdl_stdlib14graphics_procs18plot_with_keywordss3_0B5_
FNDA:0,_RNCNvNtCs7X22eMfvUxK_10xdl_stdlib14graphics_procs18plot_with_keywordss4_0B5_
FNDA:0,_RNCNvNtCs7X22eMfvUxK_10xdl_stdlib14graphics_procs18plot_with_keywordss_0B5_
FNDA:0,_RNCNvNtCs7X22eMfvUxK_10xdl_stdlib14graphics_procs7contour0B5_
FNDA:0,_RNCNvNtCs7X22eMfvUxK_10xdl_stdlib14graphics_procs7contours_0B5_
FNDA:0,_RNCNvNtCs7X22eMfvUxK_10xdl_stdlib14graphics_procs7surface0B5_
FNDA:0,_RNCNvNtCs7X22eMfvUxK_10xdl_stdlib14graphics_procs7surfaces_0B5_
FNDA:0,_RNvMNtCs7X22eMfvUxK_10xdl_stdlib14graphics_procsNtB2_17GraphicsFunctions3new
FNDA:0,_RNvNtCs7X22eMfvUxK_10xdl_stdlib14graphics_procs10dem_render
FNDA:0,_RNvNtCs7X22eMfvUxK_10xdl_stdlib14graphics_procs10isocontour
FNDA:0,_RNvNtCs7X22eMfvUxK_10xdl_stdlib14graphics_procs10isosurface
FNDA:0,_RNvNtCs7X22eMfvUxK_10xdl_stdlib14graphics_procs10shade_surf
FNDA:0,_RNvNtCs7X22eMfvUxK_10xdl_stdlib14graphics_procs11quiver_proc
FNDA:0,_RNvNtCs7X22eMfvUxK_10xdl_stdlib14graphics_procs13image_display
FNDA:0,_RNvNtCs7X22eMfvUxK_10xdl_stdlib14graphics_procs14hillshade_proc
FNDA:0,_RNvNtCs7X22eMfvUxK_10xdl_stdlib14graphics_procs14map_continents
FNDA:0,_RNvNtCs7X22eMfvUxK_10xdl_stdlib14graphics_procs14shade_surf_irr
FNDA:0,_RNvNtCs7X22eMfvUxK_10xdl_stdlib14graphics_procs15render_colormap
FNDA:0,_RNvNtCs7X22eMfvUxK_10xdl_stdlib14graphics_procs16extract_2d_array
FNDA:0,_RNvNtCs7X22eMfvUxK_10xdl_stdlib14graphics_procs18plot_with_keywords
FNDA:0,_RNvNtCs7X22eMfvUxK_10xdl_stdlib14graphics_procs21extract_numeric_array
FNDA:0,_RNvNtCs7X22eMfvUxK_10xdl_stdlib14graphics_procs2tv
FNDA:0,_RNvNtCs7X22eMfvUxK_10xdl_stdlib14graphics_procs3t3d
FNDA:0,_RNvNtCs7X22eMfvUxK_10xdl_stdlib14graphics_procs3vel
FNDA:0,_RNvNtCs7X22eMfvUxK_10xdl_stdlib14graphics_procs4axis
FNDA:0,_RNvNtCs7X22eMfvUxK_10xdl_stdlib14graphics_procs4plot
FNDA:0,_RNvNtCs7X22eMfvUxK_10xdl_stdlib14graphics_procs4wset
FNDA:0,_RNvNtCs7X22eMfvUxK_10xdl_stdlib14graphics_procs5arrow
FNDA:0,_RNvNtCs7X22eMfvUxK_10xdl_stdlib14graphics_procs5empty
FNDA:0,_RNvNtCs7X22eMfvUxK_10xdl_stdlib14graphics_procs5erase
FNDA:0,_RNvNtCs7X22eMfvUxK_10xdl_stdlib14graphics_procs5oplot
FNDA:0,_RNvNtCs7X22eMfvUxK_10xdl_stdlib14graphics_procs5plots
FNDA:0,_RNvNtCs7X22eMfvUxK_10xdl_stdlib14graphics_procs5show3
FNDA:0,_RNvNtCs7X22eMfvUxK_10xdl_stdlib14graphics_procs5surfr
FNDA:0,_RNvNtCs7X22eMfvUxK_10xdl_stdlib14graphics_procs5tvcrs
FNDA:0,_RNvNtCs7X22eMfvUxK_10xdl_stdlib14graphics_procs5tvscl
FNDA:0,_RNvNtCs7X22eMfvUxK_10xdl_stdlib14graphics_procs5wshow
FNDA:0,_RNvNtCs7X22eMfvUxK_10xdl_stdlib14graphics_procs6cursor
FNDA:0,_RNvNtCs7X22eMfvUxK_10xdl_stdlib14graphics_procs6device
FNDA:0,_RNvNtCs7X22eMfvUxK_10xdl_stdlib14graphics_procs6loadct
FNDA:0,_RNvNtCs7X22eMfvUxK_10xdl_stdlib14graphics_procs6plot3d
FNDA:0,_RNvNtCs7X22eMfvUxK_10xdl_stdlib14graphics_procs6scale3
FNDA:0,_RNvNtCs7X22eMfvUxK_10xdl_stdlib14graphics_procs6window
FNDA:0,_RNvNtCs7X22eMfvUxK_10xdl_stdlib14graphics_procs6xyouts
FNDA:0,_RNvNtCs7X22eMfvUxK_10xdl_stdlib14graphics_procs7contour
FNDA:0,_RNvNtCs7X22eMfvUxK_10xdl_stdlib14graphics_procs7errplot
FNDA:0,_RNvNtCs7X22eMfvUxK_10xdl_stdlib14graphics_procs7map_set
FNDA:0,_RNvNtCs7X22eMfvUxK_10xdl_stdlib14graphics_procs7ploterr
FNDA:0,_RNvNtCs7X22eMfvUxK_10xdl_stdlib14graphics_procs7surface
FNDA:0,_RNvNtCs7X22eMfvUxK_10xdl_stdlib14graphics_procs7usersym
FNDA:0,_RNvNtCs7X22eMfvUxK_10xdl_stdlib14graphics_procs7wdelete
FNDA:0,_RNvNtCs7X22eMfvUxK_10xdl_stdlib14graphics_procs8bar_plot
FNDA:0,_RNvNtCs7X22eMfvUxK_10xdl_stdlib14graphics_procs8map_grid
FNDA:0,_RNvNtCs7X22eMfvUxK_10xdl_stdlib14graphics_procs8polyfill
FNDA:0,_RNvNtCs7X22eMfvUxK_10xdl_stdlib14graphics_procs8velovect
FNDA:0,_RNvNtCs7X22eMfvUxK_10xdl_stdlib14graphics_procs9histogram
FNDA:0,_RNvXs_NtCs7X22eMfvUxK_10xdl_stdlib14graphics_procsNtB4_17GraphicsFunctionsNtNtCs2CqrNpCrSUr_4core7default7Default7default
FNDA:0,_RINvNtCsgiIQ3x9G6Hx_10xdl_stdlib14graphics_procs26register_gui_plot_callbackpEB4_
FNDA:0,_RINvNtCsgiIQ3x9G6Hx_10xdl_stdlib14graphics_procs27register_gui_image_callbackpEB4_
FNDA:0,_RNCNvNtCsgiIQ3x9G6Hx_10xdl_stdlib14graphics_procs10shade_surf0B5_
FNDA:0,_RNCNvNtCsgiIQ3x9G6Hx_10xdl_stdlib14graphics_procs10shade_surfs_0B5_
FNDA:0,_RNCNvNtCsgiIQ3x9G6Hx_10xdl_stdlib14graphics_procs18plot_with_keywords0B5_
FNDA:0,_RNCNvNtCsgiIQ3x9G6Hx_10xdl_stdlib14graphics_procs18plot_with_keywordss0_0B5_
FNDA:0,_RNCNvNtCsgiIQ3x9G6Hx_10xdl_stdlib14graphics_procs18plot_with_keywordss1_0B5_
FNDA:0,_RNCNvNtCsgiIQ3x9G6Hx_10xdl_stdlib14graphics_procs18plot_with_keywordss2_0B5_
FNDA:0,_RNCNvNtCsgiIQ3x9G6Hx_10xdl_stdlib14graphics_procs18plot_with_keywordss3_0B5_
FNDA:0,_RNCNvNtCsgiIQ3x9G6Hx_10xdl_stdlib14graphics_procs18plot_with_keywordss4_0B5_
FNDA:0,_RNCNvNtCsgiIQ3x9G6Hx_10xdl_stdlib14graphics_procs18plot_with_keywordss_0B5_
FNDA:0,_RNCNvNtCsgiIQ3x9G6Hx_10xdl_stdlib14graphics_procs7contour0B5_
FNDA:0,_RNCNvNtCsgiIQ3x9G6Hx_10xdl_stdlib14graphics_procs7contours_0B5_
FNDA:0,_RNCNvNtCsgiIQ3x9G6Hx_10xdl_stdlib14graphics_procs7surface0B5_
FNDA:0,_RNCNvNtCsgiIQ3x9G6Hx_10xdl_stdlib14graphics_procs7surfaces_0B5_
FNDA:0,_RNvMNtCsgiIQ3x9G6Hx_10xdl_stdlib14graphics_procsNtB2_17GraphicsFunctions3new
FNDA:0,_RNvNtCsgiIQ3x9G6Hx_10xdl_stdlib14graphics_procs10dem_render
FNDA:0,_RNvNtCsgiIQ3x9G6Hx_10xdl_stdlib14graphics_procs10isocontour
FNDA:0,_RNvNtCsgiIQ3x9G6Hx_10xdl_stdlib14graphics_procs10isosurface
FNDA:0,_RNvNtCsgiIQ3x9G6Hx_10xdl_stdlib14graphics_procs10shade_surf
FNDA:0,_RNvNtCsgiIQ3x9G6Hx_10xdl_stdlib14graphics_procs11quiver_proc
FNDA:0,_RNvNtCsgiIQ3x9G6Hx_10xdl_stdlib14graphics_procs13image_display
FNDA:0,_RNvNtCsgiIQ3x9G6Hx_10xdl_stdlib14graphics_procs14hillshade_proc
FNDA:0,_RNvNtCsgiIQ3x9G6Hx_10xdl_stdlib14graphics_procs14map_continents
FNDA:0,_RNvNtCsgiIQ3x9G6Hx_10xdl_stdlib14graphics_procs14shade_surf_irr
FNDA:0,_RNvNtCsgiIQ3x9G6Hx_10xdl_stdlib14graphics_procs15render_colormap
FNDA:0,_RNvNtCsgiIQ3x9G6Hx_10xdl_stdlib14graphics_procs16extract_2d_array
FNDA:0,_RNvNtCsgiIQ3x9G6Hx_10xdl_stdlib14graphics_procs18plot_with_keywords
FNDA:0,_RNvNtCsgiIQ3x9G6Hx_10xdl_stdlib14graphics_procs21extract_numeric_array
FNDA:0,_RNvNtCsgiIQ3x9G6Hx_10xdl_stdlib14graphics_procs2tv
FNDA:0,_RNvNtCsgiIQ3x9G6Hx_10xdl_stdlib14graphics_procs3t3d
FNDA:0,_RNvNtCsgiIQ3x9G6Hx_10xdl_stdlib14graphics_procs3vel
FNDA:0,_RNvNtCsgiIQ3x9G6Hx_10xdl_stdlib14graphics_procs4axis
FNDA:0,_RNvNtCsgiIQ3x9G6Hx_10xdl_stdlib14graphics_procs4plot
FNDA:0,_RNvNtCsgiIQ3x9G6Hx_10xdl_stdlib14graphics_procs4wset
FNDA:0,_RNvNtCsgiIQ3x9G6Hx_10xdl_stdlib14graphics_procs5arrow
FNDA:0,_RNvNtCsgiIQ3x9G6Hx_10xdl_stdlib14graphics_procs5empty
FNDA:0,_RNvNtCsgiIQ3x9G6Hx_10xdl_stdlib14graphics_procs5erase
FNDA:0,_RNvNtCsgiIQ3x9G6Hx_10xdl_stdlib14graphics_procs5oplot
FNDA:0,_RNvNtCsgiIQ3x9G6Hx_10xdl_stdlib14graphics_procs5plots
FNDA:0,_RNvNtCsgiIQ3x9G6Hx_10xdl_stdlib14graphics_procs5show3
FNDA:0,_RNvNtCsgiIQ3x9G6Hx_10xdl_stdlib14graphics_procs5surfr
FNDA:0,_RNvNtCsgiIQ3x9G6Hx_10xdl_stdlib14graphics_procs5tvcrs
FNDA:0,_RNvNtCsgiIQ3x9G6Hx_10xdl_stdlib14graphics_procs5tvscl
FNDA:0,_RNvNtCsgiIQ3x9G6Hx_10xdl_stdlib14graphics_procs5wshow
FNDA:0,_RNvNtCsgiIQ3x9G6Hx_10xdl_stdlib14graphics_procs6cursor
FNDA:0,_RNvNtCsgiIQ3x9G6Hx_10xdl_stdlib14graphics_procs6device
FNDA:0,_RNvNtCsgiIQ3x9G6Hx_10xdl_stdlib14graphics_procs6loadct
FNDA:0,_RNvNtCsgiIQ3x9G6Hx_10xdl_stdlib14graphics_procs6plot3d
FNDA:0,_RNvNtCsgiIQ3x9G6Hx_10xdl_stdlib14graphics_procs6scale3
FNDA:0,_RNvNtCsgiIQ3x9G6Hx_10xdl_stdlib14graphics_procs6window
FNDA:0,_RNvNtCsgiIQ3x9G6Hx_10xdl_stdlib14graphics_procs6xyouts
FNDA:0,_RNvNtCsgiIQ3x9G6Hx_10xdl_stdlib14graphics_procs7contour
FNDA:0,_RNvNtCsgiIQ3x9G6Hx_10xdl_stdlib14graphics_procs7errplot
FNDA:0,_RNvNtCsgiIQ3x9G6Hx_10xdl_stdlib14graphics_procs7map_set
FNDA:0,_RNvNtCsgiIQ3x9G6Hx_10xdl_stdlib14graphics_procs7ploterr
FNDA:0,_RNvNtCsgiIQ3x9G6Hx_10xdl_stdlib14graphics_procs7surface
FNDA:0,_RNvNtCsgiIQ3x9G6Hx_10xdl_stdlib14graphics_procs7usersym
FNDA:0,_RNvNtCsgiIQ3x9G6Hx_10xdl_stdlib14graphics_procs7wdelete
FNDA:0,_RNvNtCsgiIQ3x9G6Hx_10xdl_stdlib14graphics_procs8bar_plot
FNDA:0,_RNvNtCsgiIQ3x9G6Hx_10xdl_stdlib14graphics_procs8map_grid
FNDA:0,_RNvNtCsgiIQ3x9G6Hx_10xdl_stdlib14graphics_procs8polyfill
FNDA:0,_RNvNtCsgiIQ3x9G6Hx_10xdl_stdlib14graphics_procs8velovect
FNDA:0,_RNvNtCsgiIQ3x9G6Hx_10xdl_stdlib14graphics_procs9histogram
FNDA:0,_RNvXs_NtCsgiIQ3x9G6Hx_10xdl_stdlib14graphics_procsNtB4_17GraphicsFunctionsNtNtCs2CqrNpCrSUr_4core7default7Default7default
FNF:65
FNH:0
DA:20,0
DA:21,0
DA:22,0
DA:26,0
DA:27,0
DA:28,0
DA:32,0
DA:33,0
DA:34,0
DA:37,0
DA:38,0
DA:39,0
DA:40,0
DA:43,0
DA:44,0
DA:45,0
DA:46,0
DA:47,0
DA:49,0
DA:51,0
DA:52,0
DA:55,0
DA:58,0
DA:59,0
DA:60,0
DA:61,0
DA:62,0
DA:65,0
DA:68,0
DA:69,0
DA:70,0
DA:73,0
DA:74,0
DA:75,0
DA:78,0
DA:79,0
DA:80,0
DA:83,0
DA:89,0
DA:90,0
DA:91,0
DA:92,0
DA:93,0
DA:94,0
DA:97,0
DA:98,0
DA:99,0
DA:102,0
DA:103,0
DA:104,0
DA:105,0
DA:106,0
DA:107,0
DA:110,0
DA:111,0
DA:112,0
DA:113,0
DA:114,0
DA:116,0
DA:117,0
DA:120,0
DA:122,0
DA:123,0
DA:126,0
DA:129,0
DA:130,0
DA:131,0
DA:132,0
DA:133,0
DA:136,0
DA:139,0
DA:140,0
DA:142,0
DA:144,0
DA:145,0
DA:146,0
DA:149,0
DA:152,0
DA:155,0
DA:156,0
DA:159,0
DA:160,0
DA:163,0
DA:164,0
DA:165,0
DA:166,0
DA:167,0
DA:169,0
DA:170,0
DA:173,0
DA:176,0
DA:177,0
DA:178,0
DA:179,0
DA:180,0
DA:183,0
DA:186,0
DA:187,0
DA:189,0
DA:191,0
DA:192,0
DA:193,0
DA:196,0
DA:199,0
DA:202,0
DA:203,0
DA:206,0
DA:207,0
DA:210,0
DA:211,0
DA:212,0
DA:213,0
DA:214,0
DA:216,0
DA:217,0
DA:220,0
DA:222,0
DA:223,0
DA:224,0
DA:227,0
DA:229,0
DA:230,0
DA:231,0
DA:234,0
DA:235,0
DA:236,0
DA:237,0
DA:240,0
DA:241,0
DA:242,0
DA:243,0
DA:244,0
DA:245,0
DA:248,0
DA:249,0
DA:250,0
DA:251,0
DA:252,0
DA:256,0
DA:259,0
DA:260,0
DA:261,0
DA:263,0
DA:264,0
DA:265,0
DA:266,0
DA:267,0
DA:268,0
DA:270,0
DA:271,0
DA:273,0
DA:274,0
DA:275,0
DA:276,0
DA:277,0
DA:278,0
DA:279,0
DA:280,0
DA:283,0
DA:284,0
DA:285,0
DA:286,0
DA:287,0
DA:288,0
DA:289,0
DA:291,0
DA:292,0
DA:293,0
DA:294,0
DA:295,0
DA:298,0
DA:299,0
DA:300,0
DA:301,0
DA:302,0
DA:303,0
DA:304,0
DA:305,0
DA:307,0
DA:308,0
DA:310,0
DA:311,0
DA:312,0
DA:314,0
DA:318,0
DA:319,0
DA:320,0
DA:322,0
DA:323,0
DA:324,0
DA:325,0
DA:328,0
DA:329,0
DA:330,0
DA:332,0
DA:333,0
DA:334,0
DA:335,0
DA:338,0
DA:340,0
DA:341,0
DA:342,0
DA:343,0
DA:344,0
DA:345,0
DA:346,0
DA:349,0
DA:350,0
DA:351,0
DA:352,0
DA:353,0
DA:354,0
DA:356,0
DA:357,0
DA:358,0
DA:360,0
DA:361,0
DA:362,0
DA:363,0
DA:368,0
DA:369,0
DA:370,0
DA:373,0
DA:374,0
DA:375,0
DA:376,0
DA:377,0
DA:378,0
DA:381,0
DA:382,0
DA:383,0
DA:386,0
DA:388,0
DA:389,0
DA:390,0
DA:397,0
DA:398,0
DA:399,0
DA:400,0
DA:401,0
DA:402,0
DA:403,0
DA:404,0
DA:405,0
DA:408,0
DA:409,0
DA:410,0
DA:411,0
DA:412,0
DA:413,0
DA:414,0
DA:415,0
DA:416,0
DA:419,0
DA:420,0
DA:421,0
DA:422,0
DA:423,0
DA:424,0
DA:425,0
DA:426,0
DA:427,0
DA:430,0
DA:431,0
DA:432,0
DA:433,0
DA:434,0
DA:435,0
DA:436,0
DA:437,0
DA:438,0
DA:441,0
DA:442,0
DA:443,0
DA:444,0
DA:445,0
DA:446,0
DA:447,0
DA:448,0
DA:449,0
DA:452,0
DA:455,0
DA:456,0
DA:457,0
DA:458,0
DA:459,0
DA:462,0
DA:465,0
DA:466,0
DA:468,0
DA:470,0
DA:471,0
DA:472,0
DA:475,0
DA:476,0
DA:477,0
DA:478,0
DA:481,0
DA:484,0
DA:485,0
DA:488,0
DA:489,0
DA:492,0
DA:493,0
DA:494,0
DA:495,0
DA:496,0
DA:498,0
DA:499,0
DA:502,0
DA:503,0
DA:504,0
DA:505,0
DA:506,0
DA:507,0
DA:508,0
DA:509,0
DA:510,0
DA:513,0
DA:514,0
DA:515,0
DA:516,0
DA:519,0
DA:520,0
DA:521,0
DA:522,0
DA:525,0
DA:526,0
DA:527,0
DA:528,0
DA:529,0
DA:530,0
DA:531,0
DA:532,0
DA:533,0
DA:536,0
DA:537,0
DA:538,0
DA:539,0
DA:540,0
DA:541,0
DA:542,0
DA:543,0
DA:544,0
DA:547,0
DA:548,0
DA:549,0
DA:550,0
DA:551,0
DA:552,0
DA:553,0
DA:554,0
DA:555,0
DA:558,0
DA:559,0
DA:560,0
DA:561,0
DA:562,0
DA:563,0
DA:564,0
DA:565,0
DA:566,0
DA:569,0
DA:570,0
DA:571,0
DA:572,0
DA:575,0
DA:576,0
DA:577,0
DA:578,0
DA:579,0
DA:580,0
DA:581,0
DA:582,0
DA:583,0
DA:586,0
DA:587,0
DA:588,0
DA:589,0
DA:590,0
DA:591,0
DA:592,0
DA:593,0
DA:594,0
DA:597,0
DA:598,0
DA:599,0
DA:600,0
DA:601,0
DA:602,0
DA:603,0
DA:604,0
DA:605,0
DA:608,0
DA:609,0
DA:610,0
DA:611,0
DA:612,0
DA:613,0
DA:614,0
DA:615,0
DA:616,0
DA:619,0
DA:620,0
DA:621,0
DA:622,0
DA:623,0
DA:624,0
DA:625,0
DA:626,0
DA:627,0
DA:630,0
DA:631,0
DA:632,0
DA:633,0
DA:634,0
DA:635,0
DA:636,0
DA:637,0
DA:638,0
DA:641,0
DA:642,0
DA:643,0
DA:644,0
DA:647,0
DA:648,0
DA:649,0
DA:650,0
DA:653,0
DA:654,0
DA:655,0
DA:656,0
DA:659,0
DA:660,0
DA:661,0
DA:662,0
DA:663,0
DA:664,0
DA:665,0
DA:666,0
DA:667,0
DA:670,0
DA:671,0
DA:672,0
DA:673,0
DA:674,0
DA:675,0
DA:676,0
DA:677,0
DA:678,0
DA:681,0
DA:684,0
DA:685,0
DA:686,0
DA:687,0
DA:688,0
DA:690,0
DA:691,0
DA:692,0
DA:694,0
DA:695,0
DA:696,0
DA:697,0
DA:698,0
DA:701,0
DA:704,0
DA:707,0
DA:708,0
DA:709,0
DA:712,0
DA:713,0
DA:716,0
DA:717,0
DA:718,0
DA:719,0
DA:720,0
DA:722,0
DA:723,0
DA:726,0
DA:727,0
DA:728,0
DA:729,0
DA:732,0
DA:733,0
DA:734,0
DA:735,0
DA:736,0
DA:737,0
DA:738,0
DA:739,0
DA:740,0
DA:743,0
DA:744,0
DA:745,0
DA:746,0
DA:747,0
DA:748,0
DA:749,0
DA:750,0
DA:751,0
DA:754,0
DA:755,0
DA:756,0
DA:757,0
DA:758,0
DA:759,0
DA:760,0
DA:761,0
DA:762,0
DA:770,0
DA:774,0
DA:775,0
DA:776,0
DA:777,0
DA:778,0
DA:780,0
DA:781,0
DA:782,0
DA:784,0
DA:785,0
DA:786,0
DA:791,0
DA:794,0
DA:795,0
DA:796,0
DA:797,0
DA:798,0
DA:799,0
DA:800,0
DA:803,0
DA:804,0
DA:807,0
DA:808,0
DA:810,0
DA:811,0
DA:812,0
DA:813,0
DA:815,0
DA:818,0
DA:819,0
DA:820,0
DA:821,0
DA:823,0
DA:826,0
DA:827,0
DA:829,0
DA:830,0
DA:831,0
DA:832,0
DA:836,0
DA:838,0
DA:841,0
DA:842,0
DA:843,0
DA:844,0
DA:845,0
DA:847,0
DA:848,0
DA:852,0
DA:856,0
DA:857,0
DA:858,0
DA:859,0
DA:860,0
DA:862,0
DA:863,0
DA:864,0
DA:866,0
DA:867,0
DA:868,0
DA:872,0
DA:873,0
DA:875,0
DA:877,0
DA:880,0
DA:881,0
DA:882,0
DA:883,0
DA:884,0
DA:886,0
DA:887,0
DA:891,0
DA:894,0
DA:895,0
DA:896,0
DA:897,0
DA:898,0
DA:900,0
DA:901,0
DA:902,0
DA:904,0
DA:905,0
DA:906,0
DA:910,0
DA:913,0
DA:914,0
DA:916,0
DA:918,0
DA:921,0
DA:922,0
DA:923,0
DA:924,0
DA:925,0
DA:927,0
DA:928,0
DA:932,0
DA:936,0
DA:937,0
DA:938,0
DA:939,0
DA:940,0
DA:942,0
DA:943,0
DA:944,0
DA:945,0
DA:947,0
DA:948,0
DA:949,0
DA:953,0
DA:954,0
DA:956,0
DA:958,0
DA:961,0
DA:962,0
DA:963,0
DA:964,0
DA:965,0
DA:967,0
DA:968,0
BRF:0
BRH:0
LF:642
LH:0
end_of_record
SF:/Users/ravindraboddipalli/sources/xdl/xdl-stdlib/src/image.rs
FN:13,_RNvNtCs7X22eMfvUxK_10xdl_stdlib5image6convol
FN:59,_RNvNtCs7X22eMfvUxK_10xdl_stdlib5image9convol_1d
FN:81,_RNvNtCs7X22eMfvUxK_10xdl_stdlib5image9convol_2d
FN:13,_RNvNtCsgiIQ3x9G6Hx_10xdl_stdlib5image6convol
FN:131,_RNvNtNtCsgiIQ3x9G6Hx_10xdl_stdlib5image5testss_14test_convol_1d
FN:145,_RNvNtNtCsgiIQ3x9G6Hx_10xdl_stdlib5image5testss_14test_convol_2d
FN:59,_RNvNtCsgiIQ3x9G6Hx_10xdl_stdlib5image9convol_1d
FN:81,_RNvNtCsgiIQ3x9G6Hx_10xdl_stdlib5image9convol_2d
FNDA:0,_RNvNtCs7X22eMfvUxK_10xdl_stdlib5image6convol
FNDA:0,_RNvNtCs7X22eMfvUxK_10xdl_stdlib5image9convol_1d
FNDA:0,_RNvNtCs7X22eMfvUxK_10xdl_stdlib5image9convol_2d
FNDA:0,_RNvNtCsgiIQ3x9G6Hx_10xdl_stdlib5image6convol
FNDA:1,_RNvNtNtCsgiIQ3x9G6Hx_10xdl_stdlib5image5testss_14test_convol_1d
FNDA:1,_RNvNtNtCsgiIQ3x9G6Hx_10xdl_stdlib5image5testss_14test_convol_2d
FNDA:1,_RNvNtCsgiIQ3x9G6Hx_10xdl_stdlib5image9convol_1d
FNDA:1,_RNvNtCsgiIQ3x9G6Hx_10xdl_stdlib5image9convol_2d
FNF:5
FNH:4
DA:13,0
DA:14,0
DA:15,0
DA:16,0
DA:17,0
DA:18,0
DA:21,0
DA:22,0
DA:23,0
DA:25,0
DA:26,0
DA:27,0
DA:28,0
DA:32,0
DA:33,0
DA:34,0
DA:36,0
DA:37,0
DA:38,0
DA:39,0
DA:44,0
DA:45,0
DA:46,0
DA:49,0
DA:50,0
DA:51,0
DA:53,0
DA:54,0
DA:55,0
DA:56,0
DA:59,1
DA:60,1
DA:61,1
DA:62,1
DA:64,1
DA:66,5
DA:67,5
DA:68,15
DA:69,15
DA:70,15
DA:71,13
DA:72,13
DA:74,5
DA:77,1
DA:78,1
DA:81,1
DA:82,1
DA:83,1
DA:84,1
DA:85,1
DA:86,1
DA:87,1
DA:88,1
DA:89,1
DA:90,1
DA:91,1
DA:92,1
DA:94,1
DA:96,3
DA:97,9
DA:98,9
DA:101,27
DA:102,81
DA:104,81
DA:105,81
DA:108,81
DA:109,49
DA:110,49
DA:111,49
DA:112,49
DA:116,9
DA:120,1
DA:121,1
DA:122,1
DA:123,1
DA:124,1
DA:131,1
DA:132,1
DA:133,1
DA:135,1
DA:136,1
DA:138,1
DA:140,0
DA:142,1
DA:145,1
DA:147,1
DA:148,1
DA:151,1
DA:152,1
DA:154,1
DA:155,1
DA:156,1
DA:157,1
DA:159,0
DA:161,1
BRF:0
BRH:0
LF:95
LH:63
end_of_record
SF:/Users/ravindraboddipalli/sources/xdl/xdl-stdlib/src/io.rs
FN:261,_RNvNtCs7X22eMfvUxK_10xdl_stdlib2io10close_file
FN:113,_RNvNtCs7X22eMfvUxK_10xdl_stdlib2io5openr
FN:207,_RNvNtCs7X22eMfvUxK_10xdl_stdlib2io5openu
FN:160,_RNvNtCs7X22eMfvUxK_10xdl_stdlib2io5openw
FN:31,_RNvNtCs7X22eMfvUxK_10xdl_stdlib2io5print
FN:293,_RNvNtCs7X22eMfvUxK_10xdl_stdlib2io5readf
FN:395,_RNvNtCs7X22eMfvUxK_10xdl_stdlib2io6printf
FN:347,_RNvNtCs7X22eMfvUxK_10xdl_stdlib2io6writef
FN:47,_RNvNtCs7X22eMfvUxK_10xdl_stdlib2io7get_lun
FN:85,_RNvNtCs7X22eMfvUxK_10xdl_stdlib2io8filepath
FN:62,_RNvNtCs7X22eMfvUxK_10xdl_stdlib2io8free_lun
FN:400,_RNvNtCs7X22eMfvUxK_10xdl_stdlib2io9open_file
FN:405,_RNvNtCs7X22eMfvUxK_10xdl_stdlib2io9read_jpeg
FN:142,_RNCNvNtCs7X22eMfvUxK_10xdl_stdlib2io5openr0B5_
FN:242,_RNCNvNtCs7X22eMfvUxK_10xdl_stdlib2io5openu0B5_
FN:189,_RNCNvNtCs7X22eMfvUxK_10xdl_stdlib2io5openw0B5_
FN:35,_RNCNvNtCs7X22eMfvUxK_10xdl_stdlib2io5print0B5_
FN:316,_RNCNvNtCs7X22eMfvUxK_10xdl_stdlib2io5readf0B5_
FN:327,_RNCNvNtCs7X22eMfvUxK_10xdl_stdlib2io5readfs0_0B5_
FN:319,_RNCNvNtCs7X22eMfvUxK_10xdl_stdlib2io5readfs_0B5_
FN:368,_RNCNvNtCs7X22eMfvUxK_10xdl_stdlib2io6writef0B5_
FN:379,_RNCNvNtCs7X22eMfvUxK_10xdl_stdlib2io6writefs0_0B5_
FN:382,_RNCNvNtCs7X22eMfvUxK_10xdl_stdlib2io6writefs1_0B5_
FN:384,_RNCNvNtCs7X22eMfvUxK_10xdl_stdlib2io6writefs2_0B5_
FN:388,_RNCNvNtCs7X22eMfvUxK_10xdl_stdlib2io6writefs3_0B5_
FN:371,_RNCNvNtCs7X22eMfvUxK_10xdl_stdlib2io6writefs_0B5_
FN:31,_RNvNtCsgiIQ3x9G6Hx_10xdl_stdlib2io5print
FN:35,_RNCNvNtCsgiIQ3x9G6Hx_10xdl_stdlib2io5print0B5_
FN:142,_RNCNvNtCsgiIQ3x9G6Hx_10xdl_stdlib2io5openr0B5_
FN:242,_RNCNvNtCsgiIQ3x9G6Hx_10xdl_stdlib2io5openu0B5_
FN:189,_RNCNvNtCsgiIQ3x9G6Hx_10xdl_stdlib2io5openw0B5_
FN:316,_RNCNvNtCsgiIQ3x9G6Hx_10xdl_stdlib2io5readf0B5_
FN:327,_RNCNvNtCsgiIQ3x9G6Hx_10xdl_stdlib2io5readfs0_0B5_
FN:319,_RNCNvNtCsgiIQ3x9G6Hx_10xdl_stdlib2io5readfs_0B5_
FN:368,_RNCNvNtCsgiIQ3x9G6Hx_10xdl_stdlib2io6writef0B5_
FN:379,_RNCNvNtCsgiIQ3x9G6Hx_10xdl_stdlib2io6writefs0_0B5_
FN:382,_RNCNvNtCsgiIQ3x9G6Hx_10xdl_stdlib2io6writefs1_0B5_
FN:384,_RNCNvNtCsgiIQ3x9G6Hx_10xdl_stdlib2io6writefs2_0B5_
FN:388,_RNCNvNtCsgiIQ3x9G6Hx_10xdl_stdlib2io6writefs3_0B5_
FN:371,_RNCNvNtCsgiIQ3x9G6Hx_10xdl_stdlib2io6writefs_0B5_
FN:261,_RNvNtCsgiIQ3x9G6Hx_10xdl_stdlib2io10close_file
FN:113,_RNvNtCsgiIQ3x9G6Hx_10xdl_stdlib2io5openr
FN:207,_RNvNtCsgiIQ3x9G6Hx_10xdl_stdlib2io5openu
FN:160,_RNvNtCsgiIQ3x9G6Hx_10xdl_stdlib2io5openw
FN:293,_RNvNtCsgiIQ3x9G6Hx_10xdl_stdlib2io5readf
FN:395,_RNvNtCsgiIQ3x9G6Hx_10xdl_stdlib2io6printf
FN:347,_RNvNtCsgiIQ3x9G6Hx_10xdl_stdlib2io6writef
FN:47,_RNvNtCsgiIQ3x9G6Hx_10xdl_stdlib2io7get_lun
FN:85,_RNvNtCsgiIQ3x9G6Hx_10xdl_stdlib2io8filepath
FN:62,_RNvNtCsgiIQ3x9G6Hx_10xdl_stdlib2io8free_lun
FN:400,_RNvNtCsgiIQ3x9G6Hx_10xdl_stdlib2io9open_file
FN:405,_RNvNtCsgiIQ3x9G6Hx_10xdl_stdlib2io9read_jpeg
FN:472,_RNvNtNtCsgiIQ3x9G6Hx_10xdl_stdlib2io5testss_17test_print_string
FN:465,_RNvNtNtCsgiIQ3x9G6Hx_10xdl_stdlib2io5testss_18test_print_no_args
FN:446,_RNvNtNtCsgiIQ3x9G6Hx_10xdl_stdlib2io5testss_23test_print_single_value
FN:454,_RNvNtNtCsgiIQ3x9G6Hx_10xdl_stdlib2io5testss_26test_print_multiple_values
FNDA:0,_RNvNtCs7X22eMfvUxK_10xdl_stdlib2io10close_file
FNDA:0,_RNvNtCs7X22eMfvUxK_10xdl_stdlib2io5openr
FNDA:0,_RNvNtCs7X22eMfvUxK_10xdl_stdlib2io5openu
FNDA:0,_RNvNtCs7X22eMfvUxK_10xdl_stdlib2io5openw
FNDA:0,_RNvNtCs7X22eMfvUxK_10xdl_stdlib2io5print
FNDA:0,_RNvNtCs7X22eMfvUxK_10xdl_stdlib2io5readf
FNDA:0,_RNvNtCs7X22eMfvUxK_10xdl_stdlib2io6printf
FNDA:0,_RNvNtCs7X22eMfvUxK_10xdl_stdlib2io6writef
FNDA:0,_RNvNtCs7X22eMfvUxK_10xdl_stdlib2io7get_lun
FNDA:0,_RNvNtCs7X22eMfvUxK_10xdl_stdlib2io8filepath
FNDA:0,_RNvNtCs7X22eMfvUxK_10xdl_stdlib2io8free_lun
FNDA:0,_RNvNtCs7X22eMfvUxK_10xdl_stdlib2io9open_file
FNDA:0,_RNvNtCs7X22eMfvUxK_10xdl_stdlib2io9read_jpeg
FNDA:0,_RNCNvNtCs7X22eMfvUxK_10xdl_stdlib2io5openr0B5_
FNDA:0,_RNCNvNtCs7X22eMfvUxK_10xdl_stdlib2io5openu0B5_
FNDA:0,_RNCNvNtCs7X22eMfvUxK_10xdl_stdlib2io5openw0B5_
FNDA:0,_RNCNvNtCs7X22eMfvUxK_10xdl_stdlib2io5print0B5_
FNDA:0,_RNCNvNtCs7X22eMfvUxK_10xdl_stdlib2io5readf0B5_
FNDA:0,_RNCNvNtCs7X22eMfvUxK_10xdl_stdlib2io5readfs0_0B5_
FNDA:0,_RNCNvNtCs7X22eMfvUxK_10xdl_stdlib2io5readfs_0B5_
FNDA:0,_RNCNvNtCs7X22eMfvUxK_10xdl_stdlib2io6writef0B5_
FNDA:0,_RNCNvNtCs7X22eMfvUxK_10xdl_stdlib2io6writefs0_0B5_
FNDA:0,_RNCNvNtCs7X22eMfvUxK_10xdl_stdlib2io6writefs1_0B5_
FNDA:0,_RNCNvNtCs7X22eMfvUxK_10xdl_stdlib2io6writefs2_0B5_
FNDA:0,_RNCNvNtCs7X22eMfvUxK_10xdl_stdlib2io6writefs3_0B5_
FNDA:0,_RNCNvNtCs7X22eMfvUxK_10xdl_stdlib2io6writefs_0B5_
FNDA:4,_RNvNtCsgiIQ3x9G6Hx_10xdl_stdlib2io5print
FNDA:5,_RNCNvNtCsgiIQ3x9G6Hx_10xdl_stdlib2io5print0B5_
FNDA:0,_RNCNvNtCsgiIQ3x9G6Hx_10xdl_stdlib2io5openr0B5_
FNDA:0,_RNCNvNtCsgiIQ3x9G6Hx_10xdl_stdlib2io5openu0B5_
FNDA:0,_RNCNvNtCsgiIQ3x9G6Hx_10xdl_stdlib2io5openw0B5_
FNDA:0,_RNCNvNtCsgiIQ3x9G6Hx_10xdl_stdlib2io5readf0B5_
FNDA:0,_RNCNvNtCsgiIQ3x9G6Hx_10xdl_stdlib2io5readfs0_0B5_
FNDA:0,_RNCNvNtCsgiIQ3x9G6Hx_10xdl_stdlib2io5readfs_0B5_
FNDA:0,_RNCNvNtCsgiIQ3x9G6Hx_10xdl_stdlib2io6writef0B5_
FNDA:0,_RNCNvNtCsgiIQ3x9G6Hx_10xdl_stdlib2io6writefs0_0B5_
FNDA:0,_RNCNvNtCsgiIQ3x9G6Hx_10xdl_stdlib2io6writefs1_0B5_
FNDA:0,_RNCNvNtCsgiIQ3x9G6Hx_10xdl_stdlib2io6writefs2_0B5_
FNDA:0,_RNCNvNtCsgiIQ3x9G6Hx_10xdl_stdlib2io6writefs3_0B5_
FNDA:0,_RNCNvNtCsgiIQ3x9G6Hx_10xdl_stdlib2io6writefs_0B5_
FNDA:0,_RNvNtCsgiIQ3x9G6Hx_10xdl_stdlib2io10close_file
FNDA:0,_RNvNtCsgiIQ3x9G6Hx_10xdl_stdlib2io5openr
FNDA:0,_RNvNtCsgiIQ3x9G6Hx_10xdl_stdlib2io5openu
FNDA:0,_RNvNtCsgiIQ3x9G6Hx_10xdl_stdlib2io5openw
FNDA:0,_RNvNtCsgiIQ3x9G6Hx_10xdl_stdlib2io5readf
FNDA:0,_RNvNtCsgiIQ3x9G6Hx_10xdl_stdlib2io6printf
FNDA:0,_RNvNtCsgiIQ3x9G6Hx_10xdl_stdlib2io6writef
FNDA:0,_RNvNtCsgiIQ3x9G6Hx_10xdl_stdlib2io7get_lun
FNDA:0,_RNvNtCsgiIQ3x9G6Hx_10xdl_stdlib2io8filepath
FNDA:0,_RNvNtCsgiIQ3x9G6Hx_10xdl_stdlib2io8free_lun
FNDA:0,_RNvNtCsgiIQ3x9G6Hx_10xdl_stdlib2io9open_file
FNDA:0,_RNvNtCsgiIQ3x9G6Hx_10xdl_stdlib2io9read_jpeg
FNDA:1,_RNvNtNtCsgiIQ3x9G6Hx_10xdl_stdlib2io5testss_17test_print_string
FNDA:1,_RNvNtNtCsgiIQ3x9G6Hx_10xdl_stdlib2io5testss_18test_print_no_args
FNDA:1,_RNvNtNtCsgiIQ3x9G6Hx_10xdl_stdlib2io5testss_23test_print_single_value
FNDA:1,_RNvNtNtCsgiIQ3x9G6Hx_10xdl_stdlib2io5testss_26test_print_multiple_values
FNF:30
FNH:6
DA:31,4
DA:33,4
DA:34,4
DA:35,5
DA:36,4
DA:37,4
DA:39,4
DA:43,4
DA:44,4
DA:47,0
DA:48,0
DA:49,0
DA:50,0
DA:51,0
DA:52,0
DA:54,0
DA:55,0
DA:56,0
DA:58,0
DA:59,0
DA:62,0
DA:63,0
DA:64,0
DA:65,0
DA:66,0
DA:67,0
DA:69,0
DA:70,0
DA:71,0
DA:73,0
DA:74,0
DA:75,0
DA:76,0
DA:80,0
DA:81,0
DA:82,0
DA:85,0
DA:86,0
DA:87,0
DA:88,0
DA:89,0
DA:90,0
DA:92,0
DA:93,0
DA:95,0
DA:96,0
DA:97,0
DA:98,0
DA:103,0
DA:104,0
DA:107,0
DA:109,0
DA:113,0
DA:114,0
DA:115,0
DA:116,0
DA:117,0
DA:118,0
DA:120,0
DA:121,0
DA:122,0
DA:124,0
DA:125,0
DA:126,0
DA:127,0
DA:131,0
DA:132,0
DA:134,0
DA:135,0
DA:136,0
DA:137,0
DA:142,0
DA:143,0
DA:144,0
DA:146,0
DA:147,0
DA:148,0
DA:149,0
DA:150,0
DA:152,0
DA:153,0
DA:155,0
DA:156,0
DA:160,0
DA:161,0
DA:162,0
DA:163,0
DA:164,0
DA:165,0
DA:167,0
DA:168,0
DA:169,0
DA:171,0
DA:172,0
DA:173,0
DA:174,0
DA:178,0
DA:179,0
DA:181,0
DA:182,0
DA:183,0
DA:184,0
DA:189,0
DA:190,0
DA:191,0
DA:193,0
DA:194,0
DA:195,0
DA:196,0
DA:197,0
DA:199,0
DA:200,0
DA:202,0
DA:203,0
DA:207,0
DA:208,0
DA:209,0
DA:210,0
DA:211,0
DA:212,0
DA:214,0
DA:215,0
DA:216,0
DA:218,0
DA:219,0
DA:220,0
DA:221,0
DA:225,0
DA:226,0
DA:228,0
DA:229,0
DA:230,0
DA:231,0
DA:236,0
DA:237,0
DA:238,0
DA:239,0
DA:240,0
DA:241,0
DA:242,0
DA:243,0
DA:244,0
DA:248,0
DA:249,0
DA:250,0
DA:251,0
DA:252,0
DA:254,0
DA:255,0
DA:257,0
DA:258,0
DA:261,0
DA:262,0
DA:263,0
DA:264,0
DA:265,0
DA:266,0
DA:268,0
DA:269,0
DA:270,0
DA:272,0
DA:273,0
DA:274,0
DA:275,0
DA:279,0
DA:280,0
DA:281,0
DA:283,0
DA:284,0
DA:285,0
DA:286,0
DA:288,0
DA:293,0
DA:296,0
DA:297,0
DA:298,0
DA:299,0
DA:300,0
DA:302,0
DA:303,0
DA:304,0
DA:306,0
DA:307,0
DA:308,0
DA:309,0
DA:313,0
DA:314,0
DA:315,0
DA:316,0
DA:319,0
DA:320,0
DA:321,0
DA:324,0
DA:325,0
DA:326,0
DA:327,0
DA:329,0
DA:331,0
DA:332,0
DA:335,0
DA:336,0
DA:337,0
DA:338,0
DA:339,0
DA:340,0
DA:342,0
DA:343,0
DA:347,0
DA:348,0
DA:349,0
DA:350,0
DA:351,0
DA:352,0
DA:354,0
DA:355,0
DA:356,0
DA:358,0
DA:359,0
DA:360,0
DA:361,0
DA:365,0
DA:366,0
DA:367,0
DA:368,0
DA:371,0
DA:372,0
DA:373,0
DA:376,0
DA:377,0
DA:378,0
DA:379,0
DA:380,0
DA:381,0
DA:382,0
DA:384,0
DA:386,0
DA:387,0
DA:388,0
DA:390,0
DA:391,0
DA:395,0
DA:396,0
DA:397,0
DA:400,0
DA:401,0
DA:402,0
DA:405,0
DA:406,0
DA:407,0
DA:408,0
DA:409,0
DA:410,0
DA:412,0
DA:413,0
DA:415,0
DA:416,0
DA:417,0
DA:418,0
DA:423,0
DA:424,0
DA:425,0
DA:429,0
DA:430,0
DA:431,0
DA:432,0
DA:434,0
DA:435,0
DA:436,0
DA:437,0
DA:439,0
DA:446,1
DA:447,1
DA:448,1
DA:449,1
DA:450,1
DA:451,1
DA:454,1
DA:455,1
DA:456,1
DA:457,1
DA:458,1
DA:460,1
DA:461,1
DA:462,1
DA:465,1
DA:466,1
DA:467,1
DA:468,1
DA:469,1
DA:472,1
DA:473,1
DA:474,1
DA:475,1
DA:476,1
BRF:0
BRH:0
LF:312
LH:34
end_of_record
SF:/Users/ravindraboddipalli/sources/xdl/xdl-stdlib/src/lib.rs
FN:380,_RNvCs7X22eMfvUxK_10xdl_stdlib11create_hash
FN:143,_RNvMCs7X22eMfvUxK_10xdl_stdlibNtB2_15StandardLibrary13call_function
FN:37,_RNvMCs7X22eMfvUxK_10xdl_stdlibNtB2_15StandardLibrary14call_procedure
FN:148,_RNvMCs7X22eMfvUxK_10xdl_stdlibNtB2_15StandardLibrary27call_function_with_keywords
FN:42,_RNvMCs7X22eMfvUxK_10xdl_stdlibNtB2_15StandardLibrary28call_procedure_with_keywords
FN:30,_RNvMCs7X22eMfvUxK_10xdl_stdlibNtB2_15StandardLibrary3new
FN:374,_RNvXs_Cs7X22eMfvUxK_10xdl_stdlibNtB4_15StandardLibraryNtNtCs2CqrNpCrSUr_4core7default7Default7default
FN:380,_RNvCsgiIQ3x9G6Hx_10xdl_stdlib11create_hash
FN:143,_RNvMCsgiIQ3x9G6Hx_10xdl_stdlibNtB2_15StandardLibrary13call_function
FN:37,_RNvMCsgiIQ3x9G6Hx_10xdl_stdlibNtB2_15StandardLibrary14call_procedure
FN:148,_RNvMCsgiIQ3x9G6Hx_10xdl_stdlibNtB2_15StandardLibrary27call_function_with_keywords
FN:42,_RNvMCsgiIQ3x9G6Hx_10xdl_stdlibNtB2_15StandardLibrary28call_procedure_with_keywords
FN:30,_RNvMCsgiIQ3x9G6Hx_10xdl_stdlibNtB2_15StandardLibrary3new
FN:374,_RNvXs_CsgiIQ3x9G6Hx_10xdl_stdlibNtB4_15StandardLibraryNtNtCs2CqrNpCrSUr_4core7default7Default7default
FNDA:0,_RNvCs7X22eMfvUxK_10xdl_stdlib11create_hash
FNDA:0,_RNvMCs7X22eMfvUxK_10xdl_stdlibNtB2_15StandardLibrary13call_function
FNDA:0,_RNvMCs7X22eMfvUxK_10xdl_stdlibNtB2_15StandardLibrary14call_procedure
FNDA:0,_RNvMCs7X22eMfvUxK_10xdl_stdlibNtB2_15StandardLibrary27call_function_with_keywords
FNDA:0,_RNvMCs7X22eMfvUxK_10xdl_stdlibNtB2_15StandardLibrary28call_procedure_with_keywords
FNDA:4,_RNvMCs7X22eMfvUxK_10xdl_stdlibNtB2_15StandardLibrary3new
FNDA:0,_RNvXs_Cs7X22eMfvUxK_10xdl_stdlibNtB4_15StandardLibraryNtNtCs2CqrNpCrSUr_4core7default7Default7default
FNDA:0,_RNvCsgiIQ3x9G6Hx_10xdl_stdlib11create_hash
FNDA:0,_RNvMCsgiIQ3x9G6Hx_10xdl_stdlibNtB2_15StandardLibrary13call_function
FNDA:0,_RNvMCsgiIQ3x9G6Hx_10xdl_stdlibNtB2_15StandardLibrary14call_procedure
FNDA:0,_RNvMCsgiIQ3x9G6Hx_10xdl_stdlibNtB2_15StandardLibrary27call_function_with_keywords
FNDA:0,_RNvMCsgiIQ3x9G6Hx_10xdl_stdlibNtB2_15StandardLibrary28call_procedure_with_keywords
FNDA:0,_RNvMCsgiIQ3x9G6Hx_10xdl_stdlibNtB2_15StandardLibrary3new
FNDA:0,_RNvXs_CsgiIQ3x9G6Hx_10xdl_stdlibNtB4_15StandardLibraryNtNtCs2CqrNpCrSUr_4core7default7Default7default
FNF:7
FNH:1
DA:30,4
DA:31,4
DA:32,4
DA:33,4
DA:34,4
DA:37,0
DA:38,0
DA:39,0
DA:42,0
DA:43,0
DA:44,0
DA:45,0
DA:46,0
DA:47,0
DA:48,0
DA:50,0
DA:51,0
DA:52,0
DA:53,0
DA:54,0
DA:57,0
DA:58,0
DA:59,0
DA:62,0
DA:63,0
DA:64,0
DA:65,0
DA:66,0
DA:67,0
DA:68,0
DA:69,0
DA:70,0
DA:71,0
DA:72,0
DA:75,0
DA:76,0
DA:77,0
DA:78,0
DA:81,0
DA:82,0
DA:83,0
DA:84,0
DA:85,0
DA:86,0
DA:89,0
DA:90,0
DA:93,0
DA:96,0
DA:97,0
DA:98,0
DA:99,0
DA:100,0
DA:101,0
DA:104,0
DA:105,0
DA:106,0
DA:109,0
DA:110,0
DA:111,0
DA:112,0
DA:115,0
DA:116,0
DA:117,0
DA:118,0
DA:119,0
DA:120,0
DA:121,0
DA:122,0
DA:123,0
DA:126,0
DA:127,0
DA:128,0
DA:129,0
DA:130,0
DA:131,0
DA:132,0
DA:133,0
DA:135,0
DA:136,0
DA:137,0
DA:138,0
DA:140,0
DA:143,0
DA:144,0
DA:145,0
DA:148,0
DA:149,0
DA:150,0
DA:151,0
DA:152,0
DA:153,0
DA:156,0
DA:157,0
DA:159,0
DA:160,0
DA:161,0
DA:162,0
DA:163,0
DA:164,0
DA:167,0
DA:168,0
DA:169,0
DA:170,0
DA:173,0
DA:174,0
DA:175,0
DA:176,0
DA:177,0
DA:180,0
DA:181,0
DA:182,0
DA:183,0
DA:184,0
DA:185,0
DA:186,0
DA:187,0
DA:188,0
DA:191,0
DA:194,0
DA:197,0
DA:198,0
DA:199,0
DA:200,0
DA:201,0
DA:202,0
DA:204,0
DA:205,0
DA:208,0
DA:209,0
DA:210,0
DA:213,0
DA:214,0
DA:215,0
DA:216,0
DA:217,0
DA:218,0
DA:221,0
DA:222,0
DA:223,0
DA:224,0
DA:225,0
DA:228,0
DA:229,0
DA:230,0
DA:231,0
DA:232,0
DA:233,0
DA:234,0
DA:237,0
DA:238,0
DA:239,0
DA:242,0
DA:243,0
DA:244,0
DA:245,0
DA:246,0
DA:249,0
DA:252,0
DA:253,0
DA:254,0
DA:255,0
DA:256,0
DA:257,0
DA:260,0
DA:261,0
DA:262,0
DA:263,0
DA:266,0
DA:267,0
DA:268,0
DA:271,0
DA:272,0
DA:273,0
DA:274,0
DA:275,0
DA:276,0
DA:277,0
DA:278,0
DA:281,0
DA:282,0
DA:283,0
DA:284,0
DA:285,0
DA:286,0
DA:287,0
DA:288,0
DA:289,0
DA:290,0
DA:291,0
DA:292,0
DA:293,0
DA:294,0
DA:295,0
DA:296,0
DA:297,0
DA:298,0
DA:301,0
DA:302,0
DA:303,0
DA:304,0
DA:305,0
DA:308,0
DA:309,0
DA:310,0
DA:311,0
DA:312,0
DA:315,0
DA:316,0
DA:317,0
DA:318,0
DA:321,0
DA:324,0
DA:327,0
DA:328,0
DA:331,0
DA:332,0
DA:334,0
DA:335,0
DA:339,0
DA:340,0
DA:341,0
DA:344,0
DA:345,0
DA:348,0
DA:349,0
DA:350,0
DA:353,0
DA:354,0
DA:357,0
DA:358,0
DA:359,0
DA:362,0
DA:363,0
DA:366,0
DA:368,0
DA:370,0
DA:374,0
DA:375,0
DA:376,0
DA:380,0
DA:383,0
DA:385,0
DA:389,0
DA:390,0
DA:391,0
DA:392,0
DA:393,0
DA:394,0
DA:396,0
DA:397,0
DA:399,0
BRF:0
BRH:0
LF:251
LH:5
end_of_record
SF:/Users/ravindraboddipalli/sources/xdl/xdl-stdlib/src/math.rs
FN:695,_RNvNtCs7X22eMfvUxK_10xdl_stdlib4math10float_func
FN:26,_RNvNtCs7X22eMfvUxK_10xdl_stdlib4math10from_float
FN:716,_RNvNtCs7X22eMfvUxK_10xdl_stdlib4math11double_func
FN:190,_RNvNtCs7X22eMfvUxK_10xdl_stdlib4math3abs
FN:64,_RNvNtCs7X22eMfvUxK_10xdl_stdlib4math3cos
FN:87,_RNvNtCs7X22eMfvUxK_10xdl_stdlib4math3exp
FN:738,_RNvNtCs7X22eMfvUxK_10xdl_stdlib4math3fft
FN:148,_RNvNtCs7X22eMfvUxK_10xdl_stdlib4math3log
FN:41,_RNvNtCs7X22eMfvUxK_10xdl_stdlib4math3sin
FN:213,_RNvNtCs7X22eMfvUxK_10xdl_stdlib4math3tan
FN:249,_RNvNtCs7X22eMfvUxK_10xdl_stdlib4math4acos
FN:228,_RNvNtCs7X22eMfvUxK_10xdl_stdlib4math4asin
FN:270,_RNvNtCs7X22eMfvUxK_10xdl_stdlib4math4atan
FN:300,_RNvNtCs7X22eMfvUxK_10xdl_stdlib4math4ceil
FN:110,_RNvNtCs7X22eMfvUxK_10xdl_stdlib4math4sqrt
FN:285,_RNvNtCs7X22eMfvUxK_10xdl_stdlib4math5floor
FN:169,_RNvNtCs7X22eMfvUxK_10xdl_stdlib4math5log10
FN:315,_RNvNtCs7X22eMfvUxK_10xdl_stdlib4math5round
FN:407,_RNvNtCs7X22eMfvUxK_10xdl_stdlib4math6indgen
FN:462,_RNvNtCs7X22eMfvUxK_10xdl_stdlib4math7bindgen
FN:437,_RNvNtCs7X22eMfvUxK_10xdl_stdlib4math7dindgen
FN:368,_RNvNtCs7X22eMfvUxK_10xdl_stdlib4math7findgen
FN:487,_RNvNtCs7X22eMfvUxK_10xdl_stdlib4math7lindgen
FN:805,_RNvNtCs7X22eMfvUxK_10xdl_stdlib4math7randomu
FN:512,_RNvNtCs7X22eMfvUxK_10xdl_stdlib4math7uindgen
FN:651,_RNvNtCs7X22eMfvUxK_10xdl_stdlib4math8fix_func
FN:332,_RNvNtCs7X22eMfvUxK_10xdl_stdlib4math8nchoosek
FN:7,_RNvNtCs7X22eMfvUxK_10xdl_stdlib4math8to_float
FN:537,_RNvNtCs7X22eMfvUxK_10xdl_stdlib4math8ulindgen
FN:562,_RNvNtCs7X22eMfvUxK_10xdl_stdlib4math9l64indgen
FN:673,_RNvNtCs7X22eMfvUxK_10xdl_stdlib4math9long_func
FN:76,_RNCNvNtCs7X22eMfvUxK_10xdl_stdlib4math3cos0B5_
FN:99,_RNCNvNtCs7X22eMfvUxK_10xdl_stdlib4math3exp0B5_
FN:776,_RNCNvNtCs7X22eMfvUxK_10xdl_stdlib4math3fft0B5_
FN:799,_RNCNvNtCs7X22eMfvUxK_10xdl_stdlib4math3ffts_0B5_
FN:53,_RNCNvNtCs7X22eMfvUxK_10xdl_stdlib4math3sin0B5_
FN:124,_RNCNvNtCs7X22eMfvUxK_10xdl_stdlib4math4sqrt0B5_
FN:482,_RNCNvNtCs7X22eMfvUxK_10xdl_stdlib4math7bindgen0B5_
FN:457,_RNCNvNtCs7X22eMfvUxK_10xdl_stdlib4math7dindgen0B5_
FN:396,_RNCNvNtCs7X22eMfvUxK_10xdl_stdlib4math7findgen0B5_
FN:507,_RNCNvNtCs7X22eMfvUxK_10xdl_stdlib4math7lindgen0B5_
FN:532,_RNCNvNtCs7X22eMfvUxK_10xdl_stdlib4math7uindgen0B5_
FN:662,_RNCNvNtCs7X22eMfvUxK_10xdl_stdlib4math8fix_func0B5_
FN:557,_RNCNvNtCs7X22eMfvUxK_10xdl_stdlib4math8ulindgen0B5_
FN:582,_RNCNvNtCs7X22eMfvUxK_10xdl_stdlib4math9l64indgen0B5_
FN:684,_RNCNvNtCs7X22eMfvUxK_10xdl_stdlib4math9long_func0B5_
FN:26,_RNvNtCsgiIQ3x9G6Hx_10xdl_stdlib4math10from_float
FN:190,_RNvNtCsgiIQ3x9G6Hx_10xdl_stdlib4math3abs
FN:64,_RNvNtCsgiIQ3x9G6Hx_10xdl_stdlib4math3cos
FN:87,_RNvNtCsgiIQ3x9G6Hx_10xdl_stdlib4math3exp
FN:148,_RNvNtCsgiIQ3x9G6Hx_10xdl_stdlib4math3log
FN:41,_RNvNtCsgiIQ3x9G6Hx_10xdl_stdlib4math3sin
FN:110,_RNvNtCsgiIQ3x9G6Hx_10xdl_stdlib4math4sqrt
FN:7,_RNvNtCsgiIQ3x9G6Hx_10xdl_stdlib4math8to_float
FN:776,_RNCNvNtCsgiIQ3x9G6Hx_10xdl_stdlib4math3fft0B5_
FN:799,_RNCNvNtCsgiIQ3x9G6Hx_10xdl_stdlib4math3ffts_0B5_
FN:482,_RNCNvNtCsgiIQ3x9G6Hx_10xdl_stdlib4math7bindgen0B5_
FN:457,_RNCNvNtCsgiIQ3x9G6Hx_10xdl_stdlib4math7dindgen0B5_
FN:396,_RNCNvNtCsgiIQ3x9G6Hx_10xdl_stdlib4math7findgen0B5_
FN:507,_RNCNvNtCsgiIQ3x9G6Hx_10xdl_stdlib4math7lindgen0B5_
FN:532,_RNCNvNtCsgiIQ3x9G6Hx_10xdl_stdlib4math7uindgen0B5_
FN:662,_RNCNvNtCsgiIQ3x9G6Hx_10xdl_stdlib4math8fix_func0B5_
FN:557,_RNCNvNtCsgiIQ3x9G6Hx_10xdl_stdlib4math8ulindgen0B5_
FN:582,_RNCNvNtCsgiIQ3x9G6Hx_10xdl_stdlib4math9l64indgen0B5_
FN:684,_RNCNvNtCsgiIQ3x9G6Hx_10xdl_stdlib4math9long_func0B5_
FN:695,_RNvNtCsgiIQ3x9G6Hx_10xdl_stdlib4math10float_func
FN:716,_RNvNtCsgiIQ3x9G6Hx_10xdl_stdlib4math11double_func
FN:738,_RNvNtCsgiIQ3x9G6Hx_10xdl_stdlib4math3fft
FN:213,_RNvNtCsgiIQ3x9G6Hx_10xdl_stdlib4math3tan
FN:249,_RNvNtCsgiIQ3x9G6Hx_10xdl_stdlib4math4acos
FN:228,_RNvNtCsgiIQ3x9G6Hx_10xdl_stdlib4math4asin
FN:270,_RNvNtCsgiIQ3x9G6Hx_10xdl_stdlib4math4atan
FN:300,_RNvNtCsgiIQ3x9G6Hx_10xdl_stdlib4math4ceil
FN:285,_RNvNtCsgiIQ3x9G6Hx_10xdl_stdlib4math5floor
FN:169,_RNvNtCsgiIQ3x9G6Hx_10xdl_stdlib4math5log10
FN:315,_RNvNtCsgiIQ3x9G6Hx_10xdl_stdlib4math5round
FN:407,_RNvNtCsgiIQ3x9G6Hx_10xdl_stdlib4math6indgen
FN:462,_RNvNtCsgiIQ3x9G6Hx_10xdl_stdlib4math7bindgen
FN:437,_RNvNtCsgiIQ3x9G6Hx_10xdl_stdlib4math7dindgen
FN:368,_RNvNtCsgiIQ3x9G6Hx_10xdl_stdlib4math7findgen
FN:487,_RNvNtCsgiIQ3x9G6Hx_10xdl_stdlib4math7lindgen
FN:805,_RNvNtCsgiIQ3x9G6Hx_10xdl_stdlib4math7randomu
FN:512,_RNvNtCsgiIQ3x9G6Hx_10xdl_stdlib4math7uindgen
FN:651,_RNvNtCsgiIQ3x9G6Hx_10xdl_stdlib4math8fix_func
FN:332,_RNvNtCsgiIQ3x9G6Hx_10xdl_stdlib4math8nchoosek
FN:537,_RNvNtCsgiIQ3x9G6Hx_10xdl_stdlib4math8ulindgen
FN:562,_RNvNtCsgiIQ3x9G6Hx_10xdl_stdlib4math9l64indgen
FN:673,_RNvNtCsgiIQ3x9G6Hx_10xdl_stdlib4math9long_func
FN:602,_RNvNtNtCsgiIQ3x9G6Hx_10xdl_stdlib4math5testss_8test_cos
FN:613,_RNvNtNtCsgiIQ3x9G6Hx_10xdl_stdlib4math5testss_8test_exp
FN:624,_RNvNtNtCsgiIQ3x9G6Hx_10xdl_stdlib4math5testss_8test_log
FN:591,_RNvNtNtCsgiIQ3x9G6Hx_10xdl_stdlib4math5testss_8test_sin
FN:635,_RNvNtNtCsgiIQ3x9G6Hx_10xdl_stdlib4math5testss_9test_sqrt
FN:76,_RNCNvNtCsgiIQ3x9G6Hx_10xdl_stdlib4math3cos0B5_
FN:99,_RNCNvNtCsgiIQ3x9G6Hx_10xdl_stdlib4math3exp0B5_
FN:53,_RNCNvNtCsgiIQ3x9G6Hx_10xdl_stdlib4math3sin0B5_
FN:124,_RNCNvNtCsgiIQ3x9G6Hx_10xdl_stdlib4math4sqrt0B5_
FN:861,_RNvNtNtCsgiIQ3x9G6Hx_10xdl_stdlib4math10more_testss_22test_type_preservation
FN:873,_RNvNtNtCsgiIQ3x9G6Hx_10xdl_stdlib4math10more_testss_26test_argument_count_errors
FN:850,_RNvNtNtCsgiIQ3x9G6Hx_10xdl_stdlib4math10more_testss_8test_abs
FNDA:0,_RNvNtCs7X22eMfvUxK_10xdl_stdlib4math10float_func
FNDA:0,_RNvNtCs7X22eMfvUxK_10xdl_stdlib4math10from_float
FNDA:0,_RNvNtCs7X22eMfvUxK_10xdl_stdlib4math11double_func
FNDA:0,_RNvNtCs7X22eMfvUxK_10xdl_stdlib4math3abs
FNDA:0,_RNvNtCs7X22eMfvUxK_10xdl_stdlib4math3cos
FNDA:0,_RNvNtCs7X22eMfvUxK_10xdl_stdlib4math3exp
FNDA:0,_RNvNtCs7X22eMfvUxK_10xdl_stdlib4math3fft
FNDA:0,_RNvNtCs7X22eMfvUxK_10xdl_stdlib4math3log
FNDA:0,_RNvNtCs7X22eMfvUxK_10xdl_stdlib4math3sin
FNDA:0,_RNvNtCs7X22eMfvUxK_10xdl_stdlib4math3tan
FNDA:0,_RNvNtCs7X22eMfvUxK_10xdl_stdlib4math4acos
FNDA:0,_RNvNtCs7X22eMfvUxK_10xdl_stdlib4math4asin
FNDA:0,_RNvNtCs7X22eMfvUxK_10xdl_stdlib4math4atan
FNDA:0,_RNvNtCs7X22eMfvUxK_10xdl_stdlib4math4ceil
FNDA:0,_RNvNtCs7X22eMfvUxK_10xdl_stdlib4math4sqrt
FNDA:0,_RNvNtCs7X22eMfvUxK_10xdl_stdlib4math5floor
FNDA:0,_RNvNtCs7X22eMfvUxK_10xdl_stdlib4math5log10
FNDA:0,_RNvNtCs7X22eMfvUxK_10xdl_stdlib4math5round
FNDA:0,_RNvNtCs7X22eMfvUxK_10xdl_stdlib4math6indgen
FNDA:0,_RNvNtCs7X22eMfvUxK_10xdl_stdlib4math7bindgen
FNDA:0,_RNvNtCs7X22eMfvUxK_10xdl_stdlib4math7dindgen
FNDA:0,_RNvNtCs7X22eMfvUxK_10xdl_stdlib4math7findgen
FNDA:0,_RNvNtCs7X22eMfvUxK_10xdl_stdlib4math7lindgen
FNDA:0,_RNvNtCs7X22eMfvUxK_10xdl_stdlib4math7randomu
FNDA:0,_RNvNtCs7X22eMfvUxK_10xdl_stdlib4math7uindgen
FNDA:0,_RNvNtCs7X22eMfvUxK_10xdl_stdlib4math8fix_func
FNDA:0,_RNvNtCs7X22eMfvUxK_10xdl_stdlib4math8nchoosek
FNDA:0,_RNvNtCs7X22eMfvUxK_10xdl_stdlib4math8to_float
FNDA:0,_RNvNtCs7X22eMfvUxK_10xdl_stdlib4math8ulindgen
FNDA:0,_RNvNtCs7X22eMfvUxK_10xdl_stdlib4math9l64indgen
FNDA:0,_RNvNtCs7X22eMfvUxK_10xdl_stdlib4math9long_func
FNDA:0,_RNCNvNtCs7X22eMfvUxK_10xdl_stdlib4math3cos0B5_
FNDA:0,_RNCNvNtCs7X22eMfvUxK_10xdl_stdlib4math3exp0B5_
FNDA:0,_RNCNvNtCs7X22eMfvUxK_10xdl_stdlib4math3fft0B5_
FNDA:0,_RNCNvNtCs7X22eMfvUxK_10xdl_stdlib4math3ffts_0B5_
FNDA:0,_RNCNvNtCs7X22eMfvUxK_10xdl_stdlib4math3sin0B5_
FNDA:0,_RNCNvNtCs7X22eMfvUxK_10xdl_stdlib4math4sqrt0B5_
FNDA:0,_RNCNvNtCs7X22eMfvUxK_10xdl_stdlib4math7bindgen0B5_
FNDA:0,_RNCNvNtCs7X22eMfvUxK_10xdl_stdlib4math7dindgen0B5_
FNDA:0,_RNCNvNtCs7X22eMfvUxK_10xdl_stdlib4math7findgen0B5_
FNDA:0,_RNCNvNtCs7X22eMfvUxK_10xdl_stdlib4math7lindgen0B5_
FNDA:0,_RNCNvNtCs7X22eMfvUxK_10xdl_stdlib4math7uindgen0B5_
FNDA:0,_RNCNvNtCs7X22eMfvUxK_10xdl_stdlib4math8fix_func0B5_
FNDA:0,_RNCNvNtCs7X22eMfvUxK_10xdl_stdlib4math8ulindgen0B5_
FNDA:0,_RNCNvNtCs7X22eMfvUxK_10xdl_stdlib4math9l64indgen0B5_
FNDA:0,_RNCNvNtCs7X22eMfvUxK_10xdl_stdlib4math9long_func0B5_
FNDA:13,_RNvNtCsgiIQ3x9G6Hx_10xdl_stdlib4math10from_float
FNDA:3,_RNvNtCsgiIQ3x9G6Hx_10xdl_stdlib4math3abs
FNDA:3,_RNvNtCsgiIQ3x9G6Hx_10xdl_stdlib4math3cos
FNDA:2,_RNvNtCsgiIQ3x9G6Hx_10xdl_stdlib4math3exp
FNDA:2,_RNvNtCsgiIQ3x9G6Hx_10xdl_stdlib4math3log
FNDA:4,_RNvNtCsgiIQ3x9G6Hx_10xdl_stdlib4math3sin
FNDA:3,_RNvNtCsgiIQ3x9G6Hx_10xdl_stdlib4math4sqrt
FNDA:15,_RNvNtCsgiIQ3x9G6Hx_10xdl_stdlib4math8to_float
FNDA:0,_RNCNvNtCsgiIQ3x9G6Hx_10xdl_stdlib4math3fft0B5_
FNDA:0,_RNCNvNtCsgiIQ3x9G6Hx_10xdl_stdlib4math3ffts_0B5_
FNDA:0,_RNCNvNtCsgiIQ3x9G6Hx_10xdl_stdlib4math7bindgen0B5_
FNDA:0,_RNCNvNtCsgiIQ3x9G6Hx_10xdl_stdlib4math7dindgen0B5_
FNDA:0,_RNCNvNtCsgiIQ3x9G6Hx_10xdl_stdlib4math7findgen0B5_
FNDA:0,_RNCNvNtCsgiIQ3x9G6Hx_10xdl_stdlib4math7lindgen0B5_
FNDA:0,_RNCNvNtCsgiIQ3x9G6Hx_10xdl_stdlib4math7uindgen0B5_
FNDA:0,_RNCNvNtCsgiIQ3x9G6Hx_10xdl_stdlib4math8fix_func0B5_
FNDA:0,_RNCNvNtCsgiIQ3x9G6Hx_10xdl_stdlib4math8ulindgen0B5_
FNDA:0,_RNCNvNtCsgiIQ3x9G6Hx_10xdl_stdlib4math9l64indgen0B5_
FNDA:0,_RNCNvNtCsgiIQ3x9G6Hx_10xdl_stdlib4math9long_func0B5_
FNDA:0,_RNvNtCsgiIQ3x9G6Hx_10xdl_stdlib4math10float_func
FNDA:0,_RNvNtCsgiIQ3x9G6Hx_10xdl_stdlib4math11double_func
FNDA:0,_RNvNtCsgiIQ3x9G6Hx_10xdl_stdlib4math3fft
FNDA:0,_RNvNtCsgiIQ3x9G6Hx_10xdl_stdlib4math3tan
FNDA:0,_RNvNtCsgiIQ3x9G6Hx_10xdl_stdlib4math4acos
FNDA:0,_RNvNtCsgiIQ3x9G6Hx_10xdl_stdlib4math4asin
FNDA:0,_RNvNtCsgiIQ3x9G6Hx_10xdl_stdlib4math4atan
FNDA:0,_RNvNtCsgiIQ3x9G6Hx_10xdl_stdlib4math4ceil
FNDA:0,_RNvNtCsgiIQ3x9G6Hx_10xdl_stdlib4math5floor
FNDA:0,_RNvNtCsgiIQ3x9G6Hx_10xdl_stdlib4math5log10
FNDA:0,_RNvNtCsgiIQ3x9G6Hx_10xdl_stdlib4math5round
FNDA:0,_RNvNtCsgiIQ3x9G6Hx_10xdl_stdlib4math6indgen
FNDA:0,_RNvNtCsgiIQ3x9G6Hx_10xdl_stdlib4math7bindgen
FNDA:0,_RNvNtCsgiIQ3x9G6Hx_10xdl_stdlib4math7dindgen
FNDA:0,_RNvNtCsgiIQ3x9G6Hx_10xdl_stdlib4math7findgen
FNDA:0,_RNvNtCsgiIQ3x9G6Hx_10xdl_stdlib4math7lindgen
FNDA:0,_RNvNtCsgiIQ3x9G6Hx_10xdl_stdlib4math7randomu
FNDA:0,_RNvNtCsgiIQ3x9G6Hx_10xdl_stdlib4math7uindgen
FNDA:0,_RNvNtCsgiIQ3x9G6Hx_10xdl_stdlib4math8fix_func
FNDA:0,_RNvNtCsgiIQ3x9G6Hx_10xdl_stdlib4math8nchoosek
FNDA:0,_RNvNtCsgiIQ3x9G6Hx_10xdl_stdlib4math8ulindgen
FNDA:0,_RNvNtCsgiIQ3x9G6Hx_10xdl_stdlib4math9l64indgen
FNDA:0,_RNvNtCsgiIQ3x9G6Hx_10xdl_stdlib4math9long_func
FNDA:1,_RNvNtNtCsgiIQ3x9G6Hx_10xdl_stdlib4math5testss_8test_cos
FNDA:1,_RNvNtNtCsgiIQ3x9G6Hx_10xdl_stdlib4math5testss_8test_exp
FNDA:1,_RNvNtNtCsgiIQ3x9G6Hx_10xdl_stdlib4math5testss_8test_log
FNDA:1,_RNvNtNtCsgiIQ3x9G6Hx_10xdl_stdlib4math5testss_8test_sin
FNDA:1,_RNvNtNtCsgiIQ3x9G6Hx_10xdl_stdlib4math5testss_9test_sqrt
FNDA:0,_RNCNvNtCsgiIQ3x9G6Hx_10xdl_stdlib4math3cos0B5_
FNDA:0,_RNCNvNtCsgiIQ3x9G6Hx_10xdl_stdlib4math3exp0B5_
FNDA:0,_RNCNvNtCsgiIQ3x9G6Hx_10xdl_stdlib4math3sin0B5_
FNDA:0,_RNCNvNtCsgiIQ3x9G6Hx_10xdl_stdlib4math4sqrt0B5_
FNDA:1,_RNvNtNtCsgiIQ3x9G6Hx_10xdl_stdlib4math10more_testss_22test_type_preservation
FNDA:1,_RNvNtNtCsgiIQ3x9G6Hx_10xdl_stdlib4math10more_testss_26test_argument_count_errors
FNDA:1,_RNvNtNtCsgiIQ3x9G6Hx_10xdl_stdlib4math10more_testss_8test_abs
FNF:54
FNH:16
DA:7,15
DA:8,15
DA:9,0
DA:10,0
DA:11,2
DA:12,1
DA:13,12
DA:14,0
DA:15,0
DA:16,0
DA:17,0
DA:18,0
DA:19,0
DA:20,0
DA:21,0
DA:23,15
DA:26,13
DA:27,13
DA:28,1
DA:29,10
DA:30,0
DA:31,0
DA:32,2
DA:33,0
DA:34,0
DA:35,0
DA:36,0
DA:37,0
DA:39,13
DA:41,4
DA:42,4
DA:43,1
DA:44,1
DA:45,1
DA:46,1
DA:47,3
DA:49,3
DA:52,3
DA:53,0
DA:54,0
DA:55,3
DA:58,3
DA:59,3
DA:61,3
DA:62,4
DA:64,3
DA:65,3
DA:66,1
DA:67,1
DA:68,1
DA:69,1
DA:70,2
DA:72,2
DA:75,2
DA:76,0
DA:77,0
DA:78,2
DA:81,2
DA:82,2
DA:84,2
DA:85,3
DA:87,2
DA:88,2
DA:89,0
DA:90,0
DA:91,0
DA:92,0
DA:93,2
DA:95,2
DA:98,2
DA:99,0
DA:100,0
DA:101,2
DA:104,2
DA:105,2
DA:107,2
DA:108,2
DA:110,3
DA:111,3
DA:112,0
DA:113,0
DA:114,0
DA:115,0
DA:116,3
DA:118,3
DA:121,3
DA:122,0
DA:123,0
DA:124,0
DA:125,0
DA:126,0
DA:128,0
DA:130,0
DA:131,0
DA:132,0
DA:133,3
DA:136,3
DA:138,3
DA:139,1
DA:140,1
DA:141,1
DA:142,2
DA:144,2
DA:145,2
DA:146,3
DA:148,2
DA:149,2
DA:150,0
DA:151,0
DA:152,0
DA:153,0
DA:154,2
DA:156,2
DA:157,2
DA:159,2
DA:160,1
DA:161,1
DA:162,1
DA:163,1
DA:165,1
DA:166,1
DA:167,2
DA:169,0
DA:170,0
DA:171,0
DA:172,0
DA:173,0
DA:174,0
DA:175,0
DA:177,0
DA:178,0
DA:180,0
DA:181,0
DA:182,0
DA:183,0
DA:184,0
DA:186,0
DA:187,0
DA:188,0
DA:190,3
DA:191,3
DA:192,0
DA:193,0
DA:194,0
DA:195,0
DA:196,3
DA:198,3
DA:201,3
DA:202,0
DA:203,0
DA:204,3
DA:207,3
DA:208,3
DA:210,3
DA:211,3
DA:213,0
DA:214,0
DA:215,0
DA:216,0
DA:217,0
DA:218,0
DA:219,0
DA:221,0
DA:222,0
DA:223,0
DA:225,0
DA:226,0
DA:228,0
DA:229,0
DA:230,0
DA:231,0
DA:232,0
DA:233,0
DA:234,0
DA:236,0
DA:237,0
DA:239,0
DA:240,0
DA:241,0
DA:242,0
DA:243,0
DA:245,0
DA:246,0
DA:247,0
DA:249,0
DA:250,0
DA:251,0
DA:252,0
DA:253,0
DA:254,0
DA:255,0
DA:257,0
DA:258,0
DA:260,0
DA:261,0
DA:262,0
DA:263,0
DA:264,0
DA:266,0
DA:267,0
DA:268,0
DA:270,0
DA:271,0
DA:272,0
DA:273,0
DA:274,0
DA:275,0
DA:276,0
DA:278,0
DA:279,0
DA:280,0
DA:282,0
DA:283,0
DA:285,0
DA:286,0
DA:287,0
DA:288,0
DA:289,0
DA:290,0
DA:291,0
DA:293,0
DA:294,0
DA:295,0
DA:297,0
DA:298,0
DA:300,0
DA:301,0
DA:302,0
DA:303,0
DA:304,0
DA:305,0
DA:306,0
DA:308,0
DA:309,0
DA:310,0
DA:312,0
DA:313,0
DA:315,0
DA:316,0
DA:317,0
DA:318,0
DA:319,0
DA:320,0
DA:321,0
DA:323,0
DA:324,0
DA:325,0
DA:327,0
DA:328,0
DA:332,0
DA:333,0
DA:334,0
DA:335,0
DA:336,0
DA:337,0
DA:338,0
DA:340,0
DA:341,0
DA:344,0
DA:345,0
DA:346,0
DA:347,0
DA:348,0
DA:350,0
DA:351,0
DA:352,0
DA:355,0
DA:358,0
DA:359,0
DA:360,0
DA:361,0
DA:362,0
DA:364,0
DA:365,0
DA:368,0
DA:369,0
DA:370,0
DA:371,0
DA:372,0
DA:373,0
DA:376,0
DA:377,0
DA:378,0
DA:379,0
DA:380,0
DA:381,0
DA:383,0
DA:384,0
DA:385,0
DA:386,0
DA:389,0
DA:393,0
DA:396,0
DA:399,0
DA:400,0
DA:402,0
DA:404,0
DA:407,0
DA:408,0
DA:409,0
DA:410,0
DA:411,0
DA:412,0
DA:413,0
DA:415,0
DA:416,0
DA:417,0
DA:418,0
DA:420,0
DA:421,0
DA:422,0
DA:423,0
DA:427,0
DA:428,0
DA:429,0
DA:433,0
DA:434,0
DA:437,0
DA:438,0
DA:439,0
DA:440,0
DA:441,0
DA:442,0
DA:443,0
DA:445,0
DA:446,0
DA:447,0
DA:448,0
DA:450,0
DA:451,0
DA:452,0
DA:453,0
DA:457,0
DA:458,0
DA:459,0
DA:462,0
DA:463,0
DA:464,0
DA:465,0
DA:466,0
DA:467,0
DA:468,0
DA:470,0
DA:471,0
DA:472,0
DA:473,0
DA:475,0
DA:476,0
DA:477,0
DA:478,0
DA:482,0
DA:483,0
DA:484,0
DA:487,0
DA:488,0
DA:489,0
DA:490,0
DA:491,0
DA:492,0
DA:493,0
DA:495,0
DA:496,0
DA:497,0
DA:498,0
DA:500,0
DA:501,0
DA:502,0
DA:503,0
DA:507,0
DA:508,0
DA:509,0
DA:512,0
DA:513,0
DA:514,0
DA:515,0
DA:516,0
DA:517,0
DA:518,0
DA:520,0
DA:521,0
DA:522,0
DA:523,0
DA:525,0
DA:526,0
DA:527,0
DA:528,0
DA:532,0
DA:533,0
DA:534,0
DA:537,0
DA:538,0
DA:539,0
DA:540,0
DA:541,0
DA:542,0
DA:543,0
DA:545,0
DA:546,0
DA:547,0
DA:548,0
DA:550,0
DA:551,0
DA:552,0
DA:553,0
DA:557,0
DA:558,0
DA:559,0
DA:562,0
DA:563,0
DA:564,0
DA:565,0
DA:566,0
DA:567,0
DA:568,0
DA:570,0
DA:571,0
DA:572,0
DA:573,0
DA:575,0
DA:576,0
DA:577,0
DA:578,0
DA:582,0
DA:583,0
DA:584,0
DA:591,1
DA:592,1
DA:593,1
DA:594,1
DA:596,1
DA:597,1
DA:598,1
DA:599,1
DA:602,1
DA:603,1
DA:604,1
DA:605,1
DA:607,1
DA:608,1
DA:609,1
DA:610,1
DA:613,1
DA:614,1
DA:615,1
DA:616,1
DA:618,1
DA:619,1
DA:620,1
DA:621,1
DA:624,1
DA:625,1
DA:626,1
DA:627,1
DA:630,1
DA:631,1
DA:632,1
DA:635,1
DA:636,1
DA:637,1
DA:638,1
DA:640,1
DA:641,1
DA:642,1
DA:645,1
DA:646,1
DA:647,1
DA:651,0
DA:652,0
DA:653,0
DA:654,0
DA:655,0
DA:656,0
DA:657,0
DA:659,0
DA:660,0
DA:661,0
DA:662,0
DA:663,0
DA:666,0
DA:667,0
DA:670,0
DA:673,0
DA:674,0
DA:675,0
DA:676,0
DA:677,0
DA:678,0
DA:679,0
DA:681,0
DA:682,0
DA:683,0
DA:684,0
DA:685,0
DA:688,0
DA:689,0
DA:692,0
DA:695,0
DA:696,0
DA:697,0
DA:698,0
DA:699,0
DA:700,0
DA:701,0
DA:703,0
DA:704,0
DA:705,0
DA:706,0
DA:709,0
DA:710,0
DA:713,0
DA:716,0
DA:717,0
DA:718,0
DA:719,0
DA:720,0
DA:721,0
DA:722,0
DA:724,0
DA:725,0
DA:726,0
DA:728,0
DA:729,0
DA:732,0
DA:738,0
DA:741,0
DA:742,0
DA:743,0
DA:744,0
DA:745,0
DA:748,0
DA:749,0
DA:751,0
DA:752,0
DA:753,0
DA:754,0
DA:758,0
DA:759,0
DA:760,0
DA:761,0
DA:762,0
DA:765,0
DA:766,0
DA:767,0
DA:768,0
DA:769,0
DA:772,0
DA:776,0
DA:779,0
DA:780,0
DA:781,0
DA:783,0
DA:787,0
DA:790,0
DA:791,0
DA:792,0
DA:793,0
DA:794,0
DA:795,0
DA:799,0
DA:801,0
DA:802,0
DA:805,0
DA:806,0
DA:807,0
DA:808,0
DA:809,0
DA:810,0
DA:813,0
DA:814,0
DA:815,0
DA:816,0
DA:817,0
DA:818,0
DA:819,0
DA:822,0
DA:824,0
DA:825,0
DA:826,0
DA:827,0
DA:830,0
DA:831,0
DA:832,0
DA:834,0
DA:835,0
DA:836,0
DA:837,0
DA:838,0
DA:839,0
DA:840,0
DA:841,0
DA:843,0
DA:850,1
DA:851,1
DA:852,1
DA:853,1
DA:855,1
DA:856,1
DA:857,1
DA:858,1
DA:861,1
DA:863,1
DA:864,1
DA:865,1
DA:867,1
DA:868,1
DA:869,1
DA:870,1
DA:873,1
DA:875,1
DA:876,1
DA:878,1
DA:879,1
DA:880,1
BRF:0
BRH:0
LF:628
LH:151
end_of_record
SF:/Users/ravindraboddipalli/sources/xdl/xdl-stdlib/src/ml.rs
FN:701,_RNCNvNtCs7X22eMfvUxK_10xdl_stdlib2ml11xdlmlaf_elu0B5_
FN:534,_RNCNvNtCs7X22eMfvUxK_10xdl_stdlib2ml12xdlml_kmeans0B5_
FN:943,_RNCNvNtCs7X22eMfvUxK_10xdl_stdlib2ml12xdlmlaf_isru0B5_
FN:632,_RNCNvNtCs7X22eMfvUxK_10xdl_stdlib2ml12xdlmlaf_relu0B5_
FN:847,_RNCNvNtCs7X22eMfvUxK_10xdl_stdlib2ml12xdlmlaf_sinc0B5_
FN:857,_RNCNvNtCs7X22eMfvUxK_10xdl_stdlib2ml12xdlmlaf_sincs_0B5_
FN:610,_RNCNvNtCs7X22eMfvUxK_10xdl_stdlib2ml12xdlmlaf_tanh0B5_
FN:3402,_RNCNvNtCs7X22eMfvUxK_10xdl_stdlib2ml13xdlml_dropout0B5_
FN:3829,_RNCNvNtCs7X22eMfvUxK_10xdl_stdlib2ml13xdlml_reshape0B5_
FN:117,_RNCNvNtCs7X22eMfvUxK_10xdl_stdlib2ml13xdlml_shuffle0B5_
FN:2355,_RNCNvNtCs7X22eMfvUxK_10xdl_stdlib2ml13xdlml_softmax0B5_
FN:2358,_RNCNvNtCs7X22eMfvUxK_10xdl_stdlib2ml13xdlml_softmaxs0_0B5_
FN:2356,_RNCNvNtCs7X22eMfvUxK_10xdl_stdlib2ml13xdlml_softmaxs_0B5_
FN:980,_RNCNvNtCs7X22eMfvUxK_10xdl_stdlib2ml13xdlmlaf_isrlu0B5_
FN:662,_RNCNvNtCs7X22eMfvUxK_10xdl_stdlib2ml13xdlmlaf_prelu0B5_
FN:1233,_RNCNvNtCs7X22eMfvUxK_10xdl_stdlib2ml13xdlmllf_huber0B5_
FN:1692,_RNCNvNtCs7X22eMfvUxK_10xdl_stdlib2ml13xdlmlopt_adam0B5_
FN:805,_RNCNvNtCs7X22eMfvUxK_10xdl_stdlib2ml14xdlmlaf_arctan0B5_
FN:781,_RNCNvNtCs7X22eMfvUxK_10xdl_stdlib2ml15xdlmlaf_softmax0B5_
FN:785,_RNCNvNtCs7X22eMfvUxK_10xdl_stdlib2ml15xdlmlaf_softmaxs0_0B5_
FN:782,_RNCNvNtCs7X22eMfvUxK_10xdl_stdlib2ml15xdlmlaf_softmaxs_0B5_
FN:1285,_RNCNvNtCs7X22eMfvUxK_10xdl_stdlib2ml15xdlmllf_logcosh0B5_
FN:827,_RNCNvNtCs7X22eMfvUxK_10xdl_stdlib2ml16xdlmlaf_gaussian0B5_
FN:588,_RNCNvNtCs7X22eMfvUxK_10xdl_stdlib2ml16xdlmlaf_logistic0B5_
FN:879,_RNCNvNtCs7X22eMfvUxK_10xdl_stdlib2ml16xdlmlaf_sinusoid0B5_
FN:732,_RNCNvNtCs7X22eMfvUxK_10xdl_stdlib2ml16xdlmlaf_softplus0B5_
FN:754,_RNCNvNtCs7X22eMfvUxK_10xdl_stdlib2ml16xdlmlaf_softsign0B5_
FN:1547,_RNCNvNtCs7X22eMfvUxK_10xdl_stdlib2ml16xdlmlopt_rmsprop0B5_
FN:565,_RNCNvNtCs7X22eMfvUxK_10xdl_stdlib2ml18xdlmlaf_binarystep0B5_
FN:1805,_RNCNvNtCs7X22eMfvUxK_10xdl_stdlib2ml18xdlmlopt_quickprop0B5_
FN:903,_RNCNvNtCs7X22eMfvUxK_10xdl_stdlib2ml20xdlmlaf_bentidentity0B5_
FN:1176,_RNCNvNtCs7X22eMfvUxK_10xdl_stdlib2ml20xdlmllf_crossentropy0B5_
FN:1869,_RNCNvNtCs7X22eMfvUxK_10xdl_stdlib2ml21xdlml_svmlinearkernel0B5_
FN:2010,_RNCNvNtCs7X22eMfvUxK_10xdl_stdlib2ml21xdlml_svmradialkernel0B5_
FN:317,_RNCNvNtCs7X22eMfvUxK_10xdl_stdlib2ml21xdlml_tanh_normalizer0B5_
FN:357,_RNCNvNtCs7X22eMfvUxK_10xdl_stdlib2ml21xdlml_unit_normalizer0B5_
FN:364,_RNCNvNtCs7X22eMfvUxK_10xdl_stdlib2ml21xdlml_unit_normalizers_0B5_
FN:221,_RNCNvNtCs7X22eMfvUxK_10xdl_stdlib2ml22xdlml_range_normalizer0B5_
FN:230,_RNCNvNtCs7X22eMfvUxK_10xdl_stdlib2ml22xdlml_range_normalizers0_0B5_
FN:222,_RNCNvNtCs7X22eMfvUxK_10xdl_stdlib2ml22xdlml_range_normalizers_0B5_
FN:2081,_RNCNvNtCs7X22eMfvUxK_10xdl_stdlib2ml22xdlml_svmsigmoidkernel0B5_
FN:182,_RNCNvNtCs7X22eMfvUxK_10xdl_stdlib2ml23xdlml_linear_normalizer0B5_
FN:1021,_RNCNvNtCs7X22eMfvUxK_10xdl_stdlib2ml23xdlmlaf_softexponential0B5_
FN:1033,_RNCNvNtCs7X22eMfvUxK_10xdl_stdlib2ml23xdlmlaf_softexponentials_0B5_
FN:3280,_RNCNvNtCs7X22eMfvUxK_10xdl_stdlib2ml24xdlml_batchnormalization0B5_
FN:3291,_RNCNvNtCs7X22eMfvUxK_10xdl_stdlib2ml24xdlml_batchnormalizations_0B5_
FN:1086,_RNCNvNtCs7X22eMfvUxK_10xdl_stdlib2ml24xdlmllf_meansquarederror0B5_
FN:1354,_RNCNvNtCs7X22eMfvUxK_10xdl_stdlib2ml24xdlmlopt_gradientdescent0B5_
FN:1948,_RNCNvNtCs7X22eMfvUxK_10xdl_stdlib2ml25xdlml_svmpolynomialkernel0B5_
FN:274,_RNCNvNtCs7X22eMfvUxK_10xdl_stdlib2ml25xdlml_variance_normalizer0B5_
FN:282,_RNCNvNtCs7X22eMfvUxK_10xdl_stdlib2ml25xdlml_variance_normalizers_0B5_
FN:1130,_RNCNvNtCs7X22eMfvUxK_10xdl_stdlib2ml25xdlmllf_meanabsoluteerror0B5_
FN:2531,_RNCNvNtCs7X22eMfvUxK_10xdl_stdlib2ml30xdlml_feedforwardneuralnetwork0B5_
FN:2534,_RNCNvNtCs7X22eMfvUxK_10xdl_stdlib2ml30xdlml_feedforwardneuralnetworks0_0B5_
FN:2532,_RNCNvNtCs7X22eMfvUxK_10xdl_stdlib2ml30xdlml_feedforwardneuralnetworks_0B5_
FN:2847,_RNCNvNtCs7X22eMfvUxK_10xdl_stdlib2ml40xdlml_supportvectormachineclassification0B5_
FN:4117,_RNvNtCs7X22eMfvUxK_10xdl_stdlib2ml10xdlml_lstm
FN:4382,_RNvNtCs7X22eMfvUxK_10xdl_stdlib2ml11xdlml_kfold
FN:680,_RNvNtCs7X22eMfvUxK_10xdl_stdlib2ml11xdlmlaf_elu
FN:3443,_RNvNtCs7X22eMfvUxK_10xdl_stdlib2ml12xdlml_conv1d
FN:3915,_RNvNtCs7X22eMfvUxK_10xdl_stdlib2ml12xdlml_conv2d
FN:391,_RNvNtCs7X22eMfvUxK_10xdl_stdlib2ml12xdlml_kmeans
FN:3718,_RNvNtCs7X22eMfvUxK_10xdl_stdlib2ml12xdlml_matmul
FN:922,_RNvNtCs7X22eMfvUxK_10xdl_stdlib2ml12xdlmlaf_isru
FN:623,_RNvNtCs7X22eMfvUxK_10xdl_stdlib2ml12xdlmlaf_relu
FN:840,_RNvNtCs7X22eMfvUxK_10xdl_stdlib2ml12xdlmlaf_sinc
FN:601,_RNvNtCs7X22eMfvUxK_10xdl_stdlib2ml12xdlmlaf_tanh
FN:3322,_RNvNtCs7X22eMfvUxK_10xdl_stdlib2ml13xdlml_dropout
FN:3808,_RNvNtCs7X22eMfvUxK_10xdl_stdlib2ml13xdlml_reshape
FN:81,_RNvNtCs7X22eMfvUxK_10xdl_stdlib2ml13xdlml_shuffle
FN:2222,_RNvNtCs7X22eMfvUxK_10xdl_stdlib2ml13xdlml_softmax
FN:959,_RNvNtCs7X22eMfvUxK_10xdl_stdlib2ml13xdlmlaf_isrlu
FN:645,_RNvNtCs7X22eMfvUxK_10xdl_stdlib2ml13xdlmlaf_prelu
FN:1186,_RNvNtCs7X22eMfvUxK_10xdl_stdlib2ml13xdlmllf_huber
FN:1578,_RNvNtCs7X22eMfvUxK_10xdl_stdlib2ml13xdlmlopt_adam
FN:796,_RNvNtCs7X22eMfvUxK_10xdl_stdlib2ml14xdlmlaf_arctan
FN:20,_RNvNtCs7X22eMfvUxK_10xdl_stdlib2ml15xdlml_partition
FN:4188,_RNvNtCs7X22eMfvUxK_10xdl_stdlib2ml15xdlml_simplernn
FN:3856,_RNvNtCs7X22eMfvUxK_10xdl_stdlib2ml15xdlml_transpose
FN:767,_RNvNtCs7X22eMfvUxK_10xdl_stdlib2ml15xdlmlaf_softmax
FN:1249,_RNvNtCs7X22eMfvUxK_10xdl_stdlib2ml15xdlmllf_logcosh
FN:818,_RNvNtCs7X22eMfvUxK_10xdl_stdlib2ml16xdlmlaf_gaussian
FN:544,_RNvNtCs7X22eMfvUxK_10xdl_stdlib2ml16xdlmlaf_identity
FN:579,_RNvNtCs7X22eMfvUxK_10xdl_stdlib2ml16xdlmlaf_logistic
FN:870,_RNvNtCs7X22eMfvUxK_10xdl_stdlib2ml16xdlmlaf_sinusoid
FN:723,_RNvNtCs7X22eMfvUxK_10xdl_stdlib2ml16xdlmlaf_softplus
FN:745,_RNvNtCs7X22eMfvUxK_10xdl_stdlib2ml16xdlmlaf_softsign
FN:1469,_RNvNtCs7X22eMfvUxK_10xdl_stdlib2ml16xdlmlopt_rmsprop
FN:2592,_RNvNtCs7X22eMfvUxK_10xdl_stdlib2ml17xdlml_autoencoder
FN:4620,_RNvNtCs7X22eMfvUxK_10xdl_stdlib2ml17xdlml_leaveoneout
FN:1375,_RNvNtCs7X22eMfvUxK_10xdl_stdlib2ml17xdlmlopt_momentum
FN:3553,_RNvNtCs7X22eMfvUxK_10xdl_stdlib2ml18xdlml_maxpooling1d
FN:4024,_RNvNtCs7X22eMfvUxK_10xdl_stdlib2ml18xdlml_maxpooling2d
FN:4313,_RNvNtCs7X22eMfvUxK_10xdl_stdlib2ml18xdlml_sequencemean
FN:554,_RNvNtCs7X22eMfvUxK_10xdl_stdlib2ml18xdlmlaf_binarystep
FN:1723,_RNvNtCs7X22eMfvUxK_10xdl_stdlib2ml18xdlmlopt_quickprop
FN:2107,_RNvNtCs7X22eMfvUxK_10xdl_stdlib2ml20xdlml_testclassifier
FN:892,_RNvNtCs7X22eMfvUxK_10xdl_stdlib2ml20xdlmlaf_bentidentity
FN:1138,_RNvNtCs7X22eMfvUxK_10xdl_stdlib2ml20xdlmllf_crossentropy
FN:4501,_RNvNtCs7X22eMfvUxK_10xdl_stdlib2ml21xdlml_stratifiedkfold
FN:1836,_RNvNtCs7X22eMfvUxK_10xdl_stdlib2ml21xdlml_svmlinearkernel
FN:1963,_RNvNtCs7X22eMfvUxK_10xdl_stdlib2ml21xdlml_svmradialkernel
FN:300,_RNvNtCs7X22eMfvUxK_10xdl_stdlib2ml21xdlml_tanh_normalizer
FN:335,_RNvNtCs7X22eMfvUxK_10xdl_stdlib2ml21xdlml_unit_normalizer
FN:3633,_RNvNtCs7X22eMfvUxK_10xdl_stdlib2ml22xdlml_averagepooling1d
FN:200,_RNvNtCs7X22eMfvUxK_10xdl_stdlib2ml22xdlml_range_normalizer
FN:2028,_RNvNtCs7X22eMfvUxK_10xdl_stdlib2ml22xdlml_svmsigmoidkernel
FN:145,_RNvNtCs7X22eMfvUxK_10xdl_stdlib2ml23xdlml_linear_normalizer
FN:1008,_RNvNtCs7X22eMfvUxK_10xdl_stdlib2ml23xdlmlaf_softexponential
FN:3184,_RNvNtCs7X22eMfvUxK_10xdl_stdlib2ml24xdlml_batchnormalization
FN:1050,_RNvNtCs7X22eMfvUxK_10xdl_stdlib2ml24xdlmllf_meansquarederror
FN:1307,_RNvNtCs7X22eMfvUxK_10xdl_stdlib2ml24xdlmlopt_gradientdescent
FN:1885,_RNvNtCs7X22eMfvUxK_10xdl_stdlib2ml25xdlml_svmpolynomialkernel
FN:248,_RNvNtCs7X22eMfvUxK_10xdl_stdlib2ml25xdlml_variance_normalizer
FN:1094,_RNvNtCs7X22eMfvUxK_10xdl_stdlib2ml25xdlmllf_meanabsoluteerror
FN:2411,_RNvNtCs7X22eMfvUxK_10xdl_stdlib2ml30xdlml_feedforwardneuralnetwork
FN:2998,_RNvNtCs7X22eMfvUxK_10xdl_stdlib2ml36xdlml_supportvectormachineregression
FN:2740,_RNvNtCs7X22eMfvUxK_10xdl_stdlib2ml40xdlml_supportvectormachineclassification
FN:117,_RNCNvNtCsgiIQ3x9G6Hx_10xdl_stdlib2ml13xdlml_shuffle0B5_
FN:701,_RNCNvNtCsgiIQ3x9G6Hx_10xdl_stdlib2ml11xdlmlaf_elu0B5_
FN:534,_RNCNvNtCsgiIQ3x9G6Hx_10xdl_stdlib2ml12xdlml_kmeans0B5_
FN:943,_RNCNvNtCsgiIQ3x9G6Hx_10xdl_stdlib2ml12xdlmlaf_isru0B5_
FN:632,_RNCNvNtCsgiIQ3x9G6Hx_10xdl_stdlib2ml12xdlmlaf_relu0B5_
FN:847,_RNCNvNtCsgiIQ3x9G6Hx_10xdl_stdlib2ml12xdlmlaf_sinc0B5_
FN:857,_RNCNvNtCsgiIQ3x9G6Hx_10xdl_stdlib2ml12xdlmlaf_sincs_0B5_
FN:610,_RNCNvNtCsgiIQ3x9G6Hx_10xdl_stdlib2ml12xdlmlaf_tanh0B5_
FN:3402,_RNCNvNtCsgiIQ3x9G6Hx_10xdl_stdlib2ml13xdlml_dropout0B5_
FN:3829,_RNCNvNtCsgiIQ3x9G6Hx_10xdl_stdlib2ml13xdlml_reshape0B5_
FN:2355,_RNCNvNtCsgiIQ3x9G6Hx_10xdl_stdlib2ml13xdlml_softmax0B5_
FN:2358,_RNCNvNtCsgiIQ3x9G6Hx_10xdl_stdlib2ml13xdlml_softmaxs0_0B5_
FN:2356,_RNCNvNtCsgiIQ3x9G6Hx_10xdl_stdlib2ml13xdlml_softmaxs_0B5_
FN:980,_RNCNvNtCsgiIQ3x9G6Hx_10xdl_stdlib2ml13xdlmlaf_isrlu0B5_
FN:662,_RNCNvNtCsgiIQ3x9G6Hx_10xdl_stdlib2ml13xdlmlaf_prelu0B5_
FN:1233,_RNCNvNtCsgiIQ3x9G6Hx_10xdl_stdlib2ml13xdlmllf_huber0B5_
FN:1692,_RNCNvNtCsgiIQ3x9G6Hx_10xdl_stdlib2ml13xdlmlopt_adam0B5_
FN:805,_RNCNvNtCsgiIQ3x9G6Hx_10xdl_stdlib2ml14xdlmlaf_arctan0B5_
FN:781,_RNCNvNtCsgiIQ3x9G6Hx_10xdl_stdlib2ml15xdlmlaf_softmax0B5_
FN:785,_RNCNvNtCsgiIQ3x9G6Hx_10xdl_stdlib2ml15xdlmlaf_softmaxs0_0B5_
FN:782,_RNCNvNtCsgiIQ3x9G6Hx_10xdl_stdlib2ml15xdlmlaf_softmaxs_0B5_
FN:1285,_RNCNvNtCsgiIQ3x9G6Hx_10xdl_stdlib2ml15xdlmllf_logcosh0B5_
FN:827,_RNCNvNtCsgiIQ3x9G6Hx_10xdl_stdlib2ml16xdlmlaf_gaussian0B5_
FN:588,_RNCNvNtCsgiIQ3x9G6Hx_10xdl_stdlib2ml16xdlmlaf_logistic0B5_
FN:879,_RNCNvNtCsgiIQ3x9G6Hx_10xdl_stdlib2ml16xdlmlaf_sinusoid0B5_
FN:732,_RNCNvNtCsgiIQ3x9G6Hx_10xdl_stdlib2ml16xdlmlaf_softplus0B5_
FN:754,_RNCNvNtCsgiIQ3x9G6Hx_10xdl_stdlib2ml16xdlmlaf_softsign0B5_
FN:1547,_RNCNvNtCsgiIQ3x9G6Hx_10xdl_stdlib2ml16xdlmlopt_rmsprop0B5_
FN:565,_RNCNvNtCsgiIQ3x9G6Hx_10xdl_stdlib2ml18xdlmlaf_binarystep0B5_
FN:1805,_RNCNvNtCsgiIQ3x9G6Hx_10xdl_stdlib2ml18xdlmlopt_quickprop0B5_
FN:903,_RNCNvNtCsgiIQ3x9G6Hx_10xdl_stdlib2ml20xdlmlaf_bentidentity0B5_
FN:1176,_RNCNvNtCsgiIQ3x9G6Hx_10xdl_stdlib2ml20xdlmllf_crossentropy0B5_
FN:1869,_RNCNvNtCsgiIQ3x9G6Hx_10xdl_stdlib2ml21xdlml_svmlinearkernel0B5_
FN:2010,_RNCNvNtCsgiIQ3x9G6Hx_10xdl_stdlib2ml21xdlml_svmradialkernel0B5_
FN:317,_RNCNvNtCsgiIQ3x9G6Hx_10xdl_stdlib2ml21xdlml_tanh_normalizer0B5_
FN:357,_RNCNvNtCsgiIQ3x9G6Hx_10xdl_stdlib2ml21xdlml_unit_normalizer0B5_
FN:364,_RNCNvNtCsgiIQ3x9G6Hx_10xdl_stdlib2ml21xdlml_unit_normalizers_0B5_
FN:221,_RNCNvNtCsgiIQ3x9G6Hx_10xdl_stdlib2ml22xdlml_range_normalizer0B5_
FN:230,_RNCNvNtCsgiIQ3x9G6Hx_10xdl_stdlib2ml22xdlml_range_normalizers0_0B5_
FN:222,_RNCNvNtCsgiIQ3x9G6Hx_10xdl_stdlib2ml22xdlml_range_normalizers_0B5_
FN:2081,_RNCNvNtCsgiIQ3x9G6Hx_10xdl_stdlib2ml22xdlml_svmsigmoidkernel0B5_
FN:182,_RNCNvNtCsgiIQ3x9G6Hx_10xdl_stdlib2ml23xdlml_linear_normalizer0B5_
FN:1021,_RNCNvNtCsgiIQ3x9G6Hx_10xdl_stdlib2ml23xdlmlaf_softexponential0B5_
FN:1033,_RNCNvNtCsgiIQ3x9G6Hx_10xdl_stdlib2ml23xdlmlaf_softexponentials_0B5_
FN:3280,_RNCNvNtCsgiIQ3x9G6Hx_10xdl_stdlib2ml24xdlml_batchnormalization0B5_
FN:3291,_RNCNvNtCsgiIQ3x9G6Hx_10xdl_stdlib2ml24xdlml_batchnormalizations_0B5_
FN:1086,_RNCNvNtCsgiIQ3x9G6Hx_10xdl_stdlib2ml24xdlmllf_meansquarederror0B5_
FN:1354,_RNCNvNtCsgiIQ3x9G6Hx_10xdl_stdlib2ml24xdlmlopt_gradientdescent0B5_
FN:1948,_RNCNvNtCsgiIQ3x9G6Hx_10xdl_stdlib2ml25xdlml_svmpolynomialkernel0B5_
FN:274,_RNCNvNtCsgiIQ3x9G6Hx_10xdl_stdlib2ml25xdlml_variance_normalizer0B5_
FN:282,_RNCNvNtCsgiIQ3x9G6Hx_10xdl_stdlib2ml25xdlml_variance_normalizers_0B5_
FN:1130,_RNCNvNtCsgiIQ3x9G6Hx_10xdl_stdlib2ml25xdlmllf_meanabsoluteerror0B5_
FN:2531,_RNCNvNtCsgiIQ3x9G6Hx_10xdl_stdlib2ml30xdlml_feedforwardneuralnetwork0B5_
FN:2534,_RNCNvNtCsgiIQ3x9G6Hx_10xdl_stdlib2ml30xdlml_feedforwardneuralnetworks0_0B5_
FN:2532,_RNCNvNtCsgiIQ3x9G6Hx_10xdl_stdlib2ml30xdlml_feedforwardneuralnetworks_0B5_
FN:2847,_RNCNvNtCsgiIQ3x9G6Hx_10xdl_stdlib2ml40xdlml_supportvectormachineclassification0B5_
FN:4117,_RNvNtCsgiIQ3x9G6Hx_10xdl_stdlib2ml10xdlml_lstm
FN:4382,_RNvNtCsgiIQ3x9G6Hx_10xdl_stdlib2ml11xdlml_kfold
FN:680,_RNvNtCsgiIQ3x9G6Hx_10xdl_stdlib2ml11xdlmlaf_elu
FN:3443,_RNvNtCsgiIQ3x9G6Hx_10xdl_stdlib2ml12xdlml_conv1d
FN:3915,_RNvNtCsgiIQ3x9G6Hx_10xdl_stdlib2ml12xdlml_conv2d
FN:391,_RNvNtCsgiIQ3x9G6Hx_10xdl_stdlib2ml12xdlml_kmeans
FN:3718,_RNvNtCsgiIQ3x9G6Hx_10xdl_stdlib2ml12xdlml_matmul
FN:922,_RNvNtCsgiIQ3x9G6Hx_10xdl_stdlib2ml12xdlmlaf_isru
FN:623,_RNvNtCsgiIQ3x9G6Hx_10xdl_stdlib2ml12xdlmlaf_relu
FN:840,_RNvNtCsgiIQ3x9G6Hx_10xdl_stdlib2ml12xdlmlaf_sinc
FN:601,_RNvNtCsgiIQ3x9G6Hx_10xdl_stdlib2ml12xdlmlaf_tanh
FN:3322,_RNvNtCsgiIQ3x9G6Hx_10xdl_stdlib2ml13xdlml_dropout
FN:3808,_RNvNtCsgiIQ3x9G6Hx_10xdl_stdlib2ml13xdlml_reshape
FN:2222,_RNvNtCsgiIQ3x9G6Hx_10xdl_stdlib2ml13xdlml_softmax
FN:959,_RNvNtCsgiIQ3x9G6Hx_10xdl_stdlib2ml13xdlmlaf_isrlu
FN:645,_RNvNtCsgiIQ3x9G6Hx_10xdl_stdlib2ml13xdlmlaf_prelu
FN:1186,_RNvNtCsgiIQ3x9G6Hx_10xdl_stdlib2ml13xdlmllf_huber
FN:1578,_RNvNtCsgiIQ3x9G6Hx_10xdl_stdlib2ml13xdlmlopt_adam
FN:796,_RNvNtCsgiIQ3x9G6Hx_10xdl_stdlib2ml14xdlmlaf_arctan
FN:4188,_RNvNtCsgiIQ3x9G6Hx_10xdl_stdlib2ml15xdlml_simplernn
FN:3856,_RNvNtCsgiIQ3x9G6Hx_10xdl_stdlib2ml15xdlml_transpose
FN:767,_RNvNtCsgiIQ3x9G6Hx_10xdl_stdlib2ml15xdlmlaf_softmax
FN:1249,_RNvNtCsgiIQ3x9G6Hx_10xdl_stdlib2ml15xdlmllf_logcosh
FN:818,_RNvNtCsgiIQ3x9G6Hx_10xdl_stdlib2ml16xdlmlaf_gaussian
FN:544,_RNvNtCsgiIQ3x9G6Hx_10xdl_stdlib2ml16xdlmlaf_identity
FN:579,_RNvNtCsgiIQ3x9G6Hx_10xdl_stdlib2ml16xdlmlaf_logistic
FN:870,_RNvNtCsgiIQ3x9G6Hx_10xdl_stdlib2ml16xdlmlaf_sinusoid
FN:723,_RNvNtCsgiIQ3x9G6Hx_10xdl_stdlib2ml16xdlmlaf_softplus
FN:745,_RNvNtCsgiIQ3x9G6Hx_10xdl_stdlib2ml16xdlmlaf_softsign
FN:1469,_RNvNtCsgiIQ3x9G6Hx_10xdl_stdlib2ml16xdlmlopt_rmsprop
FN:2592,_RNvNtCsgiIQ3x9G6Hx_10xdl_stdlib2ml17xdlml_autoencoder
FN:4620,_RNvNtCsgiIQ3x9G6Hx_10xdl_stdlib2ml17xdlml_leaveoneout
FN:1375,_RNvNtCsgiIQ3x9G6Hx_10xdl_stdlib2ml17xdlmlopt_momentum
FN:3553,_RNvNtCsgiIQ3x9G6Hx_10xdl_stdlib2ml18xdlml_maxpooling1d
FN:4024,_RNvNtCsgiIQ3x9G6Hx_10xdl_stdlib2ml18xdlml_maxpooling2d
FN:4313,_RNvNtCsgiIQ3x9G6Hx_10xdl_stdlib2ml18xdlml_sequencemean
FN:554,_RNvNtCsgiIQ3x9G6Hx_10xdl_stdlib2ml18xdlmlaf_binarystep
FN:1723,_RNvNtCsgiIQ3x9G6Hx_10xdl_stdlib2ml18xdlmlopt_quickprop
FN:2107,_RNvNtCsgiIQ3x9G6Hx_10xdl_stdlib2ml20xdlml_testclassifier
FN:892,_RNvNtCsgiIQ3x9G6Hx_10xdl_stdlib2ml20xdlmlaf_bentidentity
FN:1138,_RNvNtCsgiIQ3x9G6Hx_10xdl_stdlib2ml20xdlmllf_crossentropy
FN:4501,_RNvNtCsgiIQ3x9G6Hx_10xdl_stdlib2ml21xdlml_stratifiedkfold
FN:1836,_RNvNtCsgiIQ3x9G6Hx_10xdl_stdlib2ml21xdlml_svmlinearkernel
FN:1963,_RNvNtCsgiIQ3x9G6Hx_10xdl_stdlib2ml21xdlml_svmradialkernel
FN:300,_RNvNtCsgiIQ3x9G6Hx_10xdl_stdlib2ml21xdlml_tanh_normalizer
FN:335,_RNvNtCsgiIQ3x9G6Hx_10xdl_stdlib2ml21xdlml_unit_normalizer
FN:3633,_RNvNtCsgiIQ3x9G6Hx_10xdl_stdlib2ml22xdlml_averagepooling1d
FN:200,_RNvNtCsgiIQ3x9G6Hx_10xdl_stdlib2ml22xdlml_range_normalizer
FN:2028,_RNvNtCsgiIQ3x9G6Hx_10xdl_stdlib2ml22xdlml_svmsigmoidkernel
FN:145,_RNvNtCsgiIQ3x9G6Hx_10xdl_stdlib2ml23xdlml_linear_normalizer
FN:1008,_RNvNtCsgiIQ3x9G6Hx_10xdl_stdlib2ml23xdlmlaf_softexponential
FN:3184,_RNvNtCsgiIQ3x9G6Hx_10xdl_stdlib2ml24xdlml_batchnormalization
FN:1050,_RNvNtCsgiIQ3x9G6Hx_10xdl_stdlib2ml24xdlmllf_meansquarederror
FN:1307,_RNvNtCsgiIQ3x9G6Hx_10xdl_stdlib2ml24xdlmlopt_gradientdescent
FN:1885,_RNvNtCsgiIQ3x9G6Hx_10xdl_stdlib2ml25xdlml_svmpolynomialkernel
FN:248,_RNvNtCsgiIQ3x9G6Hx_10xdl_stdlib2ml25xdlml_variance_normalizer
FN:1094,_RNvNtCsgiIQ3x9G6Hx_10xdl_stdlib2ml25xdlmllf_meanabsoluteerror
FN:2411,_RNvNtCsgiIQ3x9G6Hx_10xdl_stdlib2ml30xdlml_feedforwardneuralnetwork
FN:2998,_RNvNtCsgiIQ3x9G6Hx_10xdl_stdlib2ml36xdlml_supportvectormachineregression
FN:2740,_RNvNtCsgiIQ3x9G6Hx_10xdl_stdlib2ml40xdlml_supportvectormachineclassification
FN:81,_RNvNtCsgiIQ3x9G6Hx_10xdl_stdlib2ml13xdlml_shuffle
FN:20,_RNvNtCsgiIQ3x9G6Hx_10xdl_stdlib2ml15xdlml_partition
FN:4679,_RNvNtNtCsgiIQ3x9G6Hx_10xdl_stdlib2ml5testss_12test_shuffle
FN:4665,_RNvNtNtCsgiIQ3x9G6Hx_10xdl_stdlib2ml5testss_14test_partition
FN:4687,_RNCNvNtNtCsgiIQ3x9G6Hx_10xdl_stdlib2ml5testss_12test_shuffle0B7_
FN:4671,_RNCNvNtNtCsgiIQ3x9G6Hx_10xdl_stdlib2ml5testss_14test_partition0B7_
FNDA:0,_RNCNvNtCs7X22eMfvUxK_10xdl_stdlib2ml11xdlmlaf_elu0B5_
FNDA:0,_RNCNvNtCs7X22eMfvUxK_10xdl_stdlib2ml12xdlml_kmeans0B5_
FNDA:0,_RNCNvNtCs7X22eMfvUxK_10xdl_stdlib2ml12xdlmlaf_isru0B5_
FNDA:0,_RNCNvNtCs7X22eMfvUxK_10xdl_stdlib2ml12xdlmlaf_relu0B5_
FNDA:0,_RNCNvNtCs7X22eMfvUxK_10xdl_stdlib2ml12xdlmlaf_sinc0B5_
FNDA:0,_RNCNvNtCs7X22eMfvUxK_10xdl_stdlib2ml12xdlmlaf_sincs_0B5_
FNDA:0,_RNCNvNtCs7X22eMfvUxK_10xdl_stdlib2ml12xdlmlaf_tanh0B5_
FNDA:0,_RNCNvNtCs7X22eMfvUxK_10xdl_stdlib2ml13xdlml_dropout0B5_
FNDA:0,_RNCNvNtCs7X22eMfvUxK_10xdl_stdlib2ml13xdlml_reshape0B5_
FNDA:0,_RNCNvNtCs7X22eMfvUxK_10xdl_stdlib2ml13xdlml_shuffle0B5_
FNDA:0,_RNCNvNtCs7X22eMfvUxK_10xdl_stdlib2ml13xdlml_softmax0B5_
FNDA:0,_RNCNvNtCs7X22eMfvUxK_10xdl_stdlib2ml13xdlml_softmaxs0_0B5_
FNDA:0,_RNCNvNtCs7X22eMfvUxK_10xdl_stdlib2ml13xdlml_softmaxs_0B5_
FNDA:0,_RNCNvNtCs7X22eMfvUxK_10xdl_stdlib2ml13xdlmlaf_isrlu0B5_
FNDA:0,_RNCNvNtCs7X22eMfvUxK_10xdl_stdlib2ml13xdlmlaf_prelu0B5_
FNDA:0,_RNCNvNtCs7X22eMfvUxK_10xdl_stdlib2ml13xdlmllf_huber0B5_
FNDA:0,_RNCNvNtCs7X22eMfvUxK_10xdl_stdlib2ml13xdlmlopt_adam0B5_
FNDA:0,_RNCNvNtCs7X22eMfvUxK_10xdl_stdlib2ml14xdlmlaf_arctan0B5_
FNDA:0,_RNCNvNtCs7X22eMfvUxK_10xdl_stdlib2ml15xdlmlaf_softmax0B5_
FNDA:0,_RNCNvNtCs7X22eMfvUxK_10xdl_stdlib2ml15xdlmlaf_softmaxs0_0B5_
FNDA:0,_RNCNvNtCs7X22eMfvUxK_10xdl_stdlib2ml15xdlmlaf_softmaxs_0B5_
FNDA:0,_RNCNvNtCs7X22eMfvUxK_10xdl_stdlib2ml15xdlmllf_logcosh0B5_
FNDA:0,_RNCNvNtCs7X22eMfvUxK_10xdl_stdlib2ml16xdlmlaf_gaussian0B5_
FNDA:0,_RNCNvNtCs7X22eMfvUxK_10xdl_stdlib2ml16xdlmlaf_logistic0B5_
FNDA:0,_RNCNvNtCs7X22eMfvUxK_10xdl_stdlib2ml16xdlmlaf_sinusoid0B5_
FNDA:0,_RNCNvNtCs7X22eMfvUxK_10xdl_stdlib2ml16xdlmlaf_softplus0B5_
FNDA:0,_RNCNvNtCs7X22eMfvUxK_10xdl_stdlib2ml16xdlmlaf_softsign0B5_
FNDA:0,_RNCNvNtCs7X22eMfvUxK_10xdl_stdlib2ml16xdlmlopt_rmsprop0B5_
FNDA:0,_RNCNvNtCs7X22eMfvUxK_10xdl_stdlib2ml18xdlmlaf_binarystep0B5_
FNDA:0,_RNCNvNtCs7X22eMfvUxK_10xdl_stdlib2ml18xdlmlopt_quickprop0B5_
FNDA:0,_RNCNvNtCs7X22eMfvUxK_10xdl_stdlib2ml20xdlmlaf_bentidentity0B5_
FNDA:0,_RNCNvNtCs7X22eMfvUxK_10xdl_stdlib2ml20xdlmllf_crossentropy0B5_
FNDA:0,_RNCNvNtCs7X22eMfvUxK_10xdl_stdlib2ml21xdlml_svmlinearkernel0B5_
FNDA:0,_RNCNvNtCs7X22eMfvUxK_10xdl_stdlib2ml21xdlml_svmradialkernel0B5_
FNDA:0,_RNCNvNtCs7X22eMfvUxK_10xdl_stdlib2ml21xdlml_tanh_normalizer0B5_
FNDA:0,_RNCNvNtCs7X22eMfvUxK_10xdl_stdlib2ml21xdlml_unit_normalizer0B5_
FNDA:0,_RNCNvNtCs7X22eMfvUxK_10xdl_stdlib2ml21xdlml_unit_normalizers_0B5_
FNDA:0,_RNCNvNtCs7X22eMfvUxK_10xdl_stdlib2ml22xdlml_range_normalizer0B5_
FNDA:0,_RNCNvNtCs7X22eMfvUxK_10xdl_stdlib2ml22xdlml_range_normalizers0_0B5_
FNDA:0,_RNCNvNtCs7X22eMfvUxK_10xdl_stdlib2ml22xdlml_range_normalizers_0B5_
FNDA:0,_RNCNvNtCs7X22eMfvUxK_10xdl_stdlib2ml22xdlml_svmsigmoidkernel0B5_
FNDA:0,_RNCNvNtCs7X22eMfvUxK_10xdl_stdlib2ml23xdlml_linear_normalizer0B5_
FNDA:0,_RNCNvNtCs7X22eMfvUxK_10xdl_stdlib2ml23xdlmlaf_softexponential0B5_
FNDA:0,_RNCNvNtCs7X22eMfvUxK_10xdl_stdlib2ml23xdlmlaf_softexponentials_0B5_
FNDA:0,_RNCNvNtCs7X22eMfvUxK_10xdl_stdlib2ml24xdlml_batchnormalization0B5_
FNDA:0,_RNCNvNtCs7X22eMfvUxK_10xdl_stdlib2ml24xdlml_batchnormalizations_0B5_
FNDA:0,_RNCNvNtCs7X22eMfvUxK_10xdl_stdlib2ml24xdlmllf_meansquarederror0B5_
FNDA:0,_RNCNvNtCs7X22eMfvUxK_10xdl_stdlib2ml24xdlmlopt_gradientdescent0B5_
FNDA:0,_RNCNvNtCs7X22eMfvUxK_10xdl_stdlib2ml25xdlml_svmpolynomialkernel0B5_
FNDA:0,_RNCNvNtCs7X22eMfvUxK_10xdl_stdlib2ml25xdlml_variance_normalizer0B5_
FNDA:0,_RNCNvNtCs7X22eMfvUxK_10xdl_stdlib2ml25xdlml_variance_normalizers_0B5_
FNDA:0,_RNCNvNtCs7X22eMfvUxK_10xdl_stdlib2ml25xdlmllf_meanabsoluteerror0B5_
FNDA:0,_RNCNvNtCs7X22eMfvUxK_10xdl_stdlib2ml30xdlml_feedforwardneuralnetwork0B5_
FNDA:0,_RNCNvNtCs7X22eMfvUxK_10xdl_stdlib2ml30xdlml_feedforwardneuralnetworks0_0B5_
FNDA:0,_RNCNvNtCs7X22eMfvUxK_10xdl_stdlib2ml30xdlml_feedforwardneuralnetworks_0B5_
FNDA:0,_RNCNvNtCs7X22eMfvUxK_10xdl_stdlib2ml40xdlml_supportvectormachineclassification0B5_
FNDA:0,_RNvNtCs7X22eMfvUxK_10xdl_stdlib2ml10xdlml_lstm
FNDA:0,_RNvNtCs7X22eMfvUxK_10xdl_stdlib2ml11xdlml_kfold
FNDA:0,_RNvNtCs7X22eMfvUxK_10xdl_stdlib2ml11xdlmlaf_elu
FNDA:0,_RNvNtCs7X22eMfvUxK_10xdl_stdlib2ml12xdlml_conv1d
FNDA:0,_RNvNtCs7X22eMfvUxK_10xdl_stdlib2ml12xdlml_conv2d
FNDA:0,_RNvNtCs7X22eMfvUxK_10xdl_stdlib2ml12xdlml_kmeans
FNDA:0,_RNvNtCs7X22eMfvUxK_10xdl_stdlib2ml12xdlml_matmul
FNDA:0,_RNvNtCs7X22eMfvUxK_10xdl_stdlib2ml12xdlmlaf_isru
FNDA:0,_RNvNtCs7X22eMfvUxK_10xdl_stdlib2ml12xdlmlaf_relu
FNDA:0,_RNvNtCs7X22eMfvUxK_10xdl_stdlib2ml12xdlmlaf_sinc
FNDA:0,_RNvNtCs7X22eMfvUxK_10xdl_stdlib2ml12xdlmlaf_tanh
FNDA:0,_RNvNtCs7X22eMfvUxK_10xdl_stdlib2ml13xdlml_dropout
FNDA:0,_RNvNtCs7X22eMfvUxK_10xdl_stdlib2ml13xdlml_reshape
FNDA:0,_RNvNtCs7X22eMfvUxK_10xdl_stdlib2ml13xdlml_shuffle
FNDA:0,_RNvNtCs7X22eMfvUxK_10xdl_stdlib2ml13xdlml_softmax
FNDA:0,_RNvNtCs7X22eMfvUxK_10xdl_stdlib2ml13xdlmlaf_isrlu
FNDA:0,_RNvNtCs7X22eMfvUxK_10xdl_stdlib2ml13xdlmlaf_prelu
FNDA:0,_RNvNtCs7X22eMfvUxK_10xdl_stdlib2ml13xdlmllf_huber
FNDA:0,_RNvNtCs7X22eMfvUxK_10xdl_stdlib2ml13xdlmlopt_adam
FNDA:0,_RNvNtCs7X22eMfvUxK_10xdl_stdlib2ml14xdlmlaf_arctan
FNDA:0,_RNvNtCs7X22eMfvUxK_10xdl_stdlib2ml15xdlml_partition
FNDA:0,_RNvNtCs7X22eMfvUxK_10xdl_stdlib2ml15xdlml_simplernn
FNDA:0,_RNvNtCs7X22eMfvUxK_10xdl_stdlib2ml15xdlml_transpose
FNDA:0,_RNvNtCs7X22eMfvUxK_10xdl_stdlib2ml15xdlmlaf_softmax
FNDA:0,_RNvNtCs7X22eMfvUxK_10xdl_stdlib2ml15xdlmllf_logcosh
FNDA:0,_RNvNtCs7X22eMfvUxK_10xdl_stdlib2ml16xdlmlaf_gaussian
FNDA:0,_RNvNtCs7X22eMfvUxK_10xdl_stdlib2ml16xdlmlaf_identity
FNDA:0,_RNvNtCs7X22eMfvUxK_10xdl_stdlib2ml16xdlmlaf_logistic
FNDA:0,_RNvNtCs7X22eMfvUxK_10xdl_stdlib2ml16xdlmlaf_sinusoid
FNDA:0,_RNvNtCs7X22eMfvUxK_10xdl_stdlib2ml16xdlmlaf_softplus
FNDA:0,_RNvNtCs7X22eMfvUxK_10xdl_stdlib2ml16xdlmlaf_softsign
FNDA:0,_RNvNtCs7X22eMfvUxK_10xdl_stdlib2ml16xdlmlopt_rmsprop
FNDA:0,_RNvNtCs7X22eMfvUxK_10xdl_stdlib2ml17xdlml_autoencoder
FNDA:0,_RNvNtCs7X22eMfvUxK_10xdl_stdlib2ml17xdlml_leaveoneout
FNDA:0,_RNvNtCs7X22eMfvUxK_10xdl_stdlib2ml17xdlmlopt_momentum
FNDA:0,_RNvNtCs7X22eMfvUxK_10xdl_stdlib2ml18xdlml_maxpooling1d
FNDA:0,_RNvNtCs7X22eMfvUxK_10xdl_stdlib2ml18xdlml_maxpooling2d
FNDA:0,_RNvNtCs7X22eMfvUxK_10xdl_stdlib2ml18xdlml_sequencemean
FNDA:0,_RNvNtCs7X22eMfvUxK_10xdl_stdlib2ml18xdlmlaf_binarystep
FNDA:0,_RNvNtCs7X22eMfvUxK_10xdl_stdlib2ml18xdlmlopt_quickprop
FNDA:0,_RNvNtCs7X22eMfvUxK_10xdl_stdlib2ml20xdlml_testclassifier
FNDA:0,_RNvNtCs7X22eMfvUxK_10xdl_stdlib2ml20xdlmlaf_bentidentity
FNDA:0,_RNvNtCs7X22eMfvUxK_10xdl_stdlib2ml20xdlmllf_crossentropy
FNDA:0,_RNvNtCs7X22eMfvUxK_10xdl_stdlib2ml21xdlml_stratifiedkfold
FNDA:0,_RNvNtCs7X22eMfvUxK_10xdl_stdlib2ml21xdlml_svmlinearkernel
FNDA:0,_RNvNtCs7X22eMfvUxK_10xdl_stdlib2ml21xdlml_svmradialkernel
FNDA:0,_RNvNtCs7X22eMfvUxK_10xdl_stdlib2ml21xdlml_tanh_normalizer
FNDA:0,_RNvNtCs7X22eMfvUxK_10xdl_stdlib2ml21xdlml_unit_normalizer
FNDA:0,_RNvNtCs7X22eMfvUxK_10xdl_stdlib2ml22xdlml_averagepooling1d
FNDA:0,_RNvNtCs7X22eMfvUxK_10xdl_stdlib2ml22xdlml_range_normalizer
FNDA:0,_RNvNtCs7X22eMfvUxK_10xdl_stdlib2ml22xdlml_svmsigmoidkernel
FNDA:0,_RNvNtCs7X22eMfvUxK_10xdl_stdlib2ml23xdlml_linear_normalizer
FNDA:0,_RNvNtCs7X22eMfvUxK_10xdl_stdlib2ml23xdlmlaf_softexponential
FNDA:0,_RNvNtCs7X22eMfvUxK_10xdl_stdlib2ml24xdlml_batchnormalization
FNDA:0,_RNvNtCs7X22eMfvUxK_10xdl_stdlib2ml24xdlmllf_meansquarederror
FNDA:0,_RNvNtCs7X22eMfvUxK_10xdl_stdlib2ml24xdlmlopt_gradientdescent
FNDA:0,_RNvNtCs7X22eMfvUxK_10xdl_stdlib2ml25xdlml_svmpolynomialkernel
FNDA:0,_RNvNtCs7X22eMfvUxK_10xdl_stdlib2ml25xdlml_variance_normalizer
FNDA:0,_RNvNtCs7X22eMfvUxK_10xdl_stdlib2ml25xdlmllf_meanabsoluteerror
FNDA:0,_RNvNtCs7X22eMfvUxK_10xdl_stdlib2ml30xdlml_feedforwardneuralnetwork
FNDA:0,_RNvNtCs7X22eMfvUxK_10xdl_stdlib2ml36xdlml_supportvectormachineregression
FNDA:0,_RNvNtCs7X22eMfvUxK_10xdl_stdlib2ml40xdlml_supportvectormachineclassification
FNDA:10,_RNCNvNtCsgiIQ3x9G6Hx_10xdl_stdlib2ml13xdlml_shuffle0B5_
FNDA:0,_RNCNvNtCsgiIQ3x9G6Hx_10xdl_stdlib2ml11xdlmlaf_elu0B5_
FNDA:0,_RNCNvNtCsgiIQ3x9G6Hx_10xdl_stdlib2ml12xdlml_kmeans0B5_
FNDA:0,_RNCNvNtCsgiIQ3x9G6Hx_10xdl_stdlib2ml12xdlmlaf_isru0B5_
FNDA:0,_RNCNvNtCsgiIQ3x9G6Hx_10xdl_stdlib2ml12xdlmlaf_relu0B5_
FNDA:0,_RNCNvNtCsgiIQ3x9G6Hx_10xdl_stdlib2ml12xdlmlaf_sinc0B5_
FNDA:0,_RNCNvNtCsgiIQ3x9G6Hx_10xdl_stdlib2ml12xdlmlaf_sincs_0B5_
FNDA:0,_RNCNvNtCsgiIQ3x9G6Hx_10xdl_stdlib2ml12xdlmlaf_tanh0B5_
FNDA:0,_RNCNvNtCsgiIQ3x9G6Hx_10xdl_stdlib2ml13xdlml_dropout0B5_
FNDA:0,_RNCNvNtCsgiIQ3x9G6Hx_10xdl_stdlib2ml13xdlml_reshape0B5_
FNDA:0,_RNCNvNtCsgiIQ3x9G6Hx_10xdl_stdlib2ml13xdlml_softmax0B5_
FNDA:0,_RNCNvNtCsgiIQ3x9G6Hx_10xdl_stdlib2ml13xdlml_softmaxs0_0B5_
FNDA:0,_RNCNvNtCsgiIQ3x9G6Hx_10xdl_stdlib2ml13xdlml_softmaxs_0B5_
FNDA:0,_RNCNvNtCsgiIQ3x9G6Hx_10xdl_stdlib2ml13xdlmlaf_isrlu0B5_
FNDA:0,_RNCNvNtCsgiIQ3x9G6Hx_10xdl_stdlib2ml13xdlmlaf_prelu0B5_
FNDA:0,_RNCNvNtCsgiIQ3x9G6Hx_10xdl_stdlib2ml13xdlmllf_huber0B5_
FNDA:0,_RNCNvNtCsgiIQ3x9G6Hx_10xdl_stdlib2ml13xdlmlopt_adam0B5_
FNDA:0,_RNCNvNtCsgiIQ3x9G6Hx_10xdl_stdlib2ml14xdlmlaf_arctan0B5_
FNDA:0,_RNCNvNtCsgiIQ3x9G6Hx_10xdl_stdlib2ml15xdlmlaf_softmax0B5_
FNDA:0,_RNCNvNtCsgiIQ3x9G6Hx_10xdl_stdlib2ml15xdlmlaf_softmaxs0_0B5_
FNDA:0,_RNCNvNtCsgiIQ3x9G6Hx_10xdl_stdlib2ml15xdlmlaf_softmaxs_0B5_
FNDA:0,_RNCNvNtCsgiIQ3x9G6Hx_10xdl_stdlib2ml15xdlmllf_logcosh0B5_
FNDA:0,_RNCNvNtCsgiIQ3x9G6Hx_10xdl_stdlib2ml16xdlmlaf_gaussian0B5_
FNDA:0,_RNCNvNtCsgiIQ3x9G6Hx_10xdl_stdlib2ml16xdlmlaf_logistic0B5_
FNDA:0,_RNCNvNtCsgiIQ3x9G6Hx_10xdl_stdlib2ml16xdlmlaf_sinusoid0B5_
FNDA:0,_RNCNvNtCsgiIQ3x9G6Hx_10xdl_stdlib2ml16xdlmlaf_softplus0B5_
FNDA:0,_RNCNvNtCsgiIQ3x9G6Hx_10xdl_stdlib2ml16xdlmlaf_softsign0B5_
FNDA:0,_RNCNvNtCsgiIQ3x9G6Hx_10xdl_stdlib2ml16xdlmlopt_rmsprop0B5_
FNDA:0,_RNCNvNtCsgiIQ3x9G6Hx_10xdl_stdlib2ml18xdlmlaf_binarystep0B5_
FNDA:0,_RNCNvNtCsgiIQ3x9G6Hx_10xdl_stdlib2ml18xdlmlopt_quickprop0B5_
FNDA:0,_RNCNvNtCsgiIQ3x9G6Hx_10xdl_stdlib2ml20xdlmlaf_bentidentity0B5_
FNDA:0,_RNCNvNtCsgiIQ3x9G6Hx_10xdl_stdlib2ml20xdlmllf_crossentropy0B5_
FNDA:0,_RNCNvNtCsgiIQ3x9G6Hx_10xdl_stdlib2ml21xdlml_svmlinearkernel0B5_
FNDA:0,_RNCNvNtCsgiIQ3x9G6Hx_10xdl_stdlib2ml21xdlml_svmradialkernel0B5_
FNDA:0,_RNCNvNtCsgiIQ3x9G6Hx_10xdl_stdlib2ml21xdlml_tanh_normalizer0B5_
FNDA:0,_RNCNvNtCsgiIQ3x9G6Hx_10xdl_stdlib2ml21xdlml_unit_normalizer0B5_
FNDA:0,_RNCNvNtCsgiIQ3x9G6Hx_10xdl_stdlib2ml21xdlml_unit_normalizers_0B5_
FNDA:0,_RNCNvNtCsgiIQ3x9G6Hx_10xdl_stdlib2ml22xdlml_range_normalizer0B5_
FNDA:0,_RNCNvNtCsgiIQ3x9G6Hx_10xdl_stdlib2ml22xdlml_range_normalizers0_0B5_
FNDA:0,_RNCNvNtCsgiIQ3x9G6Hx_10xdl_stdlib2ml22xdlml_range_normalizers_0B5_
FNDA:0,_RNCNvNtCsgiIQ3x9G6Hx_10xdl_stdlib2ml22xdlml_svmsigmoidkernel0B5_
FNDA:0,_RNCNvNtCsgiIQ3x9G6Hx_10xdl_stdlib2ml23xdlml_linear_normalizer0B5_
FNDA:0,_RNCNvNtCsgiIQ3x9G6Hx_10xdl_stdlib2ml23xdlmlaf_softexponential0B5_
FNDA:0,_RNCNvNtCsgiIQ3x9G6Hx_10xdl_stdlib2ml23xdlmlaf_softexponentials_0B5_
FNDA:0,_RNCNvNtCsgiIQ3x9G6Hx_10xdl_stdlib2ml24xdlml_batchnormalization0B5_
FNDA:0,_RNCNvNtCsgiIQ3x9G6Hx_10xdl_stdlib2ml24xdlml_batchnormalizations_0B5_
FNDA:0,_RNCNvNtCsgiIQ3x9G6Hx_10xdl_stdlib2ml24xdlmllf_meansquarederror0B5_
FNDA:0,_RNCNvNtCsgiIQ3x9G6Hx_10xdl_stdlib2ml24xdlmlopt_gradientdescent0B5_
FNDA:0,_RNCNvNtCsgiIQ3x9G6Hx_10xdl_stdlib2ml25xdlml_svmpolynomialkernel0B5_
FNDA:0,_RNCNvNtCsgiIQ3x9G6Hx_10xdl_stdlib2ml25xdlml_variance_normalizer0B5_
FNDA:0,_RNCNvNtCsgiIQ3x9G6Hx_10xdl_stdlib2ml25xdlml_variance_normalizers_0B5_
FNDA:0,_RNCNvNtCsgiIQ3x9G6Hx_10xdl_stdlib2ml25xdlmllf_meanabsoluteerror0B5_
FNDA:0,_RNCNvNtCsgiIQ3x9G6Hx_10xdl_stdlib2ml30xdlml_feedforwardneuralnetwork0B5_
FNDA:0,_RNCNvNtCsgiIQ3x9G6Hx_10xdl_stdlib2ml30xdlml_feedforwardneuralnetworks0_0B5_
FNDA:0,_RNCNvNtCsgiIQ3x9G6Hx_10xdl_stdlib2ml30xdlml_feedforwardneuralnetworks_0B5_
FNDA:0,_RNCNvNtCsgiIQ3x9G6Hx_10xdl_stdlib2ml40xdlml_supportvectormachineclassification0B5_
FNDA:0,_RNvNtCsgiIQ3x9G6Hx_10xdl_stdlib2ml10xdlml_lstm
FNDA:0,_RNvNtCsgiIQ3x9G6Hx_10xdl_stdlib2ml11xdlml_kfold
FNDA:0,_RNvNtCsgiIQ3x9G6Hx_10xdl_stdlib2ml11xdlmlaf_elu
FNDA:0,_RNvNtCsgiIQ3x9G6Hx_10xdl_stdlib2ml12xdlml_conv1d
FNDA:0,_RNvNtCsgiIQ3x9G6Hx_10xdl_stdlib2ml12xdlml_conv2d
FNDA:0,_RNvNtCsgiIQ3x9G6Hx_10xdl_stdlib2ml12xdlml_kmeans
FNDA:0,_RNvNtCsgiIQ3x9G6Hx_10xdl_stdlib2ml12xdlml_matmul
FNDA:0,_RNvNtCsgiIQ3x9G6Hx_10xdl_stdlib2ml12xdlmlaf_isru
FNDA:0,_RNvNtCsgiIQ3x9G6Hx_10xdl_stdlib2ml12xdlmlaf_relu
FNDA:0,_RNvNtCsgiIQ3x9G6Hx_10xdl_stdlib2ml12xdlmlaf_sinc
FNDA:0,_RNvNtCsgiIQ3x9G6Hx_10xdl_stdlib2ml12xdlmlaf_tanh
FNDA:0,_RNvNtCsgiIQ3x9G6Hx_10xdl_stdlib2ml13xdlml_dropout
FNDA:0,_RNvNtCsgiIQ3x9G6Hx_10xdl_stdlib2ml13xdlml_reshape
FNDA:0,_RNvNtCsgiIQ3x9G6Hx_10xdl_stdlib2ml13xdlml_softmax
FNDA:0,_RNvNtCsgiIQ3x9G6Hx_10xdl_stdlib2ml13xdlmlaf_isrlu
FNDA:0,_RNvNtCsgiIQ3x9G6Hx_10xdl_stdlib2ml13xdlmlaf_prelu
FNDA:0,_RNvNtCsgiIQ3x9G6Hx_10xdl_stdlib2ml13xdlmllf_huber
FNDA:0,_RNvNtCsgiIQ3x9G6Hx_10xdl_stdlib2ml13xdlmlopt_adam
FNDA:0,_RNvNtCsgiIQ3x9G6Hx_10xdl_stdlib2ml14xdlmlaf_arctan
FNDA:0,_RNvNtCsgiIQ3x9G6Hx_10xdl_stdlib2ml15xdlml_simplernn
FNDA:0,_RNvNtCsgiIQ3x9G6Hx_10xdl_stdlib2ml15xdlml_transpose
FNDA:0,_RNvNtCsgiIQ3x9G6Hx_10xdl_stdlib2ml15xdlmlaf_softmax
FNDA:0,_RNvNtCsgiIQ3x9G6Hx_10xdl_stdlib2ml15xdlmllf_logcosh
FNDA:0,_RNvNtCsgiIQ3x9G6Hx_10xdl_stdlib2ml16xdlmlaf_gaussian
FNDA:0,_RNvNtCsgiIQ3x9G6Hx_10xdl_stdlib2ml16xdlmlaf_identity
FNDA:0,_RNvNtCsgiIQ3x9G6Hx_10xdl_stdlib2ml16xdlmlaf_logistic
FNDA:0,_RNvNtCsgiIQ3x9G6Hx_10xdl_stdlib2ml16xdlmlaf_sinusoid
FNDA:0,_RNvNtCsgiIQ3x9G6Hx_10xdl_stdlib2ml16xdlmlaf_softplus
FNDA:0,_RNvNtCsgiIQ3x9G6Hx_10xdl_stdlib2ml16xdlmlaf_softsign
FNDA:0,_RNvNtCsgiIQ3x9G6Hx_10xdl_stdlib2ml16xdlmlopt_rmsprop
FNDA:0,_RNvNtCsgiIQ3x9G6Hx_10xdl_stdlib2ml17xdlml_autoencoder
FNDA:0,_RNvNtCsgiIQ3x9G6Hx_10xdl_stdlib2ml17xdlml_leaveoneout
FNDA:0,_RNvNtCsgiIQ3x9G6Hx_10xdl_stdlib2ml17xdlmlopt_momentum
FNDA:0,_RNvNtCsgiIQ3x9G6Hx_10xdl_stdlib2ml18xdlml_maxpooling1d
FNDA:0,_RNvNtCsgiIQ3x9G6Hx_10xdl_stdlib2ml18xdlml_maxpooling2d
FNDA:0,_RNvNtCsgiIQ3x9G6Hx_10xdl_stdlib2ml18xdlml_sequencemean
FNDA:0,_RNvNtCsgiIQ3x9G6Hx_10xdl_stdlib2ml18xdlmlaf_binarystep
FNDA:0,_RNvNtCsgiIQ3x9G6Hx_10xdl_stdlib2ml18xdlmlopt_quickprop
FNDA:0,_RNvNtCsgiIQ3x9G6Hx_10xdl_stdlib2ml20xdlml_testclassifier
FNDA:0,_RNvNtCsgiIQ3x9G6Hx_10xdl_stdlib2ml20xdlmlaf_bentidentity
FNDA:0,_RNvNtCsgiIQ3x9G6Hx_10xdl_stdlib2ml20xdlmllf_crossentropy
FNDA:0,_RNvNtCsgiIQ3x9G6Hx_10xdl_stdlib2ml21xdlml_stratifiedkfold
FNDA:0,_RNvNtCsgiIQ3x9G6Hx_10xdl_stdlib2ml21xdlml_svmlinearkernel
FNDA:0,_RNvNtCsgiIQ3x9G6Hx_10xdl_stdlib2ml21xdlml_svmradialkernel
FNDA:0,_RNvNtCsgiIQ3x9G6Hx_10xdl_stdlib2ml21xdlml_tanh_normalizer
FNDA:0,_RNvNtCsgiIQ3x9G6Hx_10xdl_stdlib2ml21xdlml_unit_normalizer
FNDA:0,_RNvNtCsgiIQ3x9G6Hx_10xdl_stdlib2ml22xdlml_averagepooling1d
FNDA:0,_RNvNtCsgiIQ3x9G6Hx_10xdl_stdlib2ml22xdlml_range_normalizer
FNDA:0,_RNvNtCsgiIQ3x9G6Hx_10xdl_stdlib2ml22xdlml_svmsigmoidkernel
FNDA:0,_RNvNtCsgiIQ3x9G6Hx_10xdl_stdlib2ml23xdlml_linear_normalizer
FNDA:0,_RNvNtCsgiIQ3x9G6Hx_10xdl_stdlib2ml23xdlmlaf_softexponential
FNDA:0,_RNvNtCsgiIQ3x9G6Hx_10xdl_stdlib2ml24xdlml_batchnormalization
FNDA:0,_RNvNtCsgiIQ3x9G6Hx_10xdl_stdlib2ml24xdlmllf_meansquarederror
FNDA:0,_RNvNtCsgiIQ3x9G6Hx_10xdl_stdlib2ml24xdlmlopt_gradientdescent
FNDA:0,_RNvNtCsgiIQ3x9G6Hx_10xdl_stdlib2ml25xdlml_svmpolynomialkernel
FNDA:0,_RNvNtCsgiIQ3x9G6Hx_10xdl_stdlib2ml25xdlml_variance_normalizer
FNDA:0,_RNvNtCsgiIQ3x9G6Hx_10xdl_stdlib2ml25xdlmllf_meanabsoluteerror
FNDA:0,_RNvNtCsgiIQ3x9G6Hx_10xdl_stdlib2ml30xdlml_feedforwardneuralnetwork
FNDA:0,_RNvNtCsgiIQ3x9G6Hx_10xdl_stdlib2ml36xdlml_supportvectormachineregression
FNDA:0,_RNvNtCsgiIQ3x9G6Hx_10xdl_stdlib2ml40xdlml_supportvectormachineclassification
FNDA:1,_RNvNtCsgiIQ3x9G6Hx_10xdl_stdlib2ml13xdlml_shuffle
FNDA:1,_RNvNtCsgiIQ3x9G6Hx_10xdl_stdlib2ml15xdlml_partition
FNDA:1,_RNvNtNtCsgiIQ3x9G6Hx_10xdl_stdlib2ml5testss_12test_shuffle
FNDA:1,_RNvNtNtCsgiIQ3x9G6Hx_10xdl_stdlib2ml5testss_14test_partition
FNDA:29,_RNCNvNtNtCsgiIQ3x9G6Hx_10xdl_stdlib2ml5testss_12test_shuffle0B7_
FNDA:100,_RNCNvNtNtCsgiIQ3x9G6Hx_10xdl_stdlib2ml5testss_14test_partition0B7_
FNF:122
FNH:7
DA:20,1
DA:21,1
DA:22,0
DA:23,0
DA:24,0
DA:25,1
DA:28,1
DA:29,1
DA:30,0
DA:32,0
DA:33,0
DA:34,0
DA:35,0
DA:40,1
DA:41,1
DA:42,1
DA:43,0
DA:44,0
DA:47,0
DA:50,1
DA:51,0
DA:52,0
DA:53,0
DA:54,1
DA:56,1
DA:59,1
DA:60,20
DA:61,20
DA:62,20
DA:64,1
DA:65,1
DA:81,1
DA:82,1
DA:83,0
DA:84,0
DA:85,0
DA:86,1
DA:89,1
DA:90,1
DA:91,0
DA:93,0
DA:94,0
DA:95,0
DA:96,0
DA:101,1
DA:102,1
DA:103,1
DA:104,0
DA:105,0
DA:110,0
DA:111,0
DA:112,0
DA:113,0
DA:117,10
DA:120,1
DA:121,9
DA:122,9
DA:123,9
DA:124,9
DA:125,9
DA:126,9
DA:128,1
DA:129,1
DA:145,0
DA:146,0
DA:147,0
DA:148,0
DA:149,0
DA:150,0
DA:152,0
DA:153,0
DA:155,0
DA:156,0
DA:157,0
DA:158,0
DA:162,0
DA:163,0
DA:164,0
DA:165,0
DA:166,0
DA:169,0
DA:172,0
DA:173,0
DA:174,0
DA:175,0
DA:176,0
DA:179,0
DA:182,0
DA:184,0
DA:185,0
DA:200,0
DA:201,0
DA:202,0
DA:203,0
DA:204,0
DA:205,0
DA:207,0
DA:208,0
DA:210,0
DA:211,0
DA:212,0
DA:213,0
DA:217,0
DA:218,0
DA:219,0
DA:221,0
DA:222,0
DA:223,0
DA:225,0
DA:227,0
DA:228,0
DA:230,0
DA:232,0
DA:233,0
DA:248,0
DA:249,0
DA:250,0
DA:251,0
DA:252,0
DA:253,0
DA:255,0
DA:256,0
DA:258,0
DA:259,0
DA:260,0
DA:261,0
DA:265,0
DA:266,0
DA:267,0
DA:270,0
DA:271,0
DA:274,0
DA:275,0
DA:277,0
DA:279,0
DA:280,0
DA:282,0
DA:284,0
DA:285,0
DA:300,0
DA:301,0
DA:302,0
DA:303,0
DA:304,0
DA:305,0
DA:307,0
DA:308,0
DA:310,0
DA:311,0
DA:312,0
DA:313,0
DA:317,0
DA:319,0
DA:320,0
DA:335,0
DA:336,0
DA:337,0
DA:338,0
DA:339,0
DA:340,0
DA:342,0
DA:343,0
DA:345,0
DA:346,0
DA:347,0
DA:348,0
DA:352,0
DA:353,0
DA:354,0
DA:357,0
DA:359,0
DA:361,0
DA:362,0
DA:364,0
DA:366,0
DA:367,0
DA:391,0
DA:392,0
DA:393,0
DA:394,0
DA:395,0
DA:396,0
DA:399,0
DA:400,0
DA:402,0
DA:403,0
DA:404,0
DA:405,0
DA:409,0
DA:410,0
DA:411,0
DA:412,0
DA:413,0
DA:416,0
DA:417,0
DA:418,0
DA:420,0
DA:421,0
DA:422,0
DA:423,0
DA:427,0
DA:428,0
DA:429,0
DA:430,0
DA:431,0
DA:432,0
DA:435,0
DA:436,0
DA:437,0
DA:438,0
DA:439,0
DA:442,0
DA:446,0
DA:447,0
DA:448,0
DA:449,0
DA:452,0
DA:453,0
DA:454,0
DA:455,0
DA:460,0
DA:461,0
DA:462,0
DA:463,0
DA:467,0
DA:468,0
DA:471,0
DA:472,0
DA:475,0
DA:476,0
DA:477,0
DA:478,0
DA:479,0
DA:482,0
DA:483,0
DA:486,0
DA:488,0
DA:489,0
DA:490,0
DA:491,0
DA:492,0
DA:494,0
DA:495,0
DA:496,0
DA:497,0
DA:498,0
DA:499,0
DA:502,0
DA:503,0
DA:504,0
DA:505,0
DA:509,0
DA:510,0
DA:511,0
DA:512,0
DA:515,0
DA:516,0
DA:518,0
DA:519,0
DA:520,0
DA:521,0
DA:522,0
DA:525,0
DA:526,0
DA:527,0
DA:528,0
DA:534,0
DA:536,0
DA:537,0
DA:544,0
DA:545,0
DA:546,0
DA:547,0
DA:548,0
DA:549,0
DA:550,0
DA:551,0
DA:554,0
DA:555,0
DA:556,0
DA:557,0
DA:558,0
DA:559,0
DA:561,0
DA:562,0
DA:563,0
DA:564,0
DA:565,0
DA:566,0
DA:567,0
DA:569,0
DA:570,0
DA:571,0
DA:572,0
DA:573,0
DA:574,0
DA:576,0
DA:579,0
DA:580,0
DA:581,0
DA:582,0
DA:583,0
DA:584,0
DA:586,0
DA:587,0
DA:588,0
DA:589,0
DA:591,0
DA:592,0
DA:593,0
DA:594,0
DA:595,0
DA:596,0
DA:598,0
DA:601,0
DA:602,0
DA:603,0
DA:604,0
DA:605,0
DA:606,0
DA:608,0
DA:609,0
DA:610,0
DA:611,0
DA:613,0
DA:614,0
DA:615,0
DA:616,0
DA:617,0
DA:618,0
DA:620,0
DA:623,0
DA:624,0
DA:625,0
DA:626,0
DA:627,0
DA:628,0
DA:630,0
DA:631,0
DA:632,0
DA:633,0
DA:635,0
DA:636,0
DA:637,0
DA:638,0
DA:639,0
DA:640,0
DA:642,0
DA:645,0
DA:646,0
DA:647,0
DA:648,0
DA:649,0
DA:650,0
DA:652,0
DA:653,0
DA:654,0
DA:655,0
DA:658,0
DA:659,0
DA:660,0
DA:661,0
DA:662,0
DA:663,0
DA:664,0
DA:666,0
DA:667,0
DA:668,0
DA:670,0
DA:672,0
DA:673,0
DA:674,0
DA:675,0
DA:677,0
DA:680,0
DA:681,0
DA:682,0
DA:683,0
DA:684,0
DA:685,0
DA:687,0
DA:688,0
DA:689,0
DA:690,0
DA:691,0
DA:694,0
DA:697,0
DA:698,0
DA:699,0
DA:700,0
DA:701,0
DA:702,0
DA:703,0
DA:705,0
DA:706,0
DA:708,0
DA:710,0
DA:711,0
DA:713,0
DA:715,0
DA:716,0
DA:717,0
DA:718,0
DA:720,0
DA:723,0
DA:724,0
DA:725,0
DA:726,0
DA:727,0
DA:728,0
DA:730,0
DA:731,0
DA:732,0
DA:733,0
DA:735,0
DA:736,0
DA:737,0
DA:738,0
DA:739,0
DA:740,0
DA:742,0
DA:745,0
DA:746,0
DA:747,0
DA:748,0
DA:749,0
DA:750,0
DA:752,0
DA:753,0
DA:754,0
DA:755,0
DA:757,0
DA:758,0
DA:759,0
DA:760,0
DA:761,0
DA:762,0
DA:764,0
DA:767,0
DA:768,0
DA:769,0
DA:770,0
DA:771,0
DA:772,0
DA:774,0
DA:775,0
DA:776,0
DA:777,0
DA:778,0
DA:781,0
DA:782,0
DA:783,0
DA:785,0
DA:786,0
DA:788,0
DA:789,0
DA:790,0
DA:791,0
DA:793,0
DA:796,0
DA:797,0
DA:798,0
DA:799,0
DA:800,0
DA:801,0
DA:803,0
DA:804,0
DA:805,0
DA:806,0
DA:808,0
DA:809,0
DA:810,0
DA:811,0
DA:812,0
DA:813,0
DA:815,0
DA:818,0
DA:819,0
DA:820,0
DA:821,0
DA:822,0
DA:823,0
DA:825,0
DA:826,0
DA:827,0
DA:828,0
DA:830,0
DA:831,0
DA:832,0
DA:833,0
DA:834,0
DA:835,0
DA:837,0
DA:840,0
DA:841,0
DA:842,0
DA:843,0
DA:844,0
DA:845,0
DA:847,0
DA:848,0
DA:849,0
DA:851,0
DA:853,0
DA:855,0
DA:856,0
DA:857,0
DA:858,0
DA:860,0
DA:861,0
DA:862,0
DA:863,0
DA:864,0
DA:865,0
DA:867,0
DA:870,0
DA:871,0
DA:872,0
DA:873,0
DA:874,0
DA:875,0
DA:877,0
DA:878,0
DA:879,0
DA:880,0
DA:882,0
DA:883,0
DA:884,0
DA:885,0
DA:886,0
DA:887,0
DA:889,0
DA:892,0
DA:893,0
DA:894,0
DA:895,0
DA:896,0
DA:897,0
DA:899,0
DA:900,0
DA:901,0
DA:902,0
DA:903,0
DA:904,0
DA:905,0
DA:907,0
DA:908,0
DA:909,0
DA:910,0
DA:911,0
DA:912,0
DA:914,0
DA:915,0
DA:916,0
DA:917,0
DA:919,0
DA:922,0
DA:923,0
DA:924,0
DA:925,0
DA:926,0
DA:927,0
DA:929,0
DA:930,0
DA:931,0
DA:932,0
DA:933,0
DA:936,0
DA:939,0
DA:940,0
DA:941,0
DA:942,0
DA:943,0
DA:944,0
DA:945,0
DA:947,0
DA:948,0
DA:949,0
DA:950,0
DA:951,0
DA:952,0
DA:953,0
DA:954,0
DA:956,0
DA:959,0
DA:960,0
DA:961,0
DA:962,0
DA:963,0
DA:964,0
DA:966,0
DA:967,0
DA:968,0
DA:969,0
DA:970,0
DA:973,0
DA:976,0
DA:977,0
DA:978,0
DA:979,0
DA:980,0
DA:981,0
DA:982,0
DA:984,0
DA:986,0
DA:987,0
DA:988,0
DA:990,0
DA:991,0
DA:993,0
DA:995,0
DA:996,0
DA:998,0
DA:1000,0
DA:1001,0
DA:1002,0
DA:1003,0
DA:1005,0
DA:1008,0
DA:1009,0
DA:1010,0
DA:1011,0
DA:1012,0
DA:1013,0
DA:1015,0
DA:1016,0
DA:1017,0
DA:1018,0
DA:1021,0
DA:1022,0
DA:1023,0
DA:1024,0
DA:1025,0
DA:1027,0
DA:1029,0
DA:1031,0
DA:1032,0
DA:1033,0
DA:1034,0
DA:1036,0
DA:1037,0
DA:1038,0
DA:1039,0
DA:1040,0
DA:1041,0
DA:1043,0
DA:1050,0
DA:1051,0
DA:1052,0
DA:1053,0
DA:1054,0
DA:1055,0
DA:1057,0
DA:1058,0
DA:1060,0
DA:1061,0
DA:1062,0
DA:1063,0
DA:1067,0
DA:1068,0
DA:1070,0
DA:1071,0
DA:1072,0
DA:1073,0
DA:1077,0
DA:1078,0
DA:1079,0
DA:1080,0
DA:1081,0
DA:1083,0
DA:1084,0
DA:1085,0
DA:1086,0
DA:1087,0
DA:1088,0
DA:1090,0
DA:1091,0
DA:1094,0
DA:1095,0
DA:1096,0
DA:1097,0
DA:1098,0
DA:1099,0
DA:1101,0
DA:1102,0
DA:1104,0
DA:1105,0
DA:1106,0
DA:1107,0
DA:1111,0
DA:1112,0
DA:1114,0
DA:1115,0
DA:1116,0
DA:1117,0
DA:1121,0
DA:1122,0
DA:1123,0
DA:1124,0
DA:1125,0
DA:1127,0
DA:1128,0
DA:1129,0
DA:1130,0
DA:1131,0
DA:1132,0
DA:1134,0
DA:1135,0
DA:1138,0
DA:1139,0
DA:1140,0
DA:1141,0
DA:1142,0
DA:1143,0
DA:1145,0
DA:1146,0
DA:1148,0
DA:1149,0
DA:1150,0
DA:1151,0
DA:1155,0
DA:1156,0
DA:1158,0
DA:1159,0
DA:1160,0
DA:1161,0
DA:1165,0
DA:1166,0
DA:1167,0
DA:1168,0
DA:1169,0
DA:1172,0
DA:1173,0
DA:1174,0
DA:1175,0
DA:1176,0
DA:1177,0
DA:1178,0
DA:1180,0
DA:1181,0
DA:1186,0
DA:1187,0
DA:1188,0
DA:1189,0
DA:1190,0
DA:1191,0
DA:1193,0
DA:1194,0
DA:1196,0
DA:1197,0
DA:1198,0
DA:1199,0
DA:1203,0
DA:1204,0
DA:1206,0
DA:1207,0
DA:1208,0
DA:1209,0
DA:1214,0
DA:1215,0
DA:1216,0
DA:1217,0
DA:1218,0
DA:1221,0
DA:1224,0
DA:1225,0
DA:1226,0
DA:1227,0
DA:1228,0
DA:1230,0
DA:1231,0
DA:1232,0
DA:1233,0
DA:1234,0
DA:1235,0
DA:1236,0
DA:1238,0
DA:1240,0
DA:1241,0
DA:1242,0
DA:1244,0
DA:1245,0
DA:1249,0
DA:1250,0
DA:1251,0
DA:1252,0
DA:1253,0
DA:1254,0
DA:1256,0
DA:1257,0
DA:1259,0
DA:1260,0
DA:1261,0
DA:1262,0
DA:1266,0
DA:1267,0
DA:1269,0
DA:1270,0
DA:1271,0
DA:1272,0
DA:1276,0
DA:1277,0
DA:1278,0
DA:1279,0
DA:1280,0
DA:1282,0
DA:1283,0
DA:1284,0
DA:1285,0
DA:1286,0
DA:1287,0
DA:1289,0
DA:1290,0
DA:1307,0
DA:1308,0
DA:1309,0
DA:1310,0
DA:1311,0
DA:1312,0
DA:1313,0
DA:1315,0
DA:1316,0
DA:1318,0
DA:1319,0
DA:1320,0
DA:1321,0
DA:1325,0
DA:1326,0
DA:1328,0
DA:1329,0
DA:1330,0
DA:1331,0
DA:1335,0
DA:1336,0
DA:1337,0
DA:1338,0
DA:1339,0
DA:1342,0
DA:1345,0
DA:1346,0
DA:1347,0
DA:1348,0
DA:1349,0
DA:1351,0
DA:1352,0
DA:1353,0
DA:1354,0
DA:1355,0
DA:1357,0
DA:1358,0
DA:1375,0
DA:1376,0
DA:1377,0
DA:1378,0
DA:1379,0
DA:1380,0
DA:1381,0
DA:1383,0
DA:1384,0
DA:1386,0
DA:1387,0
DA:1388,0
DA:1389,0
DA:1393,0
DA:1394,0
DA:1396,0
DA:1397,0
DA:1398,0
DA:1399,0
DA:1403,0
DA:1404,0
DA:1406,0
DA:1407,0
DA:1408,0
DA:1409,0
DA:1413,0
DA:1414,0
DA:1415,0
DA:1416,0
DA:1417,0
DA:1420,0
DA:1423,0
DA:1424,0
DA:1425,0
DA:1426,0
DA:1427,0
DA:1430,0
DA:1433,0
DA:1434,0
DA:1435,0
DA:1436,0
DA:1437,0
DA:1439,0
DA:1440,0
DA:1442,0
DA:1443,0
DA:1444,0
DA:1445,0
DA:1446,0
DA:1450,0
DA:1451,0
DA:1469,0
DA:1470,0
DA:1471,0
DA:1472,0
DA:1473,0
DA:1474,0
DA:1475,0
DA:1477,0
DA:1478,0
DA:1480,0
DA:1481,0
DA:1482,0
DA:1483,0
DA:1487,0
DA:1488,0
DA:1490,0
DA:1491,0
DA:1492,0
DA:1493,0
DA:1497,0
DA:1498,0
DA:1500,0
DA:1501,0
DA:1502,0
DA:1503,0
DA:1507,0
DA:1508,0
DA:1509,0
DA:1510,0
DA:1511,0
DA:1514,0
DA:1517,0
DA:1518,0
DA:1519,0
DA:1520,0
DA:1521,0
DA:1524,0
DA:1527,0
DA:1528,0
DA:1529,0
DA:1530,0
DA:1531,0
DA:1534,0
DA:1537,0
DA:1538,0
DA:1539,0
DA:1540,0
DA:1541,0
DA:1543,0
DA:1544,0
DA:1545,0
DA:1546,0
DA:1547,0
DA:1548,0
DA:1549,0
DA:1550,0
DA:1551,0
DA:1553,0
DA:1554,0
DA:1578,0
DA:1579,0
DA:1580,0
DA:1581,0
DA:1582,0
DA:1583,0
DA:1585,0
DA:1586,0
DA:1588,0
DA:1589,0
DA:1590,0
DA:1591,0
DA:1595,0
DA:1596,0
DA:1598,0
DA:1599,0
DA:1600,0
DA:1601,0
DA:1605,0
DA:1606,0
DA:1608,0
DA:1609,0
DA:1610,0
DA:1611,0
DA:1615,0
DA:1616,0
DA:1618,0
DA:1619,0
DA:1620,0
DA:1621,0
DA:1625,0
DA:1626,0
DA:1627,0
DA:1628,0
DA:1630,0
DA:1631,0
DA:1632,0
DA:1633,0
DA:1637,0
DA:1638,0
DA:1639,0
DA:1640,0
DA:1641,0
DA:1644,0
DA:1647,0
DA:1648,0
DA:1649,0
DA:1650,0
DA:1651,0
DA:1654,0
DA:1657,0
DA:1658,0
DA:1659,0
DA:1660,0
DA:1661,0
DA:1664,0
DA:1667,0
DA:1668,0
DA:1669,0
DA:1670,0
DA:1671,0
DA:1674,0
DA:1677,0
DA:1678,0
DA:1679,0
DA:1680,0
DA:1681,0
DA:1684,0
DA:1685,0
DA:1687,0
DA:1688,0
DA:1689,0
DA:1690,0
DA:1691,0
DA:1692,0
DA:1694,0
DA:1696,0
DA:1698,0
DA:1699,0
DA:1701,0
DA:1702,0
DA:1703,0
DA:1705,0
DA:1706,0
DA:1723,0
DA:1724,0
DA:1725,0
DA:1726,0
DA:1727,0
DA:1728,0
DA:1729,0
DA:1731,0
DA:1732,0
DA:1734,0
DA:1735,0
DA:1736,0
DA:1737,0
DA:1741,0
DA:1742,0
DA:1744,0
DA:1745,0
DA:1746,0
DA:1747,0
DA:1751,0
DA:1752,0
DA:1754,0
DA:1755,0
DA:1756,0
DA:1757,0
DA:1761,0
DA:1762,0
DA:1764,0
DA:1765,0
DA:1766,0
DA:1767,0
DA:1771,0
DA:1772,0
DA:1773,0
DA:1774,0
DA:1775,0
DA:1778,0
DA:1781,0
DA:1782,0
DA:1783,0
DA:1784,0
DA:1785,0
DA:1788,0
DA:1791,0
DA:1792,0
DA:1793,0
DA:1795,0
DA:1796,0
DA:1797,0
DA:1798,0
DA:1800,0
DA:1801,0
DA:1802,0
DA:1803,0
DA:1804,0
DA:1805,0
DA:1806,0
DA:1808,0
DA:1810,0
DA:1813,0
DA:1815,0
DA:1816,0
DA:1817,0
DA:1819,0
DA:1820,0
DA:1836,0
DA:1837,0
DA:1838,0
DA:1839,0
DA:1840,0
DA:1841,0
DA:1843,0
DA:1844,0
DA:1846,0
DA:1847,0
DA:1848,0
DA:1849,0
DA:1853,0
DA:1854,0
DA:1856,0
DA:1857,0
DA:1858,0
DA:1859,0
DA:1863,0
DA:1864,0
DA:1865,0
DA:1866,0
DA:1867,0
DA:1869,0
DA:1871,0
DA:1872,0
DA:1885,0
DA:1886,0
DA:1887,0
DA:1888,0
DA:1889,0
DA:1890,0
DA:1892,0
DA:1893,0
DA:1895,0
DA:1896,0
DA:1897,0
DA:1898,0
DA:1902,0
DA:1903,0
DA:1905,0
DA:1906,0
DA:1907,0
DA:1908,0
DA:1912,0
DA:1913,0
DA:1914,0
DA:1915,0
DA:1916,0
DA:1919,0
DA:1922,0
DA:1923,0
DA:1924,0
DA:1925,0
DA:1926,0
DA:1929,0
DA:1932,0
DA:1933,0
DA:1934,0
DA:1935,0
DA:1936,0
DA:1939,0
DA:1942,0
DA:1943,0
DA:1944,0
DA:1945,0
DA:1946,0
DA:1948,0
DA:1949,0
DA:1951,0
DA:1952,0
DA:1963,0
DA:1964,0
DA:1965,0
DA:1966,0
DA:1967,0
DA:1968,0
DA:1970,0
DA:1971,0
DA:1973,0
DA:1974,0
DA:1975,0
DA:1976,0
DA:1980,0
DA:1981,0
DA:1983,0
DA:1984,0
DA:1985,0
DA:1986,0
DA:1990,0
DA:1991,0
DA:1992,0
DA:1993,0
DA:1994,0
DA:1997,0
DA:2000,0
DA:2001,0
DA:2002,0
DA:2003,0
DA:2004,0
DA:2007,0
DA:2008,0
DA:2009,0
DA:2010,0
DA:2011,0
DA:2013,0
DA:2015,0
DA:2016,0
DA:2028,0
DA:2029,0
DA:2030,0
DA:2031,0
DA:2032,0
DA:2033,0
DA:2035,0
DA:2036,0
DA:2038,0
DA:2039,0
DA:2040,0
DA:2041,0
DA:2045,0
DA:2046,0
DA:2048,0
DA:2049,0
DA:2050,0
DA:2051,0
DA:2055,0
DA:2056,0
DA:2057,0
DA:2058,0
DA:2059,0
DA:2062,0
DA:2065,0
DA:2066,0
DA:2067,0
DA:2068,0
DA:2069,0
DA:2072,0
DA:2075,0
DA:2076,0
DA:2077,0
DA:2078,0
DA:2079,0
DA:2081,0
DA:2082,0
DA:2084,0
DA:2085,0
DA:2107,0
DA:2108,0
DA:2109,0
DA:2110,0
DA:2111,0
DA:2112,0
DA:2114,0
DA:2115,0
DA:2117,0
DA:2118,0
DA:2119,0
DA:2120,0
DA:2124,0
DA:2125,0
DA:2127,0
DA:2128,0
DA:2129,0
DA:2130,0
DA:2134,0
DA:2135,0
DA:2136,0
DA:2137,0
DA:2138,0
DA:2140,0
DA:2141,0
DA:2142,0
DA:2143,0
DA:2144,0
DA:2148,0
DA:2149,0
DA:2150,0
DA:2151,0
DA:2153,0
DA:2154,0
DA:2155,0
DA:2157,0
DA:2158,0
DA:2159,0
DA:2160,0
DA:2161,0
DA:2162,0
DA:2163,0
DA:2164,0
DA:2165,0
DA:2168,0
DA:2171,0
DA:2173,0
DA:2175,0
DA:2176,0
DA:2178,0
DA:2181,0
DA:2182,0
DA:2184,0
DA:2188,0
DA:2190,0
DA:2191,0
DA:2222,0
DA:2223,0
DA:2224,0
DA:2225,0
DA:2226,0
DA:2227,0
DA:2228,0
DA:2231,0
DA:2232,0
DA:2234,0
DA:2235,0
DA:2236,0
DA:2237,0
DA:2241,0
DA:2242,0
DA:2244,0
DA:2245,0
DA:2246,0
DA:2247,0
DA:2251,0
DA:2252,0
DA:2253,0
DA:2255,0
DA:2256,0
DA:2257,0
DA:2258,0
DA:2262,0
DA:2263,0
DA:2264,0
DA:2265,0
DA:2266,0
DA:2269,0
DA:2272,0
DA:2273,0
DA:2274,0
DA:2275,0
DA:2276,0
DA:2279,0
DA:2282,0
DA:2283,0
DA:2284,0
DA:2285,0
DA:2286,0
DA:2289,0
DA:2292,0
DA:2293,0
DA:2294,0
DA:2295,0
DA:2298,0
DA:2299,0
DA:2300,0
DA:2301,0
DA:2306,0
DA:2307,0
DA:2308,0
DA:2309,0
DA:2314,0
DA:2315,0
DA:2317,0
DA:2318,0
DA:2319,0
DA:2320,0
DA:2321,0
DA:2325,0
DA:2326,0
DA:2329,0
DA:2330,0
DA:2331,0
DA:2332,0
DA:2333,0
DA:2336,0
DA:2338,0
DA:2340,0
DA:2341,0
DA:2342,0
DA:2344,0
DA:2345,0
DA:2346,0
DA:2349,0
DA:2350,0
DA:2351,0
DA:2352,0
DA:2355,0
DA:2356,0
DA:2357,0
DA:2358,0
DA:2362,0
DA:2363,0
DA:2364,0
DA:2365,0
DA:2370,0
DA:2371,0
DA:2372,0
DA:2375,0
DA:2376,0
DA:2377,0
DA:2381,0
DA:2382,0
DA:2411,0
DA:2412,0
DA:2413,0
DA:2414,0
DA:2415,0
DA:2416,0
DA:2417,0
DA:2419,0
DA:2420,0
DA:2422,0
DA:2423,0
DA:2424,0
DA:2425,0
DA:2429,0
DA:2430,0
DA:2432,0
DA:2433,0
DA:2434,0
DA:2435,0
DA:2439,0
DA:2440,0
DA:2441,0
DA:2442,0
DA:2445,0
DA:2446,0
DA:2447,0
DA:2448,0
DA:2451,0
DA:2452,0
DA:2453,0
DA:2454,0
DA:2455,0
DA:2458,0
DA:2461,0
DA:2462,0
DA:2463,0
DA:2464,0
DA:2465,0
DA:2468,0
DA:2471,0
DA:2472,0
DA:2473,0
DA:2474,0
DA:2475,0
DA:2478,0
DA:2481,0
DA:2482,0
DA:2484,0
DA:2485,0
DA:2486,0
DA:2487,0
DA:2488,0
DA:2491,0
DA:2492,0
DA:2493,0
DA:2496,0
DA:2497,0
DA:2498,0
DA:2499,0
DA:2500,0
DA:2501,0
DA:2502,0
DA:2503,0
DA:2506,0
DA:2507,0
DA:2508,0
DA:2509,0
DA:2511,0
DA:2512,0
DA:2513,0
DA:2517,0
DA:2518,0
DA:2519,0
DA:2520,0
DA:2523,0
DA:2524,0
DA:2525,0
DA:2526,0
DA:2527,0
DA:2531,0
DA:2532,0
DA:2533,0
DA:2534,0
DA:2538,0
DA:2539,0
DA:2540,0
DA:2541,0
DA:2545,0
DA:2546,0
DA:2547,0
DA:2548,0
DA:2549,0
DA:2551,0
DA:2552,0
DA:2553,0
DA:2557,0
DA:2558,0
DA:2559,0
DA:2560,0
DA:2564,0
DA:2565,0
DA:2566,0
DA:2571,0
DA:2572,0
DA:2573,0
DA:2575,0
DA:2576,0
DA:2592,0
DA:2593,0
DA:2594,0
DA:2595,0
DA:2596,0
DA:2597,0
DA:2599,0
DA:2600,0
DA:2602,0
DA:2603,0
DA:2604,0
DA:2605,0
DA:2609,0
DA:2610,0
DA:2611,0
DA:2612,0
DA:2613,0
DA:2616,0
DA:2619,0
DA:2620,0
DA:2621,0
DA:2622,0
DA:2623,0
DA:2626,0
DA:2629,0
DA:2630,0
DA:2631,0
DA:2632,0
DA:2633,0
DA:2636,0
DA:2639,0
DA:2640,0
DA:2641,0
DA:2642,0
DA:2643,0
DA:2646,0
DA:2649,0
DA:2650,0
DA:2653,0
DA:2654,0
DA:2655,0
DA:2658,0
DA:2659,0
DA:2660,0
DA:2661,0
DA:2662,0
DA:2663,0
DA:2664,0
DA:2665,0
DA:2666,0
DA:2669,0
DA:2670,0
DA:2673,0
DA:2674,0
DA:2675,0
DA:2676,0
DA:2679,0
DA:2680,0
DA:2681,0
DA:2682,0
DA:2685,0
DA:2689,0
DA:2690,0
DA:2691,0
DA:2694,0
DA:2695,0
DA:2697,0
DA:2698,0
DA:2699,0
DA:2705,0
DA:2706,0
DA:2707,0
DA:2709,0
DA:2710,0
DA:2740,0
DA:2741,0
DA:2742,0
DA:2743,0
DA:2744,0
DA:2745,0
DA:2746,0
DA:2748,0
DA:2749,0
DA:2751,0
DA:2752,0
DA:2753,0
DA:2754,0
DA:2758,0
DA:2759,0
DA:2761,0
DA:2762,0
DA:2763,0
DA:2764,0
DA:2768,0
DA:2769,0
DA:2770,0
DA:2771,0
DA:2772,0
DA:2775,0
DA:2778,0
DA:2779,0
DA:2780,0
DA:2781,0
DA:2782,0
DA:2785,0
DA:2788,0
DA:2789,0
DA:2790,0
DA:2791,0
DA:2792,0
DA:2795,0
DA:2798,0
DA:2799,0
DA:2800,0
DA:2801,0
DA:2802,0
DA:2805,0
DA:2808,0
DA:2809,0
DA:2810,0
DA:2811,0
DA:2812,0
DA:2815,0
DA:2818,0
DA:2819,0
DA:2820,0
DA:2821,0
DA:2822,0
DA:2825,0
DA:2828,0
DA:2829,0
DA:2830,0
DA:2831,0
DA:2832,0
DA:2835,0
DA:2838,0
DA:2840,0
DA:2841,0
DA:2842,0
DA:2843,0
DA:2844,0
DA:2847,0
DA:2848,0
DA:2849,0
DA:2850,0
DA:2851,0
DA:2852,0
DA:2853,0
DA:2855,0
DA:2858,0
DA:2859,0
DA:2862,0
DA:2863,0
DA:2864,0
DA:2866,0
DA:2867,0
DA:2869,0
DA:2870,0
DA:2872,0
DA:2873,0
DA:2874,0
DA:2875,0
DA:2877,0
DA:2880,0
DA:2881,0
DA:2884,0
DA:2887,0
DA:2888,0
DA:2889,0
DA:2890,0
DA:2892,0
DA:2894,0
DA:2895,0
DA:2898,0
DA:2899,0
DA:2900,0
DA:2901,0
DA:2902,0
DA:2904,0
DA:2905,0
DA:2906,0
DA:2907,0
DA:2910,0
DA:2911,0
DA:2912,0
DA:2915,0
DA:2916,0
DA:2917,0
DA:2919,0
DA:2920,0
DA:2921,0
DA:2924,0
DA:2925,0
DA:2927,0
DA:2928,0
DA:2929,0
DA:2932,0
DA:2935,0
DA:2936,0
DA:2937,0
DA:2938,0
DA:2940,0
DA:2941,0
DA:2942,0
DA:2943,0
DA:2945,0
DA:2946,0
DA:2947,0
DA:2948,0
DA:2950,0
DA:2953,0
DA:2954,0
DA:2955,0
DA:2958,0
DA:2959,0
DA:2960,0
DA:2961,0
DA:2962,0
DA:2964,0
DA:2968,0
DA:2969,0
DA:2970,0
DA:2972,0
DA:2973,0
DA:2998,0
DA:2999,0
DA:3000,0
DA:3001,0
DA:3002,0
DA:3003,0
DA:3004,0
DA:3006,0
DA:3007,0
DA:3009,0
DA:3010,0
DA:3011,0
DA:3012,0
DA:3016,0
DA:3017,0
DA:3019,0
DA:3020,0
DA:3021,0
DA:3022,0
DA:3026,0
DA:3027,0
DA:3028,0
DA:3029,0
DA:3030,0
DA:3033,0
DA:3036,0
DA:3037,0
DA:3038,0
DA:3039,0
DA:3040,0
DA:3043,0
DA:3046,0
DA:3047,0
DA:3048,0
DA:3049,0
DA:3050,0
DA:3053,0
DA:3056,0
DA:3057,0
DA:3058,0
DA:3059,0
DA:3060,0
DA:3063,0
DA:3066,0
DA:3067,0
DA:3068,0
DA:3069,0
DA:3070,0
DA:3073,0
DA:3076,0
DA:3077,0
DA:3078,0
DA:3079,0
DA:3080,0
DA:3083,0
DA:3086,0
DA:3088,0
DA:3089,0
DA:3090,0
DA:3091,0
DA:3092,0
DA:3096,0
DA:3097,0
DA:3100,0
DA:3102,0
DA:3104,0
DA:3106,0
DA:3107,0
DA:3109,0
DA:3110,0
DA:3111,0
DA:3112,0
DA:3113,0
DA:3114,0
DA:3115,0
DA:3117,0
DA:3120,0
DA:3123,0
DA:3124,0
DA:3125,0
DA:3126,0
DA:3127,0
DA:3132,0
DA:3133,0
DA:3134,0
DA:3135,0
DA:3138,0
DA:3139,0
DA:3140,0
DA:3141,0
DA:3144,0
DA:3145,0
DA:3146,0
DA:3147,0
DA:3148,0
DA:3153,0
DA:3155,0
DA:3184,0
DA:3185,0
DA:3186,0
DA:3187,0
DA:3188,0
DA:3189,0
DA:3191,0
DA:3192,0
DA:3194,0
DA:3195,0
DA:3196,0
DA:3197,0
DA:3201,0
DA:3202,0
DA:3203,0
DA:3205,0
DA:3206,0
DA:3207,0
DA:3208,0
DA:3209,0
DA:3212,0
DA:3215,0
DA:3216,0
DA:3217,0
DA:3218,0
DA:3219,0
DA:3222,0
DA:3225,0
DA:3226,0
DA:3227,0
DA:3228,0
DA:3229,0
DA:3232,0
DA:3235,0
DA:3236,0
DA:3237,0
DA:3238,0
DA:3239,0
DA:3242,0
DA:3245,0
DA:3246,0
DA:3247,0
DA:3248,0
DA:3249,0
DA:3252,0
DA:3255,0
DA:3256,0
DA:3257,0
DA:3258,0
DA:3259,0
DA:3262,0
DA:3265,0
DA:3266,0
DA:3267,0
DA:3268,0
DA:3269,0
DA:3272,0
DA:3276,0
DA:3278,0
DA:3279,0
DA:3280,0
DA:3281,0
DA:3284,0
DA:3289,0
DA:3290,0
DA:3291,0
DA:3292,0
DA:3293,0
DA:3294,0
DA:3295,0
DA:3297,0
DA:3298,0
DA:3322,0
DA:3323,0
DA:3324,0
DA:3325,0
DA:3326,0
DA:3327,0
DA:3329,0
DA:3330,0
DA:3332,0
DA:3333,0
DA:3334,0
DA:3335,0
DA:3339,0
DA:3340,0
DA:3341,0
DA:3343,0
DA:3344,0
DA:3345,0
DA:3346,0
DA:3347,0
DA:3350,0
DA:3354,0
DA:3355,0
DA:3356,0
DA:3357,0
DA:3358,0
DA:3360,0
DA:3361,0
DA:3362,0
DA:3363,0
DA:3364,0
DA:3367,0
DA:3370,0
DA:3371,0
DA:3372,0
DA:3373,0
DA:3376,0
DA:3377,0
DA:3378,0
DA:3379,0
DA:3384,0
DA:3385,0
DA:3386,0
DA:3387,0
DA:3391,0
DA:3392,0
DA:3393,0
DA:3396,0
DA:3397,0
DA:3399,0
DA:3400,0
DA:3401,0
DA:3402,0
DA:3404,0
DA:3405,0
DA:3407,0
DA:3408,0
DA:3410,0
DA:3412,0
DA:3413,0
DA:3415,0
DA:3416,0
DA:3443,0
DA:3444,0
DA:3445,0
DA:3446,0
DA:3447,0
DA:3448,0
DA:3450,0
DA:3451,0
DA:3453,0
DA:3454,0
DA:3455,0
DA:3456,0
DA:3460,0
DA:3461,0
DA:3463,0
DA:3464,0
DA:3465,0
DA:3466,0
DA:3470,0
DA:3471,0
DA:3472,0
DA:3473,0
DA:3474,0
DA:3476,0
DA:3477,0
DA:3478,0
DA:3479,0
DA:3480,0
DA:3483,0
DA:3486,0
DA:3487,0
DA:3488,0
DA:3489,0
DA:3490,0
DA:3493,0
DA:3496,0
DA:3497,0
DA:3500,0
DA:3501,0
DA:3502,0
DA:3503,0
DA:3505,0
DA:3506,0
DA:3507,0
DA:3508,0
DA:3510,0
DA:3513,0
DA:3516,0
DA:3517,0
DA:3518,0
DA:3519,0
DA:3520,0
DA:3522,0
DA:3523,0
DA:3526,0
DA:3527,0
DA:3528,0
DA:3529,0
DA:3530,0
DA:3531,0
DA:3534,0
DA:3535,0
DA:3553,0
DA:3554,0
DA:3555,0
DA:3556,0
DA:3557,0
DA:3558,0
DA:3560,0
DA:3561,0
DA:3563,0
DA:3564,0
DA:3565,0
DA:3566,0
DA:3570,0
DA:3571,0
DA:3572,0
DA:3574,0
DA:3575,0
DA:3576,0
DA:3577,0
DA:3578,0
DA:3581,0
DA:3584,0
DA:3585,0
DA:3586,0
DA:3587,0
DA:3588,0
DA:3591,0
DA:3594,0
DA:3596,0
DA:3597,0
DA:3598,0
DA:3599,0
DA:3600,0
DA:3602,0
DA:3603,0
DA:3606,0
DA:3607,0
DA:3608,0
DA:3609,0
DA:3610,0
DA:3611,0
DA:3614,0
DA:3615,0
DA:3633,0
DA:3634,0
DA:3635,0
DA:3636,0
DA:3637,0
DA:3638,0
DA:3640,0
DA:3641,0
DA:3643,0
DA:3644,0
DA:3645,0
DA:3646,0
DA:3650,0
DA:3651,0
DA:3652,0
DA:3654,0
DA:3655,0
DA:3656,0
DA:3657,0
DA:3658,0
DA:3661,0
DA:3664,0
DA:3665,0
DA:3666,0
DA:3667,0
DA:3668,0
DA:3671,0
DA:3674,0
DA:3676,0
DA:3677,0
DA:3678,0
DA:3679,0
DA:3680,0
DA:3682,0
DA:3683,0
DA:3686,0
DA:3687,0
DA:3688,0
DA:3689,0
DA:3690,0
DA:3691,0
DA:3694,0
DA:3695,0
DA:3718,0
DA:3721,0
DA:3722,0
DA:3723,0
DA:3724,0
DA:3725,0
DA:3728,0
DA:3729,0
DA:3730,0
DA:3732,0
DA:3733,0
DA:3734,0
DA:3735,0
DA:3740,0
DA:3741,0
DA:3742,0
DA:3744,0
DA:3745,0
DA:3746,0
DA:3747,0
DA:3752,0
DA:3753,0
DA:3755,0
DA:3758,0
DA:3759,0
DA:3761,0
DA:3764,0
DA:3765,0
DA:3766,0
DA:3767,0
DA:3768,0
DA:3769,0
DA:3772,0
DA:3774,0
DA:3775,0
DA:3776,0
DA:3777,0
DA:3778,0
DA:3779,0
DA:3780,0
DA:3785,0
DA:3786,0
DA:3787,0
DA:3788,0
DA:3790,0
DA:3792,0
DA:3808,0
DA:3809,0
DA:3810,0
DA:3811,0
DA:3812,0
DA:3813,0
DA:3816,0
DA:3817,0
DA:3818,0
DA:3820,0
DA:3821,0
DA:3822,0
DA:3823,0
DA:3828,0
DA:3829,0
DA:3831,0
DA:3832,0
DA:3833,0
DA:3834,0
DA:3839,0
DA:3840,0
DA:3856,0
DA:3857,0
DA:3858,0
DA:3859,0
DA:3860,0
DA:3861,0
DA:3863,0
DA:3864,0
DA:3865,0
DA:3867,0
DA:3868,0
DA:3869,0
DA:3870,0
DA:3874,0
DA:3875,0
DA:3876,0
DA:3877,0
DA:3878,0
DA:3880,0
DA:3881,0
DA:3884,0
DA:3885,0
DA:3886,0
DA:3887,0
DA:3888,0
DA:3891,0
DA:3892,0
DA:3915,0
DA:3916,0
DA:3917,0
DA:3918,0
DA:3919,0
DA:3920,0
DA:3921,0
DA:3924,0
DA:3925,0
DA:3927,0
DA:3928,0
DA:3929,0
DA:3930,0
DA:3935,0
DA:3936,0
DA:3938,0
DA:3939,0
DA:3940,0
DA:3941,0
DA:3946,0
DA:3947,0
DA:3949,0
DA:3953,0
DA:3954,0
DA:3956,0
DA:3960,0
DA:3961,0
DA:3962,0
DA:3965,0
DA:3966,0
DA:3968,0
DA:3971,0
DA:3972,0
DA:3973,0
DA:3974,0
DA:3975,0
DA:3977,0
DA:3978,0
DA:3979,0
DA:3980,0
DA:3983,0
DA:3984,0
DA:3985,0
DA:3986,0
DA:3988,0
DA:3989,0
DA:3990,0
DA:3991,0
DA:3992,0
DA:3993,0
DA:3994,0
DA:3997,0
DA:4001,0
DA:4002,0
DA:4004,0
DA:4005,0
DA:4006,0
DA:4007,0
DA:4024,0
DA:4025,0
DA:4026,0
DA:4027,0
DA:4028,0
DA:4029,0
DA:4030,0
DA:4033,0
DA:4034,0
DA:4036,0
DA:4037,0
DA:4038,0
DA:4039,0
DA:4043,0
DA:4044,0
DA:4045,0
DA:4046,0
DA:4047,0
DA:4050,0
DA:4051,0
DA:4053,0
DA:4057,0
DA:4058,0
DA:4060,0
DA:4063,0
DA:4066,0
DA:4067,0
DA:4069,0
DA:4072,0
DA:4073,0
DA:4074,0
DA:4075,0
DA:4076,0
DA:4078,0
DA:4079,0
DA:4080,0
DA:4081,0
DA:4082,0
DA:4083,0
DA:4084,0
DA:4085,0
DA:4086,0
DA:4087,0
DA:4090,0
DA:4094,0
DA:4095,0
DA:4117,0
DA:4118,0
DA:4119,0
DA:4120,0
DA:4121,0
DA:4122,0
DA:4125,0
DA:4126,0
DA:4128,0
DA:4129,0
DA:4130,0
DA:4131,0
DA:4135,0
DA:4136,0
DA:4137,0
DA:4138,0
DA:4139,0
DA:4141,0
DA:4142,0
DA:4145,0
DA:4146,0
DA:4148,0
DA:4149,0
DA:4150,0
DA:4151,0
DA:4158,0
DA:4160,0
DA:4161,0
DA:4188,0
DA:4189,0
DA:4190,0
DA:4191,0
DA:4192,0
DA:4193,0
DA:4195,0
DA:4196,0
DA:4198,0
DA:4199,0
DA:4200,0
DA:4201,0
DA:4205,0
DA:4206,0
DA:4207,0
DA:4208,0
DA:4209,0
DA:4211,0
DA:4212,0
DA:4213,0
DA:4214,0
DA:4215,0
DA:4218,0
DA:4221,0
DA:4222,0
DA:4223,0
DA:4224,0
DA:4225,0
DA:4228,0
DA:4231,0
DA:4232,0
DA:4233,0
DA:4234,0
DA:4235,0
DA:4238,0
DA:4241,0
DA:4242,0
DA:4243,0
DA:4244,0
DA:4245,0
DA:4248,0
DA:4252,0
DA:4253,0
DA:4254,0
DA:4255,0
DA:4258,0
DA:4259,0
DA:4260,0
DA:4262,0
DA:4263,0
DA:4264,0
DA:4265,0
DA:4267,0
DA:4268,0
DA:4269,0
DA:4270,0
DA:4273,0
DA:4275,0
DA:4276,0
DA:4278,0
DA:4280,0
DA:4283,0
DA:4284,0
DA:4285,0
DA:4288,0
DA:4291,0
DA:4295,0
DA:4296,0
DA:4313,0
DA:4314,0
DA:4315,0
DA:4316,0
DA:4317,0
DA:4318,0
DA:4320,0
DA:4321,0
DA:4323,0
DA:4324,0
DA:4325,0
DA:4326,0
DA:4330,0
DA:4331,0
DA:4332,0
DA:4334,0
DA:4335,0
DA:4336,0
DA:4337,0
DA:4338,0
DA:4341,0
DA:4344,0
DA:4345,0
DA:4348,0
DA:4349,0
DA:4350,0
DA:4352,0
DA:4353,0
DA:4354,0
DA:4357,0
DA:4358,0
DA:4382,0
DA:4383,0
DA:4384,0
DA:4385,0
DA:4386,0
DA:4387,0
DA:4389,0
DA:4390,0
DA:4391,0
DA:4393,0
DA:4394,0
DA:4395,0
DA:4396,0
DA:4400,0
DA:4401,0
DA:4402,0
DA:4403,0
DA:4404,0
DA:4407,0
DA:4410,0
DA:4411,0
DA:4412,0
DA:4413,0
DA:4414,0
DA:4415,0
DA:4417,0
DA:4418,0
DA:4419,0
DA:4420,0
DA:4423,0
DA:4424,0
DA:4425,0
DA:4426,0
DA:4431,0
DA:4432,0
DA:4433,0
DA:4434,0
DA:4437,0
DA:4438,0
DA:4439,0
DA:4440,0
DA:4441,0
DA:4444,0
DA:4448,0
DA:4451,0
DA:4452,0
DA:4453,0
DA:4454,0
DA:4455,0
DA:4456,0
DA:4457,0
DA:4458,0
DA:4461,0
DA:4462,0
DA:4465,0
DA:4467,0
DA:4469,0
DA:4470,0
DA:4473,0
DA:4474,0
DA:4475,0
DA:4476,0
DA:4477,0
DA:4478,0
DA:4482,0
DA:4483,0
DA:4501,0
DA:4502,0
DA:4503,0
DA:4504,0
DA:4505,0
DA:4506,0
DA:4508,0
DA:4509,0
DA:4511,0
DA:4512,0
DA:4513,0
DA:4514,0
DA:4518,0
DA:4520,0
DA:4521,0
DA:4522,0
DA:4523,0
DA:4524,0
DA:4527,0
DA:4530,0
DA:4531,0
DA:4532,0
DA:4533,0
DA:4536,0
DA:4537,0
DA:4538,0
DA:4539,0
DA:4544,0
DA:4545,0
DA:4546,0
DA:4547,0
DA:4551,0
DA:4552,0
DA:4554,0
DA:4555,0
DA:4556,0
DA:4557,0
DA:4560,0
DA:4561,0
DA:4562,0
DA:4563,0
DA:4564,0
DA:4565,0
DA:4566,0
DA:4570,0
DA:4572,0
DA:4573,0
DA:4574,0
DA:4575,0
DA:4577,0
DA:4578,0
DA:4579,0
DA:4580,0
DA:4581,0
DA:4582,0
DA:4583,0
DA:4584,0
DA:4590,0
DA:4592,0
DA:4593,0
DA:4595,0
DA:4596,0
DA:4597,0
DA:4599,0
DA:4602,0
DA:4603,0
DA:4620,0
DA:4621,0
DA:4622,0
DA:4623,0
DA:4624,0
DA:4625,0
DA:4627,0
DA:4628,0
DA:4629,0
DA:4631,0
DA:4632,0
DA:4633,0
DA:4634,0
DA:4638,0
DA:4639,0
DA:4640,0
DA:4641,0
DA:4642,0
DA:4645,0
DA:4647,0
DA:4648,0
DA:4649,0
DA:4650,0
DA:4651,0
DA:4652,0
DA:4653,0
DA:4657,0
DA:4658,0
DA:4665,1
DA:4666,1
DA:4667,1
DA:4669,1
DA:4670,1
DA:4671,100
DA:4672,1
DA:4674,0
DA:4676,1
DA:4679,1
DA:4680,1
DA:4681,1
DA:4683,1
DA:4684,1
DA:4686,1
DA:4687,29
DA:4688,10
DA:4689,10
DA:4692,0
DA:4694,1
BRF:0
BRH:0
LF:2683
LH:56
end_of_record
SF:/Users/ravindraboddipalli/sources/xdl/xdl-stdlib/src/python.rs
FN:218,_RINvNtCs7X22eMfvUxK_10xdl_stdlib6python19with_python_managerNCNvB2_11python_call0NtNtCsgj69aNDdLpp_8xdl_core5types8XdlValueEB4_
FN:218,_RINvNtCs7X22eMfvUxK_10xdl_stdlib6python19with_python_managerNCNvB2_13python_import0NtNtCsgj69aNDdLpp_8xdl_core5types8XdlValueEB4_
FN:218,_RINvNtCs7X22eMfvUxK_10xdl_stdlib6python19with_python_managerNCNvB2_14python_call_kw0NtNtCsgj69aNDdLpp_8xdl_core5types8XdlValueEB4_
FN:222,_RNCINvNtCs7X22eMfvUxK_10xdl_stdlib6python19with_python_managerNCNvB4_11python_call0NtNtCsgj69aNDdLpp_8xdl_core5types8XdlValueE0B6_
FN:222,_RNCINvNtCs7X22eMfvUxK_10xdl_stdlib6python19with_python_managerNCNvB4_13python_import0NtNtCsgj69aNDdLpp_8xdl_core5types8XdlValueE0B6_
FN:222,_RNCINvNtCs7X22eMfvUxK_10xdl_stdlib6python19with_python_managerNCNvB4_14python_call_kw0NtNtCsgj69aNDdLpp_8xdl_core5types8XdlValueE0B6_
FN:78,_RNCNCNvMNtCs7X22eMfvUxK_10xdl_stdlib6pythonNtB6_13PythonManager11call_methods_00B8_
FN:95,_RNCNCNvMNtCs7X22eMfvUxK_10xdl_stdlib6pythonNtB6_13PythonManager11call_methods_0s0_0B8_
FN:88,_RNCNCNvMNtCs7X22eMfvUxK_10xdl_stdlib6pythonNtB6_13PythonManager11call_methods_0s_0B8_
FN:145,_RNCNCNvMNtCs7X22eMfvUxK_10xdl_stdlib6pythonNtB6_13PythonManager16object_to_string00B8_
FN:149,_RNCNCNvMNtCs7X22eMfvUxK_10xdl_stdlib6pythonNtB6_13PythonManager16object_to_string0s_0B8_
FN:134,_RNCNvMNtCs7X22eMfvUxK_10xdl_stdlib6pythonNtB4_13PythonManager10get_object0B6_
FN:72,_RNCNvMNtCs7X22eMfvUxK_10xdl_stdlib6pythonNtB4_13PythonManager11call_method0B6_
FN:77,_RNCNvMNtCs7X22eMfvUxK_10xdl_stdlib6pythonNtB4_13PythonManager11call_methods_0B6_
FN:48,_RNCNvMNtCs7X22eMfvUxK_10xdl_stdlib6pythonNtB4_13PythonManager13import_module0B6_
FN:141,_RNCNvMNtCs7X22eMfvUxK_10xdl_stdlib6pythonNtB4_13PythonManager16object_to_string0B6_
FN:28,_RNCNvMNtCs7X22eMfvUxK_10xdl_stdlib6pythonNtB4_13PythonManager3new0B6_
FN:282,_RNCNvNtCs7X22eMfvUxK_10xdl_stdlib6python11python_call0B5_
FN:248,_RNCNvNtCs7X22eMfvUxK_10xdl_stdlib6python13python_import0B5_
FN:339,_RNCNvNtCs7X22eMfvUxK_10xdl_stdlib6python14python_call_kw0B5_
FN:133,_RNvMNtCs7X22eMfvUxK_10xdl_stdlib6pythonNtB2_13PythonManager10get_object
FN:62,_RNvMNtCs7X22eMfvUxK_10xdl_stdlib6pythonNtB2_13PythonManager11call_method
FN:125,_RNvMNtCs7X22eMfvUxK_10xdl_stdlib6pythonNtB2_13PythonManager12store_object
FN:158,_RNvMNtCs7X22eMfvUxK_10xdl_stdlib6pythonNtB2_13PythonManager13gdl_to_python
FN:44,_RNvMNtCs7X22eMfvUxK_10xdl_stdlib6pythonNtB2_13PythonManager13import_module
FN:186,_RNvMNtCs7X22eMfvUxK_10xdl_stdlib6pythonNtB2_13PythonManager13python_to_gdl
FN:140,_RNvMNtCs7X22eMfvUxK_10xdl_stdlib6pythonNtB2_13PythonManager16object_to_string
FN:22,_RNvMNtCs7X22eMfvUxK_10xdl_stdlib6pythonNtB2_13PythonManager3new
FN:255,_RNvNtCs7X22eMfvUxK_10xdl_stdlib6python11python_call
FN:232,_RNvNtCs7X22eMfvUxK_10xdl_stdlib6python13python_import
FN:286,_RNvNtCs7X22eMfvUxK_10xdl_stdlib6python14python_call_kw
FN:207,_RNvXs_NtCs7X22eMfvUxK_10xdl_stdlib6pythonNtB4_13PythonManagerNtNtCs2CqrNpCrSUr_4core7default7Default7default
FN:218,_RINvNtCsgiIQ3x9G6Hx_10xdl_stdlib6python19with_python_managerppEB4_
FN:222,_RNCINvNtCsgiIQ3x9G6Hx_10xdl_stdlib6python19with_python_managerppE0B6_
FN:78,_RNCNCNvMNtCsgiIQ3x9G6Hx_10xdl_stdlib6pythonNtB6_13PythonManager11call_methods_00B8_
FN:95,_RNCNCNvMNtCsgiIQ3x9G6Hx_10xdl_stdlib6pythonNtB6_13PythonManager11call_methods_0s0_0B8_
FN:88,_RNCNCNvMNtCsgiIQ3x9G6Hx_10xdl_stdlib6pythonNtB6_13PythonManager11call_methods_0s_0B8_
FN:145,_RNCNCNvMNtCsgiIQ3x9G6Hx_10xdl_stdlib6pythonNtB6_13PythonManager16object_to_string00B8_
FN:149,_RNCNCNvMNtCsgiIQ3x9G6Hx_10xdl_stdlib6pythonNtB6_13PythonManager16object_to_string0s_0B8_
FN:134,_RNCNvMNtCsgiIQ3x9G6Hx_10xdl_stdlib6pythonNtB4_13PythonManager10get_object0B6_
FN:72,_RNCNvMNtCsgiIQ3x9G6Hx_10xdl_stdlib6pythonNtB4_13PythonManager11call_method0B6_
FN:77,_RNCNvMNtCsgiIQ3x9G6Hx_10xdl_stdlib6pythonNtB4_13PythonManager11call_methods_0B6_
FN:48,_RNCNvMNtCsgiIQ3x9G6Hx_10xdl_stdlib6pythonNtB4_13PythonManager13import_module0B6_
FN:141,_RNCNvMNtCsgiIQ3x9G6Hx_10xdl_stdlib6pythonNtB4_13PythonManager16object_to_string0B6_
FN:28,_RNCNvMNtCsgiIQ3x9G6Hx_10xdl_stdlib6pythonNtB4_13PythonManager3new0B6_
FN:282,_RNCNvNtCsgiIQ3x9G6Hx_10xdl_stdlib6python11python_call0B5_
FN:248,_RNCNvNtCsgiIQ3x9G6Hx_10xdl_stdlib6python13python_import0B5_
FN:339,_RNCNvNtCsgiIQ3x9G6Hx_10xdl_stdlib6python14python_call_kw0B5_
FN:133,_RNvMNtCsgiIQ3x9G6Hx_10xdl_stdlib6pythonNtB2_13PythonManager10get_object
FN:62,_RNvMNtCsgiIQ3x9G6Hx_10xdl_stdlib6pythonNtB2_13PythonManager11call_method
FN:125,_RNvMNtCsgiIQ3x9G6Hx_10xdl_stdlib6pythonNtB2_13PythonManager12store_object
FN:158,_RNvMNtCsgiIQ3x9G6Hx_10xdl_stdlib6pythonNtB2_13PythonManager13gdl_to_python
FN:44,_RNvMNtCsgiIQ3x9G6Hx_10xdl_stdlib6pythonNtB2_13PythonManager13import_module
FN:186,_RNvMNtCsgiIQ3x9G6Hx_10xdl_stdlib6pythonNtB2_13PythonManager13python_to_gdl
FN:140,_RNvMNtCsgiIQ3x9G6Hx_10xdl_stdlib6pythonNtB2_13PythonManager16object_to_string
FN:22,_RNvMNtCsgiIQ3x9G6Hx_10xdl_stdlib6pythonNtB2_13PythonManager3new
FN:255,_RNvNtCsgiIQ3x9G6Hx_10xdl_stdlib6python11python_call
FN:232,_RNvNtCsgiIQ3x9G6Hx_10xdl_stdlib6python13python_import
FN:286,_RNvNtCsgiIQ3x9G6Hx_10xdl_stdlib6python14python_call_kw
FN:207,_RNvXs_NtCsgiIQ3x9G6Hx_10xdl_stdlib6pythonNtB4_13PythonManagerNtNtCs2CqrNpCrSUr_4core7default7Default7default
FNDA:0,_RINvNtCs7X22eMfvUxK_10xdl_stdlib6python19with_python_managerNCNvB2_11python_call0NtNtCsgj69aNDdLpp_8xdl_core5types8XdlValueEB4_
FNDA:0,_RINvNtCs7X22eMfvUxK_10xdl_stdlib6python19with_python_managerNCNvB2_13python_import0NtNtCsgj69aNDdLpp_8xdl_core5types8XdlValueEB4_
FNDA:0,_RINvNtCs7X22eMfvUxK_10xdl_stdlib6python19with_python_managerNCNvB2_14python_call_kw0NtNtCsgj69aNDdLpp_8xdl_core5types8XdlValueEB4_
FNDA:0,_RNCINvNtCs7X22eMfvUxK_10xdl_stdlib6python19with_python_managerNCNvB4_11python_call0NtNtCsgj69aNDdLpp_8xdl_core5types8XdlValueE0B6_
FNDA:0,_RNCINvNtCs7X22eMfvUxK_10xdl_stdlib6python19with_python_managerNCNvB4_13python_import0NtNtCsgj69aNDdLpp_8xdl_core5types8XdlValueE0B6_
FNDA:0,_RNCINvNtCs7X22eMfvUxK_10xdl_stdlib6python19with_python_managerNCNvB4_14python_call_kw0NtNtCsgj69aNDdLpp_8xdl_core5types8XdlValueE0B6_
FNDA:0,_RNCNCNvMNtCs7X22eMfvUxK_10xdl_stdlib6pythonNtB6_13PythonManager11call_methods_00B8_
FNDA:0,_RNCNCNvMNtCs7X22eMfvUxK_10xdl_stdlib6pythonNtB6_13PythonManager11call_methods_0s0_0B8_
FNDA:0,_RNCNCNvMNtCs7X22eMfvUxK_10xdl_stdlib6pythonNtB6_13PythonManager11call_methods_0s_0B8_
FNDA:0,_RNCNCNvMNtCs7X22eMfvUxK_10xdl_stdlib6pythonNtB6_13PythonManager16object_to_string00B8_
FNDA:0,_RNCNCNvMNtCs7X22eMfvUxK_10xdl_stdlib6pythonNtB6_13PythonManager16object_to_string0s_0B8_
FNDA:0,_RNCNvMNtCs7X22eMfvUxK_10xdl_stdlib6pythonNtB4_13PythonManager10get_object0B6_
FNDA:0,_RNCNvMNtCs7X22eMfvUxK_10xdl_stdlib6pythonNtB4_13PythonManager11call_method0B6_
FNDA:0,_RNCNvMNtCs7X22eMfvUxK_10xdl_stdlib6pythonNtB4_13PythonManager11call_methods_0B6_
FNDA:0,_RNCNvMNtCs7X22eMfvUxK_10xdl_stdlib6pythonNtB4_13PythonManager13import_module0B6_
FNDA:0,_RNCNvMNtCs7X22eMfvUxK_10xdl_stdlib6pythonNtB4_13PythonManager16object_to_string0B6_
FNDA:0,_RNCNvMNtCs7X22eMfvUxK_10xdl_stdlib6pythonNtB4_13PythonManager3new0B6_
FNDA:0,_RNCNvNtCs7X22eMfvUxK_10xdl_stdlib6python11python_call0B5_
FNDA:0,_RNCNvNtCs7X22eMfvUxK_10xdl_stdlib6python13python_import0B5_
FNDA:0,_RNCNvNtCs7X22eMfvUxK_10xdl_stdlib6python14python_call_kw0B5_
FNDA:0,_RNvMNtCs7X22eMfvUxK_10xdl_stdlib6pythonNtB2_13PythonManager10get_object
FNDA:0,_RNvMNtCs7X22eMfvUxK_10xdl_stdlib6pythonNtB2_13PythonManager11call_method
FNDA:0,_RNvMNtCs7X22eMfvUxK_10xdl_stdlib6pythonNtB2_13PythonManager12store_object
FNDA:0,_RNvMNtCs7X22eMfvUxK_10xdl_stdlib6pythonNtB2_13PythonManager13gdl_to_python
FNDA:0,_RNvMNtCs7X22eMfvUxK_10xdl_stdlib6pythonNtB2_13PythonManager13import_module
FNDA:0,_RNvMNtCs7X22eMfvUxK_10xdl_stdlib6pythonNtB2_13PythonManager13python_to_gdl
FNDA:0,_RNvMNtCs7X22eMfvUxK_10xdl_stdlib6pythonNtB2_13PythonManager16object_to_string
FNDA:0,_RNvMNtCs7X22eMfvUxK_10xdl_stdlib6pythonNtB2_13PythonManager3new
FNDA:0,_RNvNtCs7X22eMfvUxK_10xdl_stdlib6python11python_call
FNDA:0,_RNvNtCs7X22eMfvUxK_10xdl_stdlib6python13python_import
FNDA:0,_RNvNtCs7X22eMfvUxK_10xdl_stdlib6python14python_call_kw
FNDA:0,_RNvXs_NtCs7X22eMfvUxK_10xdl_stdlib6pythonNtB4_13PythonManagerNtNtCs2CqrNpCrSUr_4core7default7Default7default
FNDA:0,_RINvNtCsgiIQ3x9G6Hx_10xdl_stdlib6python19with_python_managerppEB4_
FNDA:0,_RNCINvNtCsgiIQ3x9G6Hx_10xdl_stdlib6python19with_python_managerppE0B6_
FNDA:0,_RNCNCNvMNtCsgiIQ3x9G6Hx_10xdl_stdlib6pythonNtB6_13PythonManager11call_methods_00B8_
FNDA:0,_RNCNCNvMNtCsgiIQ3x9G6Hx_10xdl_stdlib6pythonNtB6_13PythonManager11call_methods_0s0_0B8_
FNDA:0,_RNCNCNvMNtCsgiIQ3x9G6Hx_10xdl_stdlib6pythonNtB6_13PythonManager11call_methods_0s_0B8_
FNDA:0,_RNCNCNvMNtCsgiIQ3x9G6Hx_10xdl_stdlib6pythonNtB6_13PythonManager16object_to_string00B8_
FNDA:0,_RNCNCNvMNtCsgiIQ3x9G6Hx_10xdl_stdlib6pythonNtB6_13PythonManager16object_to_string0s_0B8_
FNDA:0,_RNCNvMNtCsgiIQ3x9G6Hx_10xdl_stdlib6pythonNtB4_13PythonManager10get_object0B6_
FNDA:0,_RNCNvMNtCsgiIQ3x9G6Hx_10xdl_stdlib6pythonNtB4_13PythonManager11call_method0B6_
FNDA:0,_RNCNvMNtCsgiIQ3x9G6Hx_10xdl_stdlib6pythonNtB4_13PythonManager11call_methods_0B6_
FNDA:0,_RNCNvMNtCsgiIQ3x9G6Hx_10xdl_stdlib6pythonNtB4_13PythonManager13import_module0B6_
FNDA:0,_RNCNvMNtCsgiIQ3x9G6Hx_10xdl_stdlib6pythonNtB4_13PythonManager16object_to_string0B6_
FNDA:0,_RNCNvMNtCsgiIQ3x9G6Hx_10xdl_stdlib6pythonNtB4_13PythonManager3new0B6_
FNDA:0,_RNCNvNtCsgiIQ3x9G6Hx_10xdl_stdlib6python11python_call0B5_
FNDA:0,_RNCNvNtCsgiIQ3x9G6Hx_10xdl_stdlib6python13python_import0B5_
FNDA:0,_RNCNvNtCsgiIQ3x9G6Hx_10xdl_stdlib6python14python_call_kw0B5_
FNDA:0,_RNvMNtCsgiIQ3x9G6Hx_10xdl_stdlib6pythonNtB2_13PythonManager10get_object
FNDA:0,_RNvMNtCsgiIQ3x9G6Hx_10xdl_stdlib6pythonNtB2_13PythonManager11call_method
FNDA:0,_RNvMNtCsgiIQ3x9G6Hx_10xdl_stdlib6pythonNtB2_13PythonManager12store_object
FNDA:0,_RNvMNtCsgiIQ3x9G6Hx_10xdl_stdlib6pythonNtB2_13PythonManager13gdl_to_python
FNDA:0,_RNvMNtCsgiIQ3x9G6Hx_10xdl_stdlib6pythonNtB2_13PythonManager13import_module
FNDA:0,_RNvMNtCsgiIQ3x9G6Hx_10xdl_stdlib6pythonNtB2_13PythonManager13python_to_gdl
FNDA:0,_RNvMNtCsgiIQ3x9G6Hx_10xdl_stdlib6pythonNtB2_13PythonManager16object_to_string
FNDA:0,_RNvMNtCsgiIQ3x9G6Hx_10xdl_stdlib6pythonNtB2_13PythonManager3new
FNDA:0,_RNvNtCsgiIQ3x9G6Hx_10xdl_stdlib6python11python_call
FNDA:0,_RNvNtCsgiIQ3x9G6Hx_10xdl_stdlib6python13python_import
FNDA:0,_RNvNtCsgiIQ3x9G6Hx_10xdl_stdlib6python14python_call_kw
FNDA:0,_RNvXs_NtCsgiIQ3x9G6Hx_10xdl_stdlib6pythonNtB4_13PythonManagerNtNtCs2CqrNpCrSUr_4core7default7Default7default
FNF:28
FNH:0
DA:22,0
DA:25,0
DA:28,0
DA:29,0
DA:30,0
DA:31,0
DA:34,0
DA:36,0
DA:37,0
DA:38,0
DA:39,0
DA:40,0
DA:41,0
DA:44,0
DA:45,0
DA:48,0
DA:50,0
DA:51,0
DA:52,0
DA:54,0
DA:55,0
DA:56,0
DA:57,0
DA:58,0
DA:59,0
DA:62,0
DA:63,0
DA:64,0
DA:65,0
DA:66,0
DA:67,0
DA:68,0
DA:69,0
DA:70,0
DA:71,0
DA:72,0
DA:73,0
DA:74,0
DA:75,0
DA:77,0
DA:78,0
DA:79,0
DA:80,0
DA:81,0
DA:82,0
DA:83,0
DA:86,0
DA:87,0
DA:88,0
DA:89,0
DA:92,0
DA:93,0
DA:94,0
DA:95,0
DA:96,0
DA:97,0
DA:101,0
DA:102,0
DA:104,0
DA:105,0
DA:106,0
DA:107,0
DA:108,0
DA:111,0
DA:112,0
DA:114,0
DA:116,0
DA:117,0
DA:118,0
DA:119,0
DA:121,0
DA:122,0
DA:125,0
DA:126,0
DA:127,0
DA:128,0
DA:129,0
DA:130,0
DA:133,0
DA:134,0
DA:135,0
DA:136,0
DA:137,0
DA:140,0
DA:141,0
DA:142,0
DA:143,0
DA:145,0
DA:146,0
DA:147,0
DA:149,0
DA:150,0
DA:151,0
DA:153,0
DA:154,0
DA:155,0
DA:158,0
DA:159,0
DA:160,0
DA:161,0
DA:162,0
DA:163,0
DA:165,0
DA:167,0
DA:168,0
DA:171,0
DA:174,0
DA:175,0
DA:176,0
DA:178,0
DA:179,0
DA:180,0
DA:181,0
DA:183,0
DA:186,0
DA:187,0
DA:190,0
DA:191,0
DA:192,0
DA:193,0
DA:194,0
DA:195,0
DA:196,0
DA:197,0
DA:200,0
DA:201,0
DA:203,0
DA:207,0
DA:208,0
DA:209,0
DA:218,0
DA:219,0
DA:220,0
DA:222,0
DA:223,0
DA:224,0
DA:225,0
DA:226,0
DA:227,0
DA:228,0
DA:229,0
DA:232,0
DA:233,0
DA:234,0
DA:235,0
DA:236,0
DA:237,0
DA:239,0
DA:240,0
DA:242,0
DA:243,0
DA:244,0
DA:248,0
DA:249,0
DA:250,0
DA:251,0
DA:252,0
DA:255,0
DA:256,0
DA:257,0
DA:258,0
DA:259,0
DA:260,0
DA:262,0
DA:263,0
DA:265,0
DA:266,0
DA:267,0
DA:271,0
DA:272,0
DA:274,0
DA:275,0
DA:276,0
DA:280,0
DA:282,0
DA:283,0
DA:286,0
DA:287,0
DA:288,0
DA:289,0
DA:290,0
DA:291,0
DA:293,0
DA:294,0
DA:296,0
DA:297,0
DA:298,0
DA:302,0
DA:303,0
DA:305,0
DA:306,0
DA:307,0
DA:312,0
DA:313,0
DA:315,0
DA:316,0
DA:317,0
DA:318,0
DA:319,0
DA:322,0
DA:323,0
DA:324,0
DA:325,0
DA:327,0
DA:330,0
DA:331,0
DA:332,0
DA:333,0
DA:334,0
DA:335,0
DA:336,0
DA:339,0
DA:340,0
DA:341,0
DA:342,0
BRF:0
BRH:0
LF:235
LH:0
end_of_record
SF:/Users/ravindraboddipalli/sources/xdl/xdl-stdlib/src/statistics.rs
FN:30,_RNvNtCs7X22eMfvUxK_10xdl_stdlib10statistics15array_to_floats
FN:227,_RNCNvNtCs7X22eMfvUxK_10xdl_stdlib10statistics10meanabsdev0B5_
FN:188,_RNCNvNtCs7X22eMfvUxK_10xdl_stdlib10statistics6median0B5_
FN:86,_RNCNvNtCs7X22eMfvUxK_10xdl_stdlib10statistics6moment0B5_
FN:107,_RNCNvNtCs7X22eMfvUxK_10xdl_stdlib10statistics6moments0_0B5_
FN:96,_RNCNvNtCs7X22eMfvUxK_10xdl_stdlib10statistics6moments_0B5_
FN:147,_RNCNvNtCs7X22eMfvUxK_10xdl_stdlib10statistics8variance0B5_
FN:303,_RNvNtCs7X22eMfvUxK_10xdl_stdlib10statistics10chisqr_pdf
FN:35,_RNvNtCs7X22eMfvUxK_10xdl_stdlib10statistics10from_float
FN:203,_RNvNtCs7X22eMfvUxK_10xdl_stdlib10statistics10meanabsdev
FN:279,_RNvNtCs7X22eMfvUxK_10xdl_stdlib10statistics5t_pdf
FN:166,_RNvNtCs7X22eMfvUxK_10xdl_stdlib10statistics6median
FN:52,_RNvNtCs7X22eMfvUxK_10xdl_stdlib10statistics6moment
FN:154,_RNvNtCs7X22eMfvUxK_10xdl_stdlib10statistics6stddev
FN:244,_RNvNtCs7X22eMfvUxK_10xdl_stdlib10statistics8kurtosis
FN:233,_RNvNtCs7X22eMfvUxK_10xdl_stdlib10statistics8skewness
FN:10,_RNvNtCs7X22eMfvUxK_10xdl_stdlib10statistics8to_float
FN:119,_RNvNtCs7X22eMfvUxK_10xdl_stdlib10statistics8variance
FN:257,_RNvNtCs7X22eMfvUxK_10xdl_stdlib10statistics9gauss_pdf
FN:348,_RNvNtNtCsgiIQ3x9G6Hx_10xdl_stdlib10statistics5testss_11test_median
FN:384,_RNvNtNtCsgiIQ3x9G6Hx_10xdl_stdlib10statistics5testss_11test_moment
FN:335,_RNvNtNtCsgiIQ3x9G6Hx_10xdl_stdlib10statistics5testss_13test_variance
FN:371,_RNvNtNtCsgiIQ3x9G6Hx_10xdl_stdlib10statistics5testss_15test_meanabsdev
FN:227,_RNCNvNtCsgiIQ3x9G6Hx_10xdl_stdlib10statistics10meanabsdev0B5_
FN:188,_RNCNvNtCsgiIQ3x9G6Hx_10xdl_stdlib10statistics6median0B5_
FN:86,_RNCNvNtCsgiIQ3x9G6Hx_10xdl_stdlib10statistics6moment0B5_
FN:107,_RNCNvNtCsgiIQ3x9G6Hx_10xdl_stdlib10statistics6moments0_0B5_
FN:96,_RNCNvNtCsgiIQ3x9G6Hx_10xdl_stdlib10statistics6moments_0B5_
FN:147,_RNCNvNtCsgiIQ3x9G6Hx_10xdl_stdlib10statistics8variance0B5_
FN:303,_RNvNtCsgiIQ3x9G6Hx_10xdl_stdlib10statistics10chisqr_pdf
FN:30,_RNvNtCsgiIQ3x9G6Hx_10xdl_stdlib10statistics15array_to_floats
FN:279,_RNvNtCsgiIQ3x9G6Hx_10xdl_stdlib10statistics5t_pdf
FN:154,_RNvNtCsgiIQ3x9G6Hx_10xdl_stdlib10statistics6stddev
FN:244,_RNvNtCsgiIQ3x9G6Hx_10xdl_stdlib10statistics8kurtosis
FN:233,_RNvNtCsgiIQ3x9G6Hx_10xdl_stdlib10statistics8skewness
FN:257,_RNvNtCsgiIQ3x9G6Hx_10xdl_stdlib10statistics9gauss_pdf
FN:35,_RNvNtCsgiIQ3x9G6Hx_10xdl_stdlib10statistics10from_float
FN:203,_RNvNtCsgiIQ3x9G6Hx_10xdl_stdlib10statistics10meanabsdev
FN:166,_RNvNtCsgiIQ3x9G6Hx_10xdl_stdlib10statistics6median
FN:52,_RNvNtCsgiIQ3x9G6Hx_10xdl_stdlib10statistics6moment
FN:10,_RNvNtCsgiIQ3x9G6Hx_10xdl_stdlib10statistics8to_float
FN:119,_RNvNtCsgiIQ3x9G6Hx_10xdl_stdlib10statistics8variance
FNDA:0,_RNvNtCs7X22eMfvUxK_10xdl_stdlib10statistics15array_to_floats
FNDA:0,_RNCNvNtCs7X22eMfvUxK_10xdl_stdlib10statistics10meanabsdev0B5_
FNDA:0,_RNCNvNtCs7X22eMfvUxK_10xdl_stdlib10statistics6median0B5_
FNDA:0,_RNCNvNtCs7X22eMfvUxK_10xdl_stdlib10statistics6moment0B5_
FNDA:0,_RNCNvNtCs7X22eMfvUxK_10xdl_stdlib10statistics6moments0_0B5_
FNDA:0,_RNCNvNtCs7X22eMfvUxK_10xdl_stdlib10statistics6moments_0B5_
FNDA:0,_RNCNvNtCs7X22eMfvUxK_10xdl_stdlib10statistics8variance0B5_
FNDA:0,_RNvNtCs7X22eMfvUxK_10xdl_stdlib10statistics10chisqr_pdf
FNDA:0,_RNvNtCs7X22eMfvUxK_10xdl_stdlib10statistics10from_float
FNDA:0,_RNvNtCs7X22eMfvUxK_10xdl_stdlib10statistics10meanabsdev
FNDA:0,_RNvNtCs7X22eMfvUxK_10xdl_stdlib10statistics5t_pdf
FNDA:0,_RNvNtCs7X22eMfvUxK_10xdl_stdlib10statistics6median
FNDA:0,_RNvNtCs7X22eMfvUxK_10xdl_stdlib10statistics6moment
FNDA:0,_RNvNtCs7X22eMfvUxK_10xdl_stdlib10statistics6stddev
FNDA:0,_RNvNtCs7X22eMfvUxK_10xdl_stdlib10statistics8kurtosis
FNDA:0,_RNvNtCs7X22eMfvUxK_10xdl_stdlib10statistics8skewness
FNDA:0,_RNvNtCs7X22eMfvUxK_10xdl_stdlib10statistics8to_float
FNDA:0,_RNvNtCs7X22eMfvUxK_10xdl_stdlib10statistics8variance
FNDA:0,_RNvNtCs7X22eMfvUxK_10xdl_stdlib10statistics9gauss_pdf
FNDA:1,_RNvNtNtCsgiIQ3x9G6Hx_10xdl_stdlib10statistics5testss_11test_median
FNDA:1,_RNvNtNtCsgiIQ3x9G6Hx_10xdl_stdlib10statistics5testss_11test_moment
FNDA:1,_RNvNtNtCsgiIQ3x9G6Hx_10xdl_stdlib10statistics5testss_13test_variance
FNDA:1,_RNvNtNtCsgiIQ3x9G6Hx_10xdl_stdlib10statistics5testss_15test_meanabsdev
FNDA:5,_RNCNvNtCsgiIQ3x9G6Hx_10xdl_stdlib10statistics10meanabsdev0B5_
FNDA:9,_RNCNvNtCsgiIQ3x9G6Hx_10xdl_stdlib10statistics6median0B5_
FNDA:5,_RNCNvNtCsgiIQ3x9G6Hx_10xdl_stdlib10statistics6moment0B5_
FNDA:5,_RNCNvNtCsgiIQ3x9G6Hx_10xdl_stdlib10statistics6moments0_0B5_
FNDA:5,_RNCNvNtCsgiIQ3x9G6Hx_10xdl_stdlib10statistics6moments_0B5_
FNDA:5,_RNCNvNtCsgiIQ3x9G6Hx_10xdl_stdlib10statistics8variance0B5_
FNDA:0,_RNvNtCsgiIQ3x9G6Hx_10xdl_stdlib10statistics10chisqr_pdf
FNDA:0,_RNvNtCsgiIQ3x9G6Hx_10xdl_stdlib10statistics15array_to_floats
FNDA:0,_RNvNtCsgiIQ3x9G6Hx_10xdl_stdlib10statistics5t_pdf
FNDA:0,_RNvNtCsgiIQ3x9G6Hx_10xdl_stdlib10statistics6stddev
FNDA:0,_RNvNtCsgiIQ3x9G6Hx_10xdl_stdlib10statistics8kurtosis
FNDA:0,_RNvNtCsgiIQ3x9G6Hx_10xdl_stdlib10statistics8skewness
FNDA:0,_RNvNtCsgiIQ3x9G6Hx_10xdl_stdlib10statistics9gauss_pdf
FNDA:0,_RNvNtCsgiIQ3x9G6Hx_10xdl_stdlib10statistics10from_float
FNDA:1,_RNvNtCsgiIQ3x9G6Hx_10xdl_stdlib10statistics10meanabsdev
FNDA:2,_RNvNtCsgiIQ3x9G6Hx_10xdl_stdlib10statistics6median
FNDA:1,_RNvNtCsgiIQ3x9G6Hx_10xdl_stdlib10statistics6moment
FNDA:0,_RNvNtCsgiIQ3x9G6Hx_10xdl_stdlib10statistics8to_float
FNDA:1,_RNvNtCsgiIQ3x9G6Hx_10xdl_stdlib10statistics8variance
FNF:23
FNH:14
DA:10,0
DA:11,0
DA:12,0
DA:13,0
DA:14,0
DA:15,0
DA:16,0
DA:17,0
DA:18,0
DA:19,0
DA:20,0
DA:21,0
DA:22,0
DA:23,0
DA:24,0
DA:26,0
DA:30,0
DA:31,0
DA:32,0
DA:35,0
DA:36,0
DA:37,0
DA:38,0
DA:39,0
DA:40,0
DA:41,0
DA:42,0
DA:43,0
DA:44,0
DA:45,0
DA:46,0
DA:48,0
DA:52,1
DA:53,1
DA:54,0
DA:55,0
DA:56,0
DA:57,1
DA:59,1
DA:60,1
DA:61,1
DA:62,0
DA:63,0
DA:64,0
DA:65,1
DA:66,1
DA:68,0
DA:69,0
DA:70,0
DA:74,1
DA:75,1
DA:76,0
DA:77,0
DA:78,0
DA:79,1
DA:82,1
DA:85,1
DA:86,5
DA:87,1
DA:89,0
DA:93,1
DA:94,1
DA:95,1
DA:96,5
DA:97,1
DA:98,1
DA:100,0
DA:104,1
DA:105,1
DA:106,1
DA:107,5
DA:108,1
DA:109,1
DA:111,0
DA:115,1
DA:116,1
DA:119,1
DA:120,1
DA:121,0
DA:122,0
DA:123,0
DA:124,1
DA:126,1
DA:127,1
DA:128,1
DA:129,0
DA:130,0
DA:131,0
DA:132,1
DA:133,1
DA:135,0
DA:136,0
DA:137,0
DA:141,1
DA:142,1
DA:143,0
DA:144,1
DA:146,1
DA:147,5
DA:149,1
DA:150,1
DA:151,1
DA:154,0
DA:155,0
DA:156,0
DA:157,0
DA:158,0
DA:159,0
DA:160,0
DA:161,0
DA:163,0
DA:166,2
DA:167,2
DA:168,0
DA:169,0
DA:170,0
DA:171,2
DA:173,2
DA:174,2
DA:175,2
DA:176,0
DA:177,0
DA:178,0
DA:179,2
DA:180,2
DA:182,0
DA:183,0
DA:184,0
DA:188,9
DA:190,2
DA:191,2
DA:193,1
DA:196,1
DA:199,2
DA:200,2
DA:203,1
DA:204,1
DA:205,0
DA:206,0
DA:207,0
DA:208,1
DA:210,1
DA:211,1
DA:212,1
DA:213,0
DA:214,0
DA:215,0
DA:216,1
DA:217,1
DA:219,0
DA:220,0
DA:221,0
DA:225,1
DA:226,1
DA:227,5
DA:229,1
DA:230,1
DA:233,0
DA:234,0
DA:235,0
DA:236,0
DA:237,0
DA:238,0
DA:239,0
DA:241,0
DA:244,0
DA:245,0
DA:246,0
DA:247,0
DA:248,0
DA:249,0
DA:250,0
DA:252,0
DA:257,0
DA:258,0
DA:259,0
DA:260,0
DA:261,0
DA:262,0
DA:266,0
DA:269,0
DA:270,0
DA:271,0
DA:272,0
DA:274,0
DA:275,0
DA:276,0
DA:279,0
DA:280,0
DA:281,0
DA:282,0
DA:283,0
DA:284,0
DA:286,0
DA:287,0
DA:289,0
DA:290,0
DA:291,0
DA:292,0
DA:293,0
DA:297,0
DA:299,0
DA:300,0
DA:303,0
DA:304,0
DA:305,0
DA:306,0
DA:307,0
DA:308,0
DA:310,0
DA:311,0
DA:313,0
DA:314,0
DA:315,0
DA:316,0
DA:317,0
DA:319,0
DA:320,0
DA:321,0
DA:325,0
DA:327,0
DA:328,0
DA:335,1
DA:336,1
DA:337,1
DA:338,1
DA:341,1
DA:342,1
DA:343,0
DA:345,1
DA:348,1
DA:350,1
DA:351,1
DA:352,1
DA:354,1
DA:355,1
DA:356,0
DA:360,1
DA:361,1
DA:362,1
DA:364,1
DA:365,1
DA:366,0
DA:368,1
DA:371,1
DA:372,1
DA:373,1
DA:374,1
DA:377,1
DA:378,1
DA:379,0
DA:381,1
DA:384,1
DA:385,1
DA:386,1
DA:387,1
DA:389,1
DA:390,1
DA:391,1
DA:392,1
DA:393,1
DA:395,0
DA:397,1
BRF:0
BRH:0
LF:269
LH:115
end_of_record
SF:/Users/ravindraboddipalli/sources/xdl/xdl-stdlib/src/string.rs
FN:224,_RNCNvNtCs7X22eMfvUxK_10xdl_stdlib6string9string_fn0B5_
FN:8,_RNvMNtCs7X22eMfvUxK_10xdl_stdlib6stringNtB2_15StringFunctions3new
FN:156,_RNvNtCs7X22eMfvUxK_10xdl_stdlib6string10strlowcase
FN:20,_RNvNtCs7X22eMfvUxK_10xdl_stdlib6string6strlen
FN:77,_RNvNtCs7X22eMfvUxK_10xdl_stdlib6string6strmid
FN:42,_RNvNtCs7X22eMfvUxK_10xdl_stdlib6string6strpos
FN:179,_RNvNtCs7X22eMfvUxK_10xdl_stdlib6string9string_fn
FN:134,_RNvNtCs7X22eMfvUxK_10xdl_stdlib6string9strupcase
FN:14,_RNvXs_NtCs7X22eMfvUxK_10xdl_stdlib6stringNtB4_15StringFunctionsNtNtCs2CqrNpCrSUr_4core7default7Default7default
FN:224,_RNCNvNtCsgiIQ3x9G6Hx_10xdl_stdlib6string9string_fn0B5_
FN:8,_RNvMNtCsgiIQ3x9G6Hx_10xdl_stdlib6stringNtB2_15StringFunctions3new
FN:156,_RNvNtCsgiIQ3x9G6Hx_10xdl_stdlib6string10strlowcase
FN:20,_RNvNtCsgiIQ3x9G6Hx_10xdl_stdlib6string6strlen
FN:77,_RNvNtCsgiIQ3x9G6Hx_10xdl_stdlib6string6strmid
FN:42,_RNvNtCsgiIQ3x9G6Hx_10xdl_stdlib6string6strpos
FN:179,_RNvNtCsgiIQ3x9G6Hx_10xdl_stdlib6string9string_fn
FN:134,_RNvNtCsgiIQ3x9G6Hx_10xdl_stdlib6string9strupcase
FN:14,_RNvXs_NtCsgiIQ3x9G6Hx_10xdl_stdlib6stringNtB4_15StringFunctionsNtNtCs2CqrNpCrSUr_4core7default7Default7default
FNDA:0,_RNCNvNtCs7X22eMfvUxK_10xdl_stdlib6string9string_fn0B5_
FNDA:0,_RNvMNtCs7X22eMfvUxK_10xdl_stdlib6stringNtB2_15StringFunctions3new
FNDA:0,_RNvNtCs7X22eMfvUxK_10xdl_stdlib6string10strlowcase
FNDA:0,_RNvNtCs7X22eMfvUxK_10xdl_stdlib6string6strlen
FNDA:0,_RNvNtCs7X22eMfvUxK_10xdl_stdlib6string6strmid
FNDA:0,_RNvNtCs7X22eMfvUxK_10xdl_stdlib6string6strpos
FNDA:0,_RNvNtCs7X22eMfvUxK_10xdl_stdlib6string9string_fn
FNDA:0,_RNvNtCs7X22eMfvUxK_10xdl_stdlib6string9strupcase
FNDA:0,_RNvXs_NtCs7X22eMfvUxK_10xdl_stdlib6stringNtB4_15StringFunctionsNtNtCs2CqrNpCrSUr_4core7default7Default7default
FNDA:0,_RNCNvNtCsgiIQ3x9G6Hx_10xdl_stdlib6string9string_fn0B5_
FNDA:0,_RNvMNtCsgiIQ3x9G6Hx_10xdl_stdlib6stringNtB2_15StringFunctions3new
FNDA:0,_RNvNtCsgiIQ3x9G6Hx_10xdl_stdlib6string10strlowcase
FNDA:0,_RNvNtCsgiIQ3x9G6Hx_10xdl_stdlib6string6strlen
FNDA:0,_RNvNtCsgiIQ3x9G6Hx_10xdl_stdlib6string6strmid
FNDA:0,_RNvNtCsgiIQ3x9G6Hx_10xdl_stdlib6string6strpos
FNDA:0,_RNvNtCsgiIQ3x9G6Hx_10xdl_stdlib6string9string_fn
FNDA:0,_RNvNtCsgiIQ3x9G6Hx_10xdl_stdlib6string9strupcase
FNDA:0,_RNvXs_NtCsgiIQ3x9G6Hx_10xdl_stdlib6stringNtB4_15StringFunctionsNtNtCs2CqrNpCrSUr_4core7default7Default7default
FNF:9
FNH:0
DA:8,0
DA:9,0
DA:10,0
DA:14,0
DA:15,0
DA:16,0
DA:20,0
DA:21,0
DA:22,0
DA:23,0
DA:24,0
DA:25,0
DA:26,0
DA:28,0
DA:29,0
DA:31,0
DA:32,0
DA:33,0
DA:34,0
DA:38,0
DA:39,0
DA:42,0
DA:43,0
DA:44,0
DA:45,0
DA:46,0
DA:47,0
DA:48,0
DA:50,0
DA:51,0
DA:53,0
DA:54,0
DA:55,0
DA:56,0
DA:60,0
DA:61,0
DA:63,0
DA:64,0
DA:65,0
DA:66,0
DA:70,0
DA:71,0
DA:72,0
DA:74,0
DA:77,0
DA:78,0
DA:79,0
DA:80,0
DA:81,0
DA:82,0
DA:83,0
DA:85,0
DA:86,0
DA:88,0
DA:89,0
DA:90,0
DA:91,0
DA:95,0
DA:96,0
DA:97,0
DA:99,0
DA:100,0
DA:101,0
DA:102,0
DA:106,0
DA:107,0
DA:108,0
DA:109,0
DA:111,0
DA:112,0
DA:113,0
DA:114,0
DA:118,0
DA:119,0
DA:120,0
DA:122,0
DA:124,0
DA:125,0
DA:127,0
DA:130,0
DA:131,0
DA:134,0
DA:135,0
DA:136,0
DA:137,0
DA:138,0
DA:139,0
DA:140,0
DA:142,0
DA:143,0
DA:145,0
DA:146,0
DA:147,0
DA:148,0
DA:152,0
DA:153,0
DA:156,0
DA:157,0
DA:158,0
DA:159,0
DA:160,0
DA:161,0
DA:162,0
DA:164,0
DA:165,0
DA:167,0
DA:168,0
DA:169,0
DA:170,0
DA:174,0
DA:175,0
DA:179,0
DA:180,0
DA:181,0
DA:182,0
DA:183,0
DA:184,0
DA:188,0
DA:190,0
DA:191,0
DA:192,0
DA:193,0
DA:194,0
DA:196,0
DA:197,0
DA:199,0
DA:202,0
DA:204,0
DA:205,0
DA:207,0
DA:210,0
DA:211,0
DA:214,0
DA:216,0
DA:218,0
DA:220,0
DA:222,0
DA:223,0
DA:224,0
DA:225,0
DA:226,0
DA:227,0
DA:229,0
DA:230,0
DA:231,0
DA:232,0
DA:233,0
DA:234,0
DA:235,0
DA:236,0
DA:237,0
DA:238,0
DA:241,0
DA:242,0
BRF:0
BRH:0
LF:155
LH:0
end_of_record
SF:/Users/ravindraboddipalli/sources/xdl/xdl-stdlib/src/system.rs
FN:374,_RNvNtCs7X22eMfvUxK_10xdl_stdlib6system11catch_error
FN:338,_RNvNtCs7X22eMfvUxK_10xdl_stdlib6system11compile_pro
FN:315,_RNvNtCs7X22eMfvUxK_10xdl_stdlib6system13execute_batch
FN:266,_RNvNtCs7X22eMfvUxK_10xdl_stdlib6system14call_procedure
FN:361,_RNvNtCs7X22eMfvUxK_10xdl_stdlib6system18continue_execution
FN:8,_RNvNtCs7X22eMfvUxK_10xdl_stdlib6system18display_value_info
FN:200,_RNvNtCs7X22eMfvUxK_10xdl_stdlib6system2cd
FN:79,_RNvNtCs7X22eMfvUxK_10xdl_stdlib6system4help
FN:230,_RNvNtCs7X22eMfvUxK_10xdl_stdlib6system5spawn
FN:289,_RNvNtCs7X22eMfvUxK_10xdl_stdlib6system7defsysv
FN:374,_RNvNtCsgiIQ3x9G6Hx_10xdl_stdlib6system11catch_error
FN:338,_RNvNtCsgiIQ3x9G6Hx_10xdl_stdlib6system11compile_pro
FN:315,_RNvNtCsgiIQ3x9G6Hx_10xdl_stdlib6system13execute_batch
FN:266,_RNvNtCsgiIQ3x9G6Hx_10xdl_stdlib6system14call_procedure
FN:361,_RNvNtCsgiIQ3x9G6Hx_10xdl_stdlib6system18continue_execution
FN:8,_RNvNtCsgiIQ3x9G6Hx_10xdl_stdlib6system18display_value_info
FN:200,_RNvNtCsgiIQ3x9G6Hx_10xdl_stdlib6system2cd
FN:79,_RNvNtCsgiIQ3x9G6Hx_10xdl_stdlib6system4help
FN:230,_RNvNtCsgiIQ3x9G6Hx_10xdl_stdlib6system5spawn
FN:289,_RNvNtCsgiIQ3x9G6Hx_10xdl_stdlib6system7defsysv
FNDA:0,_RNvNtCs7X22eMfvUxK_10xdl_stdlib6system11catch_error
FNDA:0,_RNvNtCs7X22eMfvUxK_10xdl_stdlib6system11compile_pro
FNDA:0,_RNvNtCs7X22eMfvUxK_10xdl_stdlib6system13execute_batch
FNDA:0,_RNvNtCs7X22eMfvUxK_10xdl_stdlib6system14call_procedure
FNDA:0,_RNvNtCs7X22eMfvUxK_10xdl_stdlib6system18continue_execution
FNDA:0,_RNvNtCs7X22eMfvUxK_10xdl_stdlib6system18display_value_info
FNDA:0,_RNvNtCs7X22eMfvUxK_10xdl_stdlib6system2cd
FNDA:0,_RNvNtCs7X22eMfvUxK_10xdl_stdlib6system4help
FNDA:0,_RNvNtCs7X22eMfvUxK_10xdl_stdlib6system5spawn
FNDA:0,_RNvNtCs7X22eMfvUxK_10xdl_stdlib6system7defsysv
FNDA:0,_RNvNtCsgiIQ3x9G6Hx_10xdl_stdlib6system11catch_error
FNDA:0,_RNvNtCsgiIQ3x9G6Hx_10xdl_stdlib6system11compile_pro
FNDA:0,_RNvNtCsgiIQ3x9G6Hx_10xdl_stdlib6system13execute_batch
FNDA:0,_RNvNtCsgiIQ3x9G6Hx_10xdl_stdlib6system14call_procedure
FNDA:0,_RNvNtCsgiIQ3x9G6Hx_10xdl_stdlib6system18continue_execution
FNDA:0,_RNvNtCsgiIQ3x9G6Hx_10xdl_stdlib6system18display_value_info
FNDA:0,_RNvNtCsgiIQ3x9G6Hx_10xdl_stdlib6system2cd
FNDA:0,_RNvNtCsgiIQ3x9G6Hx_10xdl_stdlib6system4help
FNDA:0,_RNvNtCsgiIQ3x9G6Hx_10xdl_stdlib6system5spawn
FNDA:0,_RNvNtCsgiIQ3x9G6Hx_10xdl_stdlib6system7defsysv
FNF:10
FNH:0
DA:8,0
DA:9,0
DA:10,0
DA:11,0
DA:12,0
DA:13,0
DA:14,0
DA:15,0
DA:16,0
DA:17,0
DA:18,0
DA:19,0
DA:20,0
DA:21,0
DA:22,0
DA:23,0
DA:24,0
DA:25,0
DA:26,0
DA:27,0
DA:28,0
DA:29,0
DA:30,0
DA:31,0
DA:32,0
DA:33,0
DA:34,0
DA:35,0
DA:36,0
DA:37,0
DA:38,0
DA:39,0
DA:41,0
DA:42,0
DA:43,0
DA:44,0
DA:45,0
DA:46,0
DA:47,0
DA:48,0
DA:49,0
DA:50,0
DA:51,0
DA:52,0
DA:53,0
DA:54,0
DA:55,0
DA:56,0
DA:57,0
DA:58,0
DA:59,0
DA:60,0
DA:61,0
DA:62,0
DA:63,0
DA:64,0
DA:65,0
DA:66,0
DA:67,0
DA:68,0
DA:69,0
DA:70,0
DA:71,0
DA:72,0
DA:73,0
DA:74,0
DA:76,0
DA:79,0
DA:80,0
DA:81,0
DA:82,0
DA:83,0
DA:84,0
DA:85,0
DA:86,0
DA:87,0
DA:88,0
DA:89,0
DA:90,0
DA:91,0
DA:92,0
DA:93,0
DA:95,0
DA:96,0
DA:97,0
DA:99,0
DA:100,0
DA:101,0
DA:102,0
DA:103,0
DA:104,0
DA:105,0
DA:106,0
DA:107,0
DA:108,0
DA:109,0
DA:110,0
DA:111,0
DA:112,0
DA:113,0
DA:114,0
DA:115,0
DA:116,0
DA:117,0
DA:118,0
DA:119,0
DA:120,0
DA:121,0
DA:122,0
DA:123,0
DA:124,0
DA:125,0
DA:126,0
DA:127,0
DA:128,0
DA:129,0
DA:130,0
DA:131,0
DA:132,0
DA:133,0
DA:134,0
DA:135,0
DA:136,0
DA:137,0
DA:138,0
DA:139,0
DA:140,0
DA:141,0
DA:142,0
DA:143,0
DA:144,0
DA:145,0
DA:146,0
DA:147,0
DA:148,0
DA:149,0
DA:150,0
DA:151,0
DA:152,0
DA:153,0
DA:154,0
DA:155,0
DA:156,0
DA:157,0
DA:158,0
DA:159,0
DA:160,0
DA:161,0
DA:162,0
DA:163,0
DA:164,0
DA:165,0
DA:166,0
DA:167,0
DA:168,0
DA:169,0
DA:170,0
DA:171,0
DA:172,0
DA:173,0
DA:174,0
DA:175,0
DA:176,0
DA:177,0
DA:178,0
DA:179,0
DA:180,0
DA:181,0
DA:183,0
DA:184,0
DA:185,0
DA:186,0
DA:189,0
DA:190,0
DA:191,0
DA:193,0
DA:194,0
DA:195,0
DA:196,0
DA:197,0
DA:200,0
DA:201,0
DA:202,0
DA:203,0
DA:204,0
DA:205,0
DA:207,0
DA:208,0
DA:210,0
DA:211,0
DA:212,0
DA:213,0
DA:217,0
DA:219,0
DA:220,0
DA:222,0
DA:223,0
DA:224,0
DA:225,0
DA:227,0
DA:230,0
DA:231,0
DA:232,0
DA:233,0
DA:234,0
DA:235,0
DA:237,0
DA:238,0
DA:240,0
DA:241,0
DA:242,0
DA:243,0
DA:247,0
DA:248,0
DA:249,0
DA:250,0
DA:252,0
DA:253,0
DA:254,0
DA:255,0
DA:258,0
DA:259,0
DA:260,0
DA:261,0
DA:263,0
DA:266,0
DA:267,0
DA:268,0
DA:269,0
DA:270,0
DA:271,0
DA:273,0
DA:274,0
DA:276,0
DA:277,0
DA:278,0
DA:279,0
DA:284,0
DA:285,0
DA:286,0
DA:289,0
DA:290,0
DA:291,0
DA:292,0
DA:293,0
DA:294,0
DA:296,0
DA:297,0
DA:299,0
DA:300,0
DA:301,0
DA:302,0
DA:307,0
DA:308,0
DA:311,0
DA:312,0
DA:315,0
DA:316,0
DA:317,0
DA:318,0
DA:319,0
DA:320,0
DA:322,0
DA:323,0
DA:325,0
DA:326,0
DA:327,0
DA:328,0
DA:333,0
DA:334,0
DA:335,0
DA:338,0
DA:339,0
DA:340,0
DA:341,0
DA:342,0
DA:343,0
DA:345,0
DA:346,0
DA:348,0
DA:349,0
DA:350,0
DA:351,0
DA:356,0
DA:357,0
DA:358,0
DA:361,0
DA:362,0
DA:363,0
DA:364,0
DA:365,0
DA:366,0
DA:369,0
DA:370,0
DA:371,0
DA:374,0
DA:376,0
DA:377,0
DA:378,0
BRF:0
BRH:0
LF:299
LH:0
end_of_record
